Archive member included to satisfy reference by file (symbol)

/home/ming/tf-a-stm32mp-2.2.r2-r0/tf-a-stm32mp-2.2.r2/../build/trusted/lib/libfdt.a(fdt.o)
                              /home/ming/tf-a-stm32mp-2.2.r2-r0/tf-a-stm32mp-2.2.r2/../build/trusted/bl32/stm32mp_dt.o (fdt_check_header)
/home/ming/tf-a-stm32mp-2.2.r2-r0/tf-a-stm32mp-2.2.r2/../build/trusted/lib/libfdt.a(fdt_addresses.o)
                              /home/ming/tf-a-stm32mp-2.2.r2-r0/tf-a-stm32mp-2.2.r2/../build/trusted/bl32/stm32mp_dt.o (fdt_address_cells)
/home/ming/tf-a-stm32mp-2.2.r2-r0/tf-a-stm32mp-2.2.r2/../build/trusted/lib/libfdt.a(fdt_ro.o)
                              /home/ming/tf-a-stm32mp-2.2.r2-r0/tf-a-stm32mp-2.2.r2/../build/trusted/bl32/stm32mp_clkfunc.o (fdt_get_name)
/home/ming/tf-a-stm32mp-2.2.r2-r0/tf-a-stm32mp-2.2.r2/../build/trusted/lib/libc.a(assert.o)
                              /home/ming/tf-a-stm32mp-2.2.r2-r0/tf-a-stm32mp-2.2.r2/../build/trusted/bl32/sp_min_main.o (__assert)
/home/ming/tf-a-stm32mp-2.2.r2-r0/tf-a-stm32mp-2.2.r2/../build/trusted/lib/libc.a(memchr.o)
                              /home/ming/tf-a-stm32mp-2.2.r2-r0/tf-a-stm32mp-2.2.r2/../build/trusted/lib/libfdt.a(fdt_ro.o) (memchr)
/home/ming/tf-a-stm32mp-2.2.r2-r0/tf-a-stm32mp-2.2.r2/../build/trusted/lib/libc.a(memcmp.o)
                              /home/ming/tf-a-stm32mp-2.2.r2-r0/tf-a-stm32mp-2.2.r2/../build/trusted/lib/libfdt.a(fdt.o) (memcmp)
/home/ming/tf-a-stm32mp-2.2.r2-r0/tf-a-stm32mp-2.2.r2/../build/trusted/lib/libc.a(memcpy.o)
                              /home/ming/tf-a-stm32mp-2.2.r2-r0/tf-a-stm32mp-2.2.r2/../build/trusted/bl32/context_mgmt.o (memcpy)
/home/ming/tf-a-stm32mp-2.2.r2-r0/tf-a-stm32mp-2.2.r2/../build/trusted/lib/libc.a(memmove.o)
                              /home/ming/tf-a-stm32mp-2.2.r2-r0/tf-a-stm32mp-2.2.r2/../build/trusted/bl32/xlat_tables_core.o (memmove)
/home/ming/tf-a-stm32mp-2.2.r2-r0/tf-a-stm32mp-2.2.r2/../build/trusted/lib/libc.a(memset.o)
                              /home/ming/tf-a-stm32mp-2.2.r2-r0/tf-a-stm32mp-2.2.r2/../build/trusted/bl32/runtime_svc.o (memset)
/home/ming/tf-a-stm32mp-2.2.r2-r0/tf-a-stm32mp-2.2.r2/../build/trusted/lib/libc.a(printf.o)
                              /home/ming/tf-a-stm32mp-2.2.r2-r0/tf-a-stm32mp-2.2.r2/../build/trusted/bl32/tf_log.o (vprintf)
/home/ming/tf-a-stm32mp-2.2.r2-r0/tf-a-stm32mp-2.2.r2/../build/trusted/lib/libc.a(putchar.o)
                              /home/ming/tf-a-stm32mp-2.2.r2-r0/tf-a-stm32mp-2.2.r2/../build/trusted/bl32/tf_log.o (putchar)
/home/ming/tf-a-stm32mp-2.2.r2-r0/tf-a-stm32mp-2.2.r2/../build/trusted/lib/libc.a(snprintf.o)
                              /home/ming/tf-a-stm32mp-2.2.r2-r0/tf-a-stm32mp-2.2.r2/../build/trusted/bl32/stm32mp1_clk.o (snprintf)
/home/ming/tf-a-stm32mp-2.2.r2-r0/tf-a-stm32mp-2.2.r2/../build/trusted/lib/libc.a(strchr.o)
                              /home/ming/tf-a-stm32mp-2.2.r2-r0/tf-a-stm32mp-2.2.r2/../build/trusted/bl32/stm32mp_dt.o (strchr)
/home/ming/tf-a-stm32mp-2.2.r2-r0/tf-a-stm32mp-2.2.r2/../build/trusted/lib/libc.a(strcmp.o)
                              /home/ming/tf-a-stm32mp-2.2.r2-r0/tf-a-stm32mp-2.2.r2/../build/trusted/bl32/stm32mp_pmic.o (strcmp)
/home/ming/tf-a-stm32mp-2.2.r2-r0/tf-a-stm32mp-2.2.r2/../build/trusted/lib/libc.a(strlcpy.o)
                              /home/ming/tf-a-stm32mp-2.2.r2-r0/tf-a-stm32mp-2.2.r2/../build/trusted/bl32/base.o (strlcpy)
/home/ming/tf-a-stm32mp-2.2.r2-r0/tf-a-stm32mp-2.2.r2/../build/trusted/lib/libc.a(strlen.o)
                              /home/ming/tf-a-stm32mp-2.2.r2-r0/tf-a-stm32mp-2.2.r2/../build/trusted/bl32/base.o (strlen)
/home/ming/tf-a-stm32mp-2.2.r2-r0/tf-a-stm32mp-2.2.r2/../build/trusted/lib/libc.a(strncmp.o)
                              /home/ming/tf-a-stm32mp-2.2.r2-r0/tf-a-stm32mp-2.2.r2/../build/trusted/bl32/stm32mp_clkfunc.o (strncmp)
/home/ming/tf-a-stm32mp-2.2.r2-r0/tf-a-stm32mp-2.2.r2/../build/trusted/lib/libc.a(strnlen.o)
                              /home/ming/tf-a-stm32mp-2.2.r2-r0/tf-a-stm32mp-2.2.r2/../build/trusted/lib/libfdt.a(fdt_ro.o) (strnlen)
/home/ming/tf-a-stm32mp-2.2.r2-r0/tf-a-stm32mp-2.2.r2/../build/trusted/lib/libc.a(strrchr.o)
                              /home/ming/tf-a-stm32mp-2.2.r2-r0/tf-a-stm32mp-2.2.r2/../build/trusted/lib/libfdt.a(fdt_ro.o) (strrchr)

Allocating common symbols
Common symbol       size              file

mmu_cfg_params      0x18              /home/ming/tf-a-stm32mp-2.2.r2-r0/tf-a-stm32mp-2.2.r2/../build/trusted/bl32/xlat_tables_context.o
rt_svc_descs_indices
                    0x80              /home/ming/tf-a-stm32mp-2.2.r2-r0/tf-a-stm32mp-2.2.r2/../build/trusted/bl32/runtime_svc.o
psci_cpu_pd_nodes   0x18              /home/ming/tf-a-stm32mp-2.2.r2-r0/tf-a-stm32mp-2.2.r2/../build/trusted/bl32/psci_common.o
psci_caps           0x4               /home/ming/tf-a-stm32mp-2.2.r2-r0/tf-a-stm32mp-2.2.r2/../build/trusted/bl32/psci_setup.o
psci_non_cpu_pd_nodes
                    0x20              /home/ming/tf-a-stm32mp-2.2.r2-r0/tf-a-stm32mp-2.2.r2/../build/trusted/bl32/psci_common.o
psci_plat_pm_ops    0x4               /home/ming/tf-a-stm32mp-2.2.r2-r0/tf-a-stm32mp-2.2.r2/../build/trusted/bl32/psci_common.o
percpu_data         0x80              /home/ming/tf-a-stm32mp-2.2.r2-r0/tf-a-stm32mp-2.2.r2/../build/trusted/bl32/cpu_data_array.o
console_list        0x4               /home/ming/tf-a-stm32mp-2.2.r2-r0/tf-a-stm32mp-2.2.r2/../build/trusted/bl32/multi_console.o
psci_spd_pm         0x4               /home/ming/tf-a-stm32mp-2.2.r2-r0/tf-a-stm32mp-2.2.r2/../build/trusted/bl32/psci_common.o

Discarded input sections

 .text          0x0000000000000000        0x0 /home/ming/tf-a-stm32mp-2.2.r2-r0/tf-a-stm32mp-2.2.r2/../build/trusted/bl32/build_message.o
 .data          0x0000000000000000        0x0 /home/ming/tf-a-stm32mp-2.2.r2-r0/tf-a-stm32mp-2.2.r2/../build/trusted/bl32/build_message.o
 .bss           0x0000000000000000        0x0 /home/ming/tf-a-stm32mp-2.2.r2-r0/tf-a-stm32mp-2.2.r2/../build/trusted/bl32/build_message.o
 .text          0x0000000000000000        0x0 /home/ming/tf-a-stm32mp-2.2.r2-r0/tf-a-stm32mp-2.2.r2/../build/trusted/bl32/sp_min_main.o
 .data          0x0000000000000000        0x0 /home/ming/tf-a-stm32mp-2.2.r2-r0/tf-a-stm32mp-2.2.r2/../build/trusted/bl32/sp_min_main.o
 .bss           0x0000000000000000        0x0 /home/ming/tf-a-stm32mp-2.2.r2-r0/tf-a-stm32mp-2.2.r2/../build/trusted/bl32/sp_min_main.o
 .text.smc_set_next_ctx
                0x0000000000000000       0x14 /home/ming/tf-a-stm32mp-2.2.r2-r0/tf-a-stm32mp-2.2.r2/../build/trusted/bl32/sp_min_main.o
 .text.cm_set_context
                0x0000000000000000       0x24 /home/ming/tf-a-stm32mp-2.2.r2-r0/tf-a-stm32mp-2.2.r2/../build/trusted/bl32/sp_min_main.o
 .text          0x0000000000000000        0x0 /home/ming/tf-a-stm32mp-2.2.r2-r0/tf-a-stm32mp-2.2.r2/../build/trusted/bl32/runtime_svc.o
 .data          0x0000000000000000        0x0 /home/ming/tf-a-stm32mp-2.2.r2-r0/tf-a-stm32mp-2.2.r2/../build/trusted/bl32/runtime_svc.o
 .bss           0x0000000000000000        0x0 /home/ming/tf-a-stm32mp-2.2.r2-r0/tf-a-stm32mp-2.2.r2/../build/trusted/bl32/runtime_svc.o
 .text          0x0000000000000000        0x0 /home/ming/tf-a-stm32mp-2.2.r2-r0/tf-a-stm32mp-2.2.r2/../build/trusted/bl32/plat_sp_min_common.o
 .data          0x0000000000000000        0x0 /home/ming/tf-a-stm32mp-2.2.r2-r0/tf-a-stm32mp-2.2.r2/../build/trusted/bl32/plat_sp_min_common.o
 .bss           0x0000000000000000        0x0 /home/ming/tf-a-stm32mp-2.2.r2-r0/tf-a-stm32mp-2.2.r2/../build/trusted/bl32/plat_sp_min_common.o
 .text          0x0000000000000000        0x0 /home/ming/tf-a-stm32mp-2.2.r2-r0/tf-a-stm32mp-2.2.r2/../build/trusted/bl32/std_svc_setup.o
 .data          0x0000000000000000        0x0 /home/ming/tf-a-stm32mp-2.2.r2-r0/tf-a-stm32mp-2.2.r2/../build/trusted/bl32/std_svc_setup.o
 .bss           0x0000000000000000        0x0 /home/ming/tf-a-stm32mp-2.2.r2-r0/tf-a-stm32mp-2.2.r2/../build/trusted/bl32/std_svc_setup.o
 .text          0x0000000000000000        0x0 /home/ming/tf-a-stm32mp-2.2.r2-r0/tf-a-stm32mp-2.2.r2/../build/trusted/bl32/cpu_data_array.o
 .data          0x0000000000000000        0x0 /home/ming/tf-a-stm32mp-2.2.r2-r0/tf-a-stm32mp-2.2.r2/../build/trusted/bl32/cpu_data_array.o
 .bss           0x0000000000000000        0x0 /home/ming/tf-a-stm32mp-2.2.r2-r0/tf-a-stm32mp-2.2.r2/../build/trusted/bl32/cpu_data_array.o
 .text          0x0000000000000000        0x0 /home/ming/tf-a-stm32mp-2.2.r2-r0/tf-a-stm32mp-2.2.r2/../build/trusted/bl32/context_mgmt.o
 .data          0x0000000000000000        0x0 /home/ming/tf-a-stm32mp-2.2.r2-r0/tf-a-stm32mp-2.2.r2/../build/trusted/bl32/context_mgmt.o
 .bss           0x0000000000000000        0x0 /home/ming/tf-a-stm32mp-2.2.r2-r0/tf-a-stm32mp-2.2.r2/../build/trusted/bl32/context_mgmt.o
 .text.cm_init  0x0000000000000000        0x2 /home/ming/tf-a-stm32mp-2.2.r2-r0/tf-a-stm32mp-2.2.r2/../build/trusted/bl32/context_mgmt.o
 .text          0x0000000000000000        0x0 /home/ming/tf-a-stm32mp-2.2.r2-r0/tf-a-stm32mp-2.2.r2/../build/trusted/bl32/errata_report.o
 .data          0x0000000000000000        0x0 /home/ming/tf-a-stm32mp-2.2.r2-r0/tf-a-stm32mp-2.2.r2/../build/trusted/bl32/errata_report.o
 .bss           0x0000000000000000        0x0 /home/ming/tf-a-stm32mp-2.2.r2-r0/tf-a-stm32mp-2.2.r2/../build/trusted/bl32/errata_report.o
 .text.errata_print_msg
                0x0000000000000000       0x60 /home/ming/tf-a-stm32mp-2.2.r2-r0/tf-a-stm32mp-2.2.r2/../build/trusted/bl32/errata_report.o
 .rodata.errata_print_msg.str1.1
                0x0000000000000000       0x7d /home/ming/tf-a-stm32mp-2.2.r2-r0/tf-a-stm32mp-2.2.r2/../build/trusted/bl32/errata_report.o
 .text          0x0000000000000000        0x0 /home/ming/tf-a-stm32mp-2.2.r2-r0/tf-a-stm32mp-2.2.r2/../build/trusted/bl32/psci_off.o
 .data          0x0000000000000000        0x0 /home/ming/tf-a-stm32mp-2.2.r2-r0/tf-a-stm32mp-2.2.r2/../build/trusted/bl32/psci_off.o
 .bss           0x0000000000000000        0x0 /home/ming/tf-a-stm32mp-2.2.r2-r0/tf-a-stm32mp-2.2.r2/../build/trusted/bl32/psci_off.o
 .text          0x0000000000000000        0x0 /home/ming/tf-a-stm32mp-2.2.r2-r0/tf-a-stm32mp-2.2.r2/../build/trusted/bl32/psci_on.o
 .data          0x0000000000000000        0x0 /home/ming/tf-a-stm32mp-2.2.r2-r0/tf-a-stm32mp-2.2.r2/../build/trusted/bl32/psci_on.o
 .bss           0x0000000000000000        0x0 /home/ming/tf-a-stm32mp-2.2.r2-r0/tf-a-stm32mp-2.2.r2/../build/trusted/bl32/psci_on.o
 .text          0x0000000000000000        0x0 /home/ming/tf-a-stm32mp-2.2.r2-r0/tf-a-stm32mp-2.2.r2/../build/trusted/bl32/psci_suspend.o
 .data          0x0000000000000000        0x0 /home/ming/tf-a-stm32mp-2.2.r2-r0/tf-a-stm32mp-2.2.r2/../build/trusted/bl32/psci_suspend.o
 .bss           0x0000000000000000        0x0 /home/ming/tf-a-stm32mp-2.2.r2-r0/tf-a-stm32mp-2.2.r2/../build/trusted/bl32/psci_suspend.o
 .text          0x0000000000000000        0x0 /home/ming/tf-a-stm32mp-2.2.r2-r0/tf-a-stm32mp-2.2.r2/../build/trusted/bl32/psci_common.o
 .data          0x0000000000000000        0x0 /home/ming/tf-a-stm32mp-2.2.r2-r0/tf-a-stm32mp-2.2.r2/../build/trusted/bl32/psci_common.o
 .bss           0x0000000000000000        0x0 /home/ming/tf-a-stm32mp-2.2.r2-r0/tf-a-stm32mp-2.2.r2/../build/trusted/bl32/psci_common.o
 .text.psci_register_spd_pm_hook
                0x0000000000000000       0x3c /home/ming/tf-a-stm32mp-2.2.r2-r0/tf-a-stm32mp-2.2.r2/../build/trusted/bl32/psci_common.o
 .text.psci_secondaries_brought_up
                0x0000000000000000       0x34 /home/ming/tf-a-stm32mp-2.2.r2-r0/tf-a-stm32mp-2.2.r2/../build/trusted/bl32/psci_common.o
 .text          0x0000000000000000        0x0 /home/ming/tf-a-stm32mp-2.2.r2-r0/tf-a-stm32mp-2.2.r2/../build/trusted/bl32/psci_main.o
 .data          0x0000000000000000        0x0 /home/ming/tf-a-stm32mp-2.2.r2-r0/tf-a-stm32mp-2.2.r2/../build/trusted/bl32/psci_main.o
 .bss           0x0000000000000000        0x0 /home/ming/tf-a-stm32mp-2.2.r2-r0/tf-a-stm32mp-2.2.r2/../build/trusted/bl32/psci_main.o
 .text.psci_version
                0x0000000000000000        0x6 /home/ming/tf-a-stm32mp-2.2.r2-r0/tf-a-stm32mp-2.2.r2/../build/trusted/bl32/psci_main.o
 .text          0x0000000000000000        0x0 /home/ming/tf-a-stm32mp-2.2.r2-r0/tf-a-stm32mp-2.2.r2/../build/trusted/bl32/psci_setup.o
 .data          0x0000000000000000        0x0 /home/ming/tf-a-stm32mp-2.2.r2-r0/tf-a-stm32mp-2.2.r2/../build/trusted/bl32/psci_setup.o
 .bss           0x0000000000000000        0x0 /home/ming/tf-a-stm32mp-2.2.r2-r0/tf-a-stm32mp-2.2.r2/../build/trusted/bl32/psci_setup.o
 .text          0x0000000000000000        0x0 /home/ming/tf-a-stm32mp-2.2.r2-r0/tf-a-stm32mp-2.2.r2/../build/trusted/bl32/psci_system_off.o
 .data          0x0000000000000000        0x0 /home/ming/tf-a-stm32mp-2.2.r2-r0/tf-a-stm32mp-2.2.r2/../build/trusted/bl32/psci_system_off.o
 .bss           0x0000000000000000        0x0 /home/ming/tf-a-stm32mp-2.2.r2-r0/tf-a-stm32mp-2.2.r2/../build/trusted/bl32/psci_system_off.o
 .text          0x0000000000000000        0x0 /home/ming/tf-a-stm32mp-2.2.r2-r0/tf-a-stm32mp-2.2.r2/../build/trusted/bl32/psci_mem_protect.o
 .data          0x0000000000000000        0x0 /home/ming/tf-a-stm32mp-2.2.r2-r0/tf-a-stm32mp-2.2.r2/../build/trusted/bl32/psci_mem_protect.o
 .bss           0x0000000000000000        0x0 /home/ming/tf-a-stm32mp-2.2.r2-r0/tf-a-stm32mp-2.2.r2/../build/trusted/bl32/psci_mem_protect.o
 .text          0x0000000000000000        0x0 /home/ming/tf-a-stm32mp-2.2.r2-r0/tf-a-stm32mp-2.2.r2/../build/trusted/bl32/bakery_lock_normal.o
 .data          0x0000000000000000        0x0 /home/ming/tf-a-stm32mp-2.2.r2-r0/tf-a-stm32mp-2.2.r2/../build/trusted/bl32/bakery_lock_normal.o
 .bss           0x0000000000000000        0x0 /home/ming/tf-a-stm32mp-2.2.r2-r0/tf-a-stm32mp-2.2.r2/../build/trusted/bl32/bakery_lock_normal.o
 .text          0x0000000000000000        0x0 /home/ming/tf-a-stm32mp-2.2.r2-r0/tf-a-stm32mp-2.2.r2/../build/trusted/bl32/stm32mp1_calib.o
 .data          0x0000000000000000        0x0 /home/ming/tf-a-stm32mp-2.2.r2-r0/tf-a-stm32mp-2.2.r2/../build/trusted/bl32/stm32mp1_calib.o
 .bss           0x0000000000000000        0x0 /home/ming/tf-a-stm32mp-2.2.r2-r0/tf-a-stm32mp-2.2.r2/../build/trusted/bl32/stm32mp1_calib.o
 .text          0x0000000000000000        0x0 /home/ming/tf-a-stm32mp-2.2.r2-r0/tf-a-stm32mp-2.2.r2/../build/trusted/bl32/etzpc.o
 .data          0x0000000000000000        0x0 /home/ming/tf-a-stm32mp-2.2.r2-r0/tf-a-stm32mp-2.2.r2/../build/trusted/bl32/etzpc.o
 .bss           0x0000000000000000        0x0 /home/ming/tf-a-stm32mp-2.2.r2-r0/tf-a-stm32mp-2.2.r2/../build/trusted/bl32/etzpc.o
 .text.etzpc_get_tzma
                0x0000000000000000       0x24 /home/ming/tf-a-stm32mp-2.2.r2-r0/tf-a-stm32mp-2.2.r2/../build/trusted/bl32/etzpc.o
 .text.etzpc_lock_tzma
                0x0000000000000000       0x2c /home/ming/tf-a-stm32mp-2.2.r2-r0/tf-a-stm32mp-2.2.r2/../build/trusted/bl32/etzpc.o
 .text.etzpc_get_lock_tzma
                0x0000000000000000       0x24 /home/ming/tf-a-stm32mp-2.2.r2-r0/tf-a-stm32mp-2.2.r2/../build/trusted/bl32/etzpc.o
 .text.etzpc_get_num_per_sec
                0x0000000000000000        0xc /home/ming/tf-a-stm32mp-2.2.r2-r0/tf-a-stm32mp-2.2.r2/../build/trusted/bl32/etzpc.o
 .text.etzpc_get_revision
                0x0000000000000000        0xc /home/ming/tf-a-stm32mp-2.2.r2-r0/tf-a-stm32mp-2.2.r2/../build/trusted/bl32/etzpc.o
 .text.etzpc_get_base_address
                0x0000000000000000        0xc /home/ming/tf-a-stm32mp-2.2.r2-r0/tf-a-stm32mp-2.2.r2/../build/trusted/bl32/etzpc.o
 .text          0x0000000000000000        0x0 /home/ming/tf-a-stm32mp-2.2.r2-r0/tf-a-stm32mp-2.2.r2/../build/trusted/bl32/stm32_rng.o
 .data          0x0000000000000000        0x0 /home/ming/tf-a-stm32mp-2.2.r2-r0/tf-a-stm32mp-2.2.r2/../build/trusted/bl32/stm32_rng.o
 .bss           0x0000000000000000        0x0 /home/ming/tf-a-stm32mp-2.2.r2-r0/tf-a-stm32mp-2.2.r2/../build/trusted/bl32/stm32_rng.o
 .text          0x0000000000000000        0x0 /home/ming/tf-a-stm32mp-2.2.r2-r0/tf-a-stm32mp-2.2.r2/../build/trusted/bl32/stm32_rtc.o
 .data          0x0000000000000000        0x0 /home/ming/tf-a-stm32mp-2.2.r2-r0/tf-a-stm32mp-2.2.r2/../build/trusted/bl32/stm32_rtc.o
 .bss           0x0000000000000000        0x0 /home/ming/tf-a-stm32mp-2.2.r2-r0/tf-a-stm32mp-2.2.r2/../build/trusted/bl32/stm32_rtc.o
 .text          0x0000000000000000        0x0 /home/ming/tf-a-stm32mp-2.2.r2-r0/tf-a-stm32mp-2.2.r2/../build/trusted/bl32/stm32_tamp.o
 .data          0x0000000000000000        0x0 /home/ming/tf-a-stm32mp-2.2.r2-r0/tf-a-stm32mp-2.2.r2/../build/trusted/bl32/stm32_tamp.o
 .bss           0x0000000000000000        0x0 /home/ming/tf-a-stm32mp-2.2.r2-r0/tf-a-stm32mp-2.2.r2/../build/trusted/bl32/stm32_tamp.o
 .text.stm32_tamp_write_mcounter
                0x0000000000000000       0x10 /home/ming/tf-a-stm32mp-2.2.r2-r0/tf-a-stm32mp-2.2.r2/../build/trusted/bl32/stm32_tamp.o
 .text          0x0000000000000000        0x0 /home/ming/tf-a-stm32mp-2.2.r2-r0/tf-a-stm32mp-2.2.r2/../build/trusted/bl32/stm32_timer.o
 .data          0x0000000000000000        0x0 /home/ming/tf-a-stm32mp-2.2.r2-r0/tf-a-stm32mp-2.2.r2/../build/trusted/bl32/stm32_timer.o
 .bss           0x0000000000000000        0x0 /home/ming/tf-a-stm32mp-2.2.r2-r0/tf-a-stm32mp-2.2.r2/../build/trusted/bl32/stm32_timer.o
 .text          0x0000000000000000        0x0 /home/ming/tf-a-stm32mp-2.2.r2-r0/tf-a-stm32mp-2.2.r2/../build/trusted/bl32/sp_min_setup.o
 .data          0x0000000000000000        0x0 /home/ming/tf-a-stm32mp-2.2.r2-r0/tf-a-stm32mp-2.2.r2/../build/trusted/bl32/sp_min_setup.o
 .bss           0x0000000000000000        0x0 /home/ming/tf-a-stm32mp-2.2.r2-r0/tf-a-stm32mp-2.2.r2/../build/trusted/bl32/sp_min_setup.o
 .text          0x0000000000000000        0x0 /home/ming/tf-a-stm32mp-2.2.r2-r0/tf-a-stm32mp-2.2.r2/../build/trusted/bl32/stm32mp1_low_power.o
 .data          0x0000000000000000        0x0 /home/ming/tf-a-stm32mp-2.2.r2-r0/tf-a-stm32mp-2.2.r2/../build/trusted/bl32/stm32mp1_low_power.o
 .bss           0x0000000000000000        0x0 /home/ming/tf-a-stm32mp-2.2.r2-r0/tf-a-stm32mp-2.2.r2/../build/trusted/bl32/stm32mp1_low_power.o
 .text          0x0000000000000000        0x0 /home/ming/tf-a-stm32mp-2.2.r2-r0/tf-a-stm32mp-2.2.r2/../build/trusted/bl32/stm32mp1_pm.o
 .data          0x0000000000000000        0x0 /home/ming/tf-a-stm32mp-2.2.r2-r0/tf-a-stm32mp-2.2.r2/../build/trusted/bl32/stm32mp1_pm.o
 .bss           0x0000000000000000        0x0 /home/ming/tf-a-stm32mp-2.2.r2-r0/tf-a-stm32mp-2.2.r2/../build/trusted/bl32/stm32mp1_pm.o
 .text          0x0000000000000000        0x0 /home/ming/tf-a-stm32mp-2.2.r2-r0/tf-a-stm32mp-2.2.r2/../build/trusted/bl32/stm32mp1_power_config.o
 .data          0x0000000000000000        0x0 /home/ming/tf-a-stm32mp-2.2.r2-r0/tf-a-stm32mp-2.2.r2/../build/trusted/bl32/stm32mp1_power_config.o
 .bss           0x0000000000000000        0x0 /home/ming/tf-a-stm32mp-2.2.r2-r0/tf-a-stm32mp-2.2.r2/../build/trusted/bl32/stm32mp1_power_config.o
 .text.stm32mp1_set_lp_deepest_soc_mode
                0x0000000000000000       0x28 /home/ming/tf-a-stm32mp-2.2.r2-r0/tf-a-stm32mp-2.2.r2/../build/trusted/bl32/stm32mp1_power_config.o
 .text          0x0000000000000000        0x0 /home/ming/tf-a-stm32mp-2.2.r2-r0/tf-a-stm32mp-2.2.r2/../build/trusted/bl32/stm32mp1_shared_resources.o
 .data          0x0000000000000000        0x0 /home/ming/tf-a-stm32mp-2.2.r2-r0/tf-a-stm32mp-2.2.r2/../build/trusted/bl32/stm32mp1_shared_resources.o
 .bss           0x0000000000000000        0x0 /home/ming/tf-a-stm32mp-2.2.r2-r0/tf-a-stm32mp-2.2.r2/../build/trusted/bl32/stm32mp1_shared_resources.o
 .text.stm32mp_register_non_secure_periph
                0x0000000000000000        0x6 /home/ming/tf-a-stm32mp-2.2.r2-r0/tf-a-stm32mp-2.2.r2/../build/trusted/bl32/stm32mp1_shared_resources.o
 .text.stm32mp1_periph_is_non_secure
                0x0000000000000000       0x20 /home/ming/tf-a-stm32mp-2.2.r2-r0/tf-a-stm32mp-2.2.r2/../build/trusted/bl32/stm32mp1_shared_resources.o
 .text.stm32mp1_periph_is_secure
                0x0000000000000000       0x1c /home/ming/tf-a-stm32mp-2.2.r2-r0/tf-a-stm32mp-2.2.r2/../build/trusted/bl32/stm32mp1_shared_resources.o
 .text.stm32mp_gpio_bank_is_shared
                0x0000000000000000       0x50 /home/ming/tf-a-stm32mp-2.2.r2-r0/tf-a-stm32mp-2.2.r2/../build/trusted/bl32/stm32mp1_shared_resources.o
 .text          0x0000000000000000        0x0 /home/ming/tf-a-stm32mp-2.2.r2-r0/tf-a-stm32mp-2.2.r2/../build/trusted/bl32/stm32mp1_topology.o
 .data          0x0000000000000000        0x0 /home/ming/tf-a-stm32mp-2.2.r2-r0/tf-a-stm32mp-2.2.r2/../build/trusted/bl32/stm32mp1_topology.o
 .bss           0x0000000000000000        0x0 /home/ming/tf-a-stm32mp-2.2.r2-r0/tf-a-stm32mp-2.2.r2/../build/trusted/bl32/stm32mp1_topology.o
 .text          0x0000000000000000        0x0 /home/ming/tf-a-stm32mp-2.2.r2-r0/tf-a-stm32mp-2.2.r2/../build/trusted/bl32/gic_common.o
 .data          0x0000000000000000        0x0 /home/ming/tf-a-stm32mp-2.2.r2-r0/tf-a-stm32mp-2.2.r2/../build/trusted/bl32/gic_common.o
 .bss           0x0000000000000000        0x0 /home/ming/tf-a-stm32mp-2.2.r2-r0/tf-a-stm32mp-2.2.r2/../build/trusted/bl32/gic_common.o
 .text.gicd_read_isenabler
                0x0000000000000000        0xc /home/ming/tf-a-stm32mp-2.2.r2-r0/tf-a-stm32mp-2.2.r2/../build/trusted/bl32/gic_common.o
 .text.gicd_read_icenabler
                0x0000000000000000        0xc /home/ming/tf-a-stm32mp-2.2.r2-r0/tf-a-stm32mp-2.2.r2/../build/trusted/bl32/gic_common.o
 .text.gicd_read_ispendr
                0x0000000000000000        0xc /home/ming/tf-a-stm32mp-2.2.r2-r0/tf-a-stm32mp-2.2.r2/../build/trusted/bl32/gic_common.o
 .text.gicd_read_icpendr
                0x0000000000000000        0xc /home/ming/tf-a-stm32mp-2.2.r2-r0/tf-a-stm32mp-2.2.r2/../build/trusted/bl32/gic_common.o
 .text.gicd_read_isactiver
                0x0000000000000000        0xc /home/ming/tf-a-stm32mp-2.2.r2-r0/tf-a-stm32mp-2.2.r2/../build/trusted/bl32/gic_common.o
 .text.gicd_read_icactiver
                0x0000000000000000        0xc /home/ming/tf-a-stm32mp-2.2.r2-r0/tf-a-stm32mp-2.2.r2/../build/trusted/bl32/gic_common.o
 .text.gicd_read_ipriorityr
                0x0000000000000000        0xc /home/ming/tf-a-stm32mp-2.2.r2-r0/tf-a-stm32mp-2.2.r2/../build/trusted/bl32/gic_common.o
 .text.gicd_read_nsacr
                0x0000000000000000        0xc /home/ming/tf-a-stm32mp-2.2.r2-r0/tf-a-stm32mp-2.2.r2/../build/trusted/bl32/gic_common.o
 .text.gicd_write_ispendr
                0x0000000000000000        0xc /home/ming/tf-a-stm32mp-2.2.r2-r0/tf-a-stm32mp-2.2.r2/../build/trusted/bl32/gic_common.o
 .text.gicd_write_icpendr
                0x0000000000000000        0xc /home/ming/tf-a-stm32mp-2.2.r2-r0/tf-a-stm32mp-2.2.r2/../build/trusted/bl32/gic_common.o
 .text.gicd_write_isactiver
                0x0000000000000000        0xc /home/ming/tf-a-stm32mp-2.2.r2-r0/tf-a-stm32mp-2.2.r2/../build/trusted/bl32/gic_common.o
 .text.gicd_write_icactiver
                0x0000000000000000        0xc /home/ming/tf-a-stm32mp-2.2.r2-r0/tf-a-stm32mp-2.2.r2/../build/trusted/bl32/gic_common.o
 .text.gicd_write_nsacr
                0x0000000000000000        0xc /home/ming/tf-a-stm32mp-2.2.r2-r0/tf-a-stm32mp-2.2.r2/../build/trusted/bl32/gic_common.o
 .text.gicd_get_igroupr
                0x0000000000000000       0x14 /home/ming/tf-a-stm32mp-2.2.r2-r0/tf-a-stm32mp-2.2.r2/../build/trusted/bl32/gic_common.o
 .text.gicd_set_ispendr
                0x0000000000000000        0xc /home/ming/tf-a-stm32mp-2.2.r2-r0/tf-a-stm32mp-2.2.r2/../build/trusted/bl32/gic_common.o
 .text.gicd_set_icpendr
                0x0000000000000000        0xc /home/ming/tf-a-stm32mp-2.2.r2-r0/tf-a-stm32mp-2.2.r2/../build/trusted/bl32/gic_common.o
 .text.gicd_get_isactiver
                0x0000000000000000       0x14 /home/ming/tf-a-stm32mp-2.2.r2-r0/tf-a-stm32mp-2.2.r2/../build/trusted/bl32/gic_common.o
 .text.gicd_set_isactiver
                0x0000000000000000        0xc /home/ming/tf-a-stm32mp-2.2.r2-r0/tf-a-stm32mp-2.2.r2/../build/trusted/bl32/gic_common.o
 .text.gicd_set_icactiver
                0x0000000000000000        0xc /home/ming/tf-a-stm32mp-2.2.r2-r0/tf-a-stm32mp-2.2.r2/../build/trusted/bl32/gic_common.o
 .text          0x0000000000000000        0x0 /home/ming/tf-a-stm32mp-2.2.r2-r0/tf-a-stm32mp-2.2.r2/../build/trusted/bl32/gicv2_helpers.o
 .data          0x0000000000000000        0x0 /home/ming/tf-a-stm32mp-2.2.r2-r0/tf-a-stm32mp-2.2.r2/../build/trusted/bl32/gicv2_helpers.o
 .bss           0x0000000000000000        0x0 /home/ming/tf-a-stm32mp-2.2.r2-r0/tf-a-stm32mp-2.2.r2/../build/trusted/bl32/gicv2_helpers.o
 .text.gicd_read_itargetsr
                0x0000000000000000        0xc /home/ming/tf-a-stm32mp-2.2.r2-r0/tf-a-stm32mp-2.2.r2/../build/trusted/bl32/gicv2_helpers.o
 .text.gicd_read_cpendsgir
                0x0000000000000000        0xc /home/ming/tf-a-stm32mp-2.2.r2-r0/tf-a-stm32mp-2.2.r2/../build/trusted/bl32/gicv2_helpers.o
 .text.gicd_read_spendsgir
                0x0000000000000000        0xc /home/ming/tf-a-stm32mp-2.2.r2-r0/tf-a-stm32mp-2.2.r2/../build/trusted/bl32/gicv2_helpers.o
 .text.gicd_write_itargetsr
                0x0000000000000000        0xc /home/ming/tf-a-stm32mp-2.2.r2-r0/tf-a-stm32mp-2.2.r2/../build/trusted/bl32/gicv2_helpers.o
 .text.gicd_write_cpendsgir
                0x0000000000000000        0xc /home/ming/tf-a-stm32mp-2.2.r2-r0/tf-a-stm32mp-2.2.r2/../build/trusted/bl32/gicv2_helpers.o
 .text.gicd_write_spendsgir
                0x0000000000000000        0xc /home/ming/tf-a-stm32mp-2.2.r2-r0/tf-a-stm32mp-2.2.r2/../build/trusted/bl32/gicv2_helpers.o
 .text          0x0000000000000000        0x0 /home/ming/tf-a-stm32mp-2.2.r2-r0/tf-a-stm32mp-2.2.r2/../build/trusted/bl32/gicv2_main.o
 .data          0x0000000000000000        0x0 /home/ming/tf-a-stm32mp-2.2.r2-r0/tf-a-stm32mp-2.2.r2/../build/trusted/bl32/gicv2_main.o
 .bss           0x0000000000000000        0x0 /home/ming/tf-a-stm32mp-2.2.r2-r0/tf-a-stm32mp-2.2.r2/../build/trusted/bl32/gicv2_main.o
 .text.gicv2_cpuif_disable
                0x0000000000000000       0x30 /home/ming/tf-a-stm32mp-2.2.r2-r0/tf-a-stm32mp-2.2.r2/../build/trusted/bl32/gicv2_main.o
 .text.gicv2_is_fiq_enabled
                0x0000000000000000       0x28 /home/ming/tf-a-stm32mp-2.2.r2-r0/tf-a-stm32mp-2.2.r2/../build/trusted/bl32/gicv2_main.o
 .text.gicv2_get_pending_interrupt_type
                0x0000000000000000       0x28 /home/ming/tf-a-stm32mp-2.2.r2-r0/tf-a-stm32mp-2.2.r2/../build/trusted/bl32/gicv2_main.o
 .text.gicv2_get_interrupt_group
                0x0000000000000000       0x30 /home/ming/tf-a-stm32mp-2.2.r2-r0/tf-a-stm32mp-2.2.r2/../build/trusted/bl32/gicv2_main.o
 .text.gicv2_get_running_priority
                0x0000000000000000       0x28 /home/ming/tf-a-stm32mp-2.2.r2-r0/tf-a-stm32mp-2.2.r2/../build/trusted/bl32/gicv2_main.o
 .text.gicv2_get_interrupt_active
                0x0000000000000000       0x3c /home/ming/tf-a-stm32mp-2.2.r2-r0/tf-a-stm32mp-2.2.r2/../build/trusted/bl32/gicv2_main.o
 .text.gicv2_clear_interrupt_pending
                0x0000000000000000       0x3c /home/ming/tf-a-stm32mp-2.2.r2-r0/tf-a-stm32mp-2.2.r2/../build/trusted/bl32/gicv2_main.o
 .text.gicv2_set_interrupt_pending
                0x0000000000000000       0x40 /home/ming/tf-a-stm32mp-2.2.r2-r0/tf-a-stm32mp-2.2.r2/../build/trusted/bl32/gicv2_main.o
 .text          0x0000000000000000        0x0 /home/ming/tf-a-stm32mp-2.2.r2-r0/tf-a-stm32mp-2.2.r2/../build/trusted/bl32/plat_gicv2.o
 .data          0x0000000000000000        0x0 /home/ming/tf-a-stm32mp-2.2.r2-r0/tf-a-stm32mp-2.2.r2/../build/trusted/bl32/plat_gicv2.o
 .bss           0x0000000000000000        0x0 /home/ming/tf-a-stm32mp-2.2.r2-r0/tf-a-stm32mp-2.2.r2/../build/trusted/bl32/plat_gicv2.o
 .text.plat_ic_get_pending_interrupt_type
                0x0000000000000000       0x20 /home/ming/tf-a-stm32mp-2.2.r2-r0/tf-a-stm32mp-2.2.r2/../build/trusted/bl32/plat_gicv2.o
 .text.plat_ic_get_interrupt_type
                0x0000000000000000       0x10 /home/ming/tf-a-stm32mp-2.2.r2-r0/tf-a-stm32mp-2.2.r2/../build/trusted/bl32/plat_gicv2.o
 .text.plat_interrupt_type_to_line
                0x0000000000000000       0x2c /home/ming/tf-a-stm32mp-2.2.r2-r0/tf-a-stm32mp-2.2.r2/../build/trusted/bl32/plat_gicv2.o
 .text.plat_ic_get_running_priority
                0x0000000000000000        0x4 /home/ming/tf-a-stm32mp-2.2.r2-r0/tf-a-stm32mp-2.2.r2/../build/trusted/bl32/plat_gicv2.o
 .text.plat_ic_is_spi
                0x0000000000000000        0xe /home/ming/tf-a-stm32mp-2.2.r2-r0/tf-a-stm32mp-2.2.r2/../build/trusted/bl32/plat_gicv2.o
 .text.plat_ic_is_ppi
                0x0000000000000000        0xc /home/ming/tf-a-stm32mp-2.2.r2-r0/tf-a-stm32mp-2.2.r2/../build/trusted/bl32/plat_gicv2.o
 .text.plat_ic_is_sgi
                0x0000000000000000        0xa /home/ming/tf-a-stm32mp-2.2.r2-r0/tf-a-stm32mp-2.2.r2/../build/trusted/bl32/plat_gicv2.o
 .text.plat_ic_get_interrupt_active
                0x0000000000000000        0x4 /home/ming/tf-a-stm32mp-2.2.r2-r0/tf-a-stm32mp-2.2.r2/../build/trusted/bl32/plat_gicv2.o
 .text.plat_ic_enable_interrupt
                0x0000000000000000        0x4 /home/ming/tf-a-stm32mp-2.2.r2-r0/tf-a-stm32mp-2.2.r2/../build/trusted/bl32/plat_gicv2.o
 .text.plat_ic_has_interrupt_type
                0x0000000000000000        0xe /home/ming/tf-a-stm32mp-2.2.r2-r0/tf-a-stm32mp-2.2.r2/../build/trusted/bl32/plat_gicv2.o
 .text.plat_ic_set_interrupt_type
                0x0000000000000000       0x20 /home/ming/tf-a-stm32mp-2.2.r2-r0/tf-a-stm32mp-2.2.r2/../build/trusted/bl32/plat_gicv2.o
 .text.plat_ic_raise_el3_sgi
                0x0000000000000000       0x10 /home/ming/tf-a-stm32mp-2.2.r2-r0/tf-a-stm32mp-2.2.r2/../build/trusted/bl32/plat_gicv2.o
 .text.plat_ic_set_spi_routing
                0x0000000000000000       0x38 /home/ming/tf-a-stm32mp-2.2.r2-r0/tf-a-stm32mp-2.2.r2/../build/trusted/bl32/plat_gicv2.o
 .text.plat_ic_set_interrupt_pending
                0x0000000000000000        0x4 /home/ming/tf-a-stm32mp-2.2.r2-r0/tf-a-stm32mp-2.2.r2/../build/trusted/bl32/plat_gicv2.o
 .text.plat_ic_clear_interrupt_pending
                0x0000000000000000        0x4 /home/ming/tf-a-stm32mp-2.2.r2-r0/tf-a-stm32mp-2.2.r2/../build/trusted/bl32/plat_gicv2.o
 .text.plat_ic_get_interrupt_id
                0x0000000000000000       0x12 /home/ming/tf-a-stm32mp-2.2.r2-r0/tf-a-stm32mp-2.2.r2/../build/trusted/bl32/plat_gicv2.o
 .rodata.plat_interrupt_type_to_line.str1.1
                0x0000000000000000       0x19 /home/ming/tf-a-stm32mp-2.2.r2-r0/tf-a-stm32mp-2.2.r2/../build/trusted/bl32/plat_gicv2.o
 .text          0x0000000000000000        0x0 /home/ming/tf-a-stm32mp-2.2.r2-r0/tf-a-stm32mp-2.2.r2/../build/trusted/bl32/stm32_gic.o
 .data          0x0000000000000000        0x0 /home/ming/tf-a-stm32mp-2.2.r2-r0/tf-a-stm32mp-2.2.r2/../build/trusted/bl32/stm32_gic.o
 .bss           0x0000000000000000        0x0 /home/ming/tf-a-stm32mp-2.2.r2-r0/tf-a-stm32mp-2.2.r2/../build/trusted/bl32/stm32_gic.o
 .text          0x0000000000000000        0x0 /home/ming/tf-a-stm32mp-2.2.r2-r0/tf-a-stm32mp-2.2.r2/../build/trusted/bl32/plat_psci_common.o
 .data          0x0000000000000000        0x0 /home/ming/tf-a-stm32mp-2.2.r2-r0/tf-a-stm32mp-2.2.r2/../build/trusted/bl32/plat_psci_common.o
 .bss           0x0000000000000000        0x0 /home/ming/tf-a-stm32mp-2.2.r2-r0/tf-a-stm32mp-2.2.r2/../build/trusted/bl32/plat_psci_common.o
 .text          0x0000000000000000        0x0 /home/ming/tf-a-stm32mp-2.2.r2-r0/tf-a-stm32mp-2.2.r2/../build/trusted/bl32/bsec_svc.o
 .data          0x0000000000000000        0x0 /home/ming/tf-a-stm32mp-2.2.r2-r0/tf-a-stm32mp-2.2.r2/../build/trusted/bl32/bsec_svc.o
 .bss           0x0000000000000000        0x0 /home/ming/tf-a-stm32mp-2.2.r2-r0/tf-a-stm32mp-2.2.r2/../build/trusted/bl32/bsec_svc.o
 .text          0x0000000000000000        0x0 /home/ming/tf-a-stm32mp-2.2.r2-r0/tf-a-stm32mp-2.2.r2/../build/trusted/bl32/low_power_svc.o
 .data          0x0000000000000000        0x0 /home/ming/tf-a-stm32mp-2.2.r2-r0/tf-a-stm32mp-2.2.r2/../build/trusted/bl32/low_power_svc.o
 .bss           0x0000000000000000        0x0 /home/ming/tf-a-stm32mp-2.2.r2-r0/tf-a-stm32mp-2.2.r2/../build/trusted/bl32/low_power_svc.o
 .text          0x0000000000000000        0x0 /home/ming/tf-a-stm32mp-2.2.r2-r0/tf-a-stm32mp-2.2.r2/../build/trusted/bl32/pwr_svc.o
 .data          0x0000000000000000        0x0 /home/ming/tf-a-stm32mp-2.2.r2-r0/tf-a-stm32mp-2.2.r2/../build/trusted/bl32/pwr_svc.o
 .bss           0x0000000000000000        0x0 /home/ming/tf-a-stm32mp-2.2.r2-r0/tf-a-stm32mp-2.2.r2/../build/trusted/bl32/pwr_svc.o
 .text          0x0000000000000000        0x0 /home/ming/tf-a-stm32mp-2.2.r2-r0/tf-a-stm32mp-2.2.r2/../build/trusted/bl32/rcc_svc.o
 .data          0x0000000000000000        0x0 /home/ming/tf-a-stm32mp-2.2.r2-r0/tf-a-stm32mp-2.2.r2/../build/trusted/bl32/rcc_svc.o
 .bss           0x0000000000000000        0x0 /home/ming/tf-a-stm32mp-2.2.r2-r0/tf-a-stm32mp-2.2.r2/../build/trusted/bl32/rcc_svc.o
 .text          0x0000000000000000        0x0 /home/ming/tf-a-stm32mp-2.2.r2-r0/tf-a-stm32mp-2.2.r2/../build/trusted/bl32/stm32mp1_svc_setup.o
 .data          0x0000000000000000        0x0 /home/ming/tf-a-stm32mp-2.2.r2-r0/tf-a-stm32mp-2.2.r2/../build/trusted/bl32/stm32mp1_svc_setup.o
 .bss           0x0000000000000000        0x0 /home/ming/tf-a-stm32mp-2.2.r2-r0/tf-a-stm32mp-2.2.r2/../build/trusted/bl32/stm32mp1_svc_setup.o
 .text          0x0000000000000000        0x0 /home/ming/tf-a-stm32mp-2.2.r2-r0/tf-a-stm32mp-2.2.r2/../build/trusted/bl32/base.o
 .data          0x0000000000000000        0x0 /home/ming/tf-a-stm32mp-2.2.r2-r0/tf-a-stm32mp-2.2.r2/../build/trusted/bl32/base.o
 .bss           0x0000000000000000        0x0 /home/ming/tf-a-stm32mp-2.2.r2-r0/tf-a-stm32mp-2.2.r2/../build/trusted/bl32/base.o
 .text          0x0000000000000000        0x0 /home/ming/tf-a-stm32mp-2.2.r2-r0/tf-a-stm32mp-2.2.r2/../build/trusted/bl32/clock.o
 .data          0x0000000000000000        0x0 /home/ming/tf-a-stm32mp-2.2.r2-r0/tf-a-stm32mp-2.2.r2/../build/trusted/bl32/clock.o
 .bss           0x0000000000000000        0x0 /home/ming/tf-a-stm32mp-2.2.r2-r0/tf-a-stm32mp-2.2.r2/../build/trusted/bl32/clock.o
 .text.plat_scmi_clock_count
                0x0000000000000000        0x4 /home/ming/tf-a-stm32mp-2.2.r2-r0/tf-a-stm32mp-2.2.r2/../build/trusted/bl32/clock.o
 .text.plat_scmi_clock_get_name
                0x0000000000000000        0x4 /home/ming/tf-a-stm32mp-2.2.r2-r0/tf-a-stm32mp-2.2.r2/../build/trusted/bl32/clock.o
 .text.plat_scmi_clock_rates_array
                0x0000000000000000        0x6 /home/ming/tf-a-stm32mp-2.2.r2-r0/tf-a-stm32mp-2.2.r2/../build/trusted/bl32/clock.o
 .text.plat_scmi_clock_rates_by_step
                0x0000000000000000        0x6 /home/ming/tf-a-stm32mp-2.2.r2-r0/tf-a-stm32mp-2.2.r2/../build/trusted/bl32/clock.o
 .text.plat_scmi_clock_get_rate
                0x0000000000000000        0x4 /home/ming/tf-a-stm32mp-2.2.r2-r0/tf-a-stm32mp-2.2.r2/../build/trusted/bl32/clock.o
 .text.plat_scmi_clock_set_rate
                0x0000000000000000        0x6 /home/ming/tf-a-stm32mp-2.2.r2-r0/tf-a-stm32mp-2.2.r2/../build/trusted/bl32/clock.o
 .text.plat_scmi_clock_get_state
                0x0000000000000000        0x6 /home/ming/tf-a-stm32mp-2.2.r2-r0/tf-a-stm32mp-2.2.r2/../build/trusted/bl32/clock.o
 .text.plat_scmi_clock_set_state
                0x0000000000000000        0x6 /home/ming/tf-a-stm32mp-2.2.r2-r0/tf-a-stm32mp-2.2.r2/../build/trusted/bl32/clock.o
 .text          0x0000000000000000        0x0 /home/ming/tf-a-stm32mp-2.2.r2-r0/tf-a-stm32mp-2.2.r2/../build/trusted/bl32/entry.o
 .data          0x0000000000000000        0x0 /home/ming/tf-a-stm32mp-2.2.r2-r0/tf-a-stm32mp-2.2.r2/../build/trusted/bl32/entry.o
 .bss           0x0000000000000000        0x0 /home/ming/tf-a-stm32mp-2.2.r2-r0/tf-a-stm32mp-2.2.r2/../build/trusted/bl32/entry.o
 .text          0x0000000000000000        0x0 /home/ming/tf-a-stm32mp-2.2.r2-r0/tf-a-stm32mp-2.2.r2/../build/trusted/bl32/reset_domain.o
 .data          0x0000000000000000        0x0 /home/ming/tf-a-stm32mp-2.2.r2-r0/tf-a-stm32mp-2.2.r2/../build/trusted/bl32/reset_domain.o
 .bss           0x0000000000000000        0x0 /home/ming/tf-a-stm32mp-2.2.r2-r0/tf-a-stm32mp-2.2.r2/../build/trusted/bl32/reset_domain.o
 .text.plat_scmi_rd_count
                0x0000000000000000        0x4 /home/ming/tf-a-stm32mp-2.2.r2-r0/tf-a-stm32mp-2.2.r2/../build/trusted/bl32/reset_domain.o
 .text.plat_scmi_rd_get_name
                0x0000000000000000        0x4 /home/ming/tf-a-stm32mp-2.2.r2-r0/tf-a-stm32mp-2.2.r2/../build/trusted/bl32/reset_domain.o
 .text.plat_scmi_rd_autonomous
                0x0000000000000000        0x6 /home/ming/tf-a-stm32mp-2.2.r2-r0/tf-a-stm32mp-2.2.r2/../build/trusted/bl32/reset_domain.o
 .text.plat_scmi_rd_set_state
                0x0000000000000000        0x6 /home/ming/tf-a-stm32mp-2.2.r2-r0/tf-a-stm32mp-2.2.r2/../build/trusted/bl32/reset_domain.o
 .text          0x0000000000000000        0x0 /home/ming/tf-a-stm32mp-2.2.r2-r0/tf-a-stm32mp-2.2.r2/../build/trusted/bl32/smt.o
 .data          0x0000000000000000        0x0 /home/ming/tf-a-stm32mp-2.2.r2-r0/tf-a-stm32mp-2.2.r2/../build/trusted/bl32/smt.o
 .bss           0x0000000000000000        0x0 /home/ming/tf-a-stm32mp-2.2.r2-r0/tf-a-stm32mp-2.2.r2/../build/trusted/bl32/smt.o
 .text.scmi_smt_interrupt_entry
                0x0000000000000000       0x20 /home/ming/tf-a-stm32mp-2.2.r2-r0/tf-a-stm32mp-2.2.r2/../build/trusted/bl32/smt.o
 .bss.interrupt_payload
                0x0000000000000000       0xb8 /home/ming/tf-a-stm32mp-2.2.r2-r0/tf-a-stm32mp-2.2.r2/../build/trusted/bl32/smt.o
 .text          0x0000000000000000        0x0 /home/ming/tf-a-stm32mp-2.2.r2-r0/tf-a-stm32mp-2.2.r2/../build/trusted/bl32/stm32mp1_scmi.o
 .data          0x0000000000000000        0x0 /home/ming/tf-a-stm32mp-2.2.r2-r0/tf-a-stm32mp-2.2.r2/../build/trusted/bl32/stm32mp1_scmi.o
 .bss           0x0000000000000000        0x0 /home/ming/tf-a-stm32mp-2.2.r2-r0/tf-a-stm32mp-2.2.r2/../build/trusted/bl32/stm32mp1_scmi.o
 .text          0x0000000000000000        0x0 /home/ming/tf-a-stm32mp-2.2.r2-r0/tf-a-stm32mp-2.2.r2/../build/trusted/bl32/bl_common.o
 .data          0x0000000000000000        0x0 /home/ming/tf-a-stm32mp-2.2.r2-r0/tf-a-stm32mp-2.2.r2/../build/trusted/bl32/bl_common.o
 .bss           0x0000000000000000        0x0 /home/ming/tf-a-stm32mp-2.2.r2-r0/tf-a-stm32mp-2.2.r2/../build/trusted/bl32/bl_common.o
 .text.load_auth_image_internal
                0x0000000000000000      0x138 /home/ming/tf-a-stm32mp-2.2.r2-r0/tf-a-stm32mp-2.2.r2/../build/trusted/bl32/bl_common.o
 .text.page_align
                0x0000000000000000       0x18 /home/ming/tf-a-stm32mp-2.2.r2-r0/tf-a-stm32mp-2.2.r2/../build/trusted/bl32/bl_common.o
 .text.load_auth_image
                0x0000000000000000       0x22 /home/ming/tf-a-stm32mp-2.2.r2-r0/tf-a-stm32mp-2.2.r2/../build/trusted/bl32/bl_common.o
 .text.print_entry_point_info
                0x0000000000000000       0x20 /home/ming/tf-a-stm32mp-2.2.r2-r0/tf-a-stm32mp-2.2.r2/../build/trusted/bl32/bl_common.o
 .rodata.load_auth_image_internal.str1.1
                0x0000000000000000      0x12d /home/ming/tf-a-stm32mp-2.2.r2-r0/tf-a-stm32mp-2.2.r2/../build/trusted/bl32/bl_common.o
 .rodata.print_entry_point_info.str1.1
                0x0000000000000000       0x2c /home/ming/tf-a-stm32mp-2.2.r2-r0/tf-a-stm32mp-2.2.r2/../build/trusted/bl32/bl_common.o
 .debug_info    0x0000000000000000      0xa16 /home/ming/tf-a-stm32mp-2.2.r2-r0/tf-a-stm32mp-2.2.r2/../build/trusted/bl32/bl_common.o
 .debug_abbrev  0x0000000000000000      0x25d /home/ming/tf-a-stm32mp-2.2.r2-r0/tf-a-stm32mp-2.2.r2/../build/trusted/bl32/bl_common.o
 .debug_loc     0x0000000000000000      0x323 /home/ming/tf-a-stm32mp-2.2.r2-r0/tf-a-stm32mp-2.2.r2/../build/trusted/bl32/bl_common.o
 .debug_aranges
                0x0000000000000000       0x38 /home/ming/tf-a-stm32mp-2.2.r2-r0/tf-a-stm32mp-2.2.r2/../build/trusted/bl32/bl_common.o
 .debug_ranges  0x0000000000000000       0x60 /home/ming/tf-a-stm32mp-2.2.r2-r0/tf-a-stm32mp-2.2.r2/../build/trusted/bl32/bl_common.o
 .debug_line    0x0000000000000000      0x2a9 /home/ming/tf-a-stm32mp-2.2.r2-r0/tf-a-stm32mp-2.2.r2/../build/trusted/bl32/bl_common.o
 .debug_str     0x0000000000000000      0x80e /home/ming/tf-a-stm32mp-2.2.r2-r0/tf-a-stm32mp-2.2.r2/../build/trusted/bl32/bl_common.o
 .comment       0x0000000000000000       0x25 /home/ming/tf-a-stm32mp-2.2.r2-r0/tf-a-stm32mp-2.2.r2/../build/trusted/bl32/bl_common.o
 .note.GNU-stack
                0x0000000000000000        0x0 /home/ming/tf-a-stm32mp-2.2.r2-r0/tf-a-stm32mp-2.2.r2/../build/trusted/bl32/bl_common.o
 .debug_frame   0x0000000000000000       0x80 /home/ming/tf-a-stm32mp-2.2.r2-r0/tf-a-stm32mp-2.2.r2/../build/trusted/bl32/bl_common.o
 .ARM.attributes
                0x0000000000000000       0x39 /home/ming/tf-a-stm32mp-2.2.r2-r0/tf-a-stm32mp-2.2.r2/../build/trusted/bl32/bl_common.o
 .text          0x0000000000000000        0x0 /home/ming/tf-a-stm32mp-2.2.r2-r0/tf-a-stm32mp-2.2.r2/../build/trusted/bl32/tf_log.o
 .data          0x0000000000000000        0x0 /home/ming/tf-a-stm32mp-2.2.r2-r0/tf-a-stm32mp-2.2.r2/../build/trusted/bl32/tf_log.o
 .bss           0x0000000000000000        0x0 /home/ming/tf-a-stm32mp-2.2.r2-r0/tf-a-stm32mp-2.2.r2/../build/trusted/bl32/tf_log.o
 .text.tf_log_set_max_level
                0x0000000000000000       0x30 /home/ming/tf-a-stm32mp-2.2.r2-r0/tf-a-stm32mp-2.2.r2/../build/trusted/bl32/tf_log.o
 .text          0x0000000000000000        0x0 /home/ming/tf-a-stm32mp-2.2.r2-r0/tf-a-stm32mp-2.2.r2/../build/trusted/bl32/multi_console.o
 .data          0x0000000000000000        0x0 /home/ming/tf-a-stm32mp-2.2.r2-r0/tf-a-stm32mp-2.2.r2/../build/trusted/bl32/multi_console.o
 .bss           0x0000000000000000        0x0 /home/ming/tf-a-stm32mp-2.2.r2-r0/tf-a-stm32mp-2.2.r2/../build/trusted/bl32/multi_console.o
 .text.console_unregister
                0x0000000000000000       0x2c /home/ming/tf-a-stm32mp-2.2.r2-r0/tf-a-stm32mp-2.2.r2/../build/trusted/bl32/multi_console.o
 .text.console_getc
                0x0000000000000000       0x3c /home/ming/tf-a-stm32mp-2.2.r2-r0/tf-a-stm32mp-2.2.r2/../build/trusted/bl32/multi_console.o
 .text          0x0000000000000000        0x0 /home/ming/tf-a-stm32mp-2.2.r2-r0/tf-a-stm32mp-2.2.r2/../build/trusted/bl32/plat_bl_common.o
 .data          0x0000000000000000        0x0 /home/ming/tf-a-stm32mp-2.2.r2-r0/tf-a-stm32mp-2.2.r2/../build/trusted/bl32/plat_bl_common.o
 .bss           0x0000000000000000        0x0 /home/ming/tf-a-stm32mp-2.2.r2-r0/tf-a-stm32mp-2.2.r2/../build/trusted/bl32/plat_bl_common.o
 .text.bl2_el3_plat_prepare_exit
                0x0000000000000000        0x2 /home/ming/tf-a-stm32mp-2.2.r2-r0/tf-a-stm32mp-2.2.r2/../build/trusted/bl32/plat_bl_common.o
 .text.plat_error_handler
                0x0000000000000000        0x4 /home/ming/tf-a-stm32mp-2.2.r2-r0/tf-a-stm32mp-2.2.r2/../build/trusted/bl32/plat_bl_common.o
 .text.bl2_plat_preload_setup
                0x0000000000000000        0x2 /home/ming/tf-a-stm32mp-2.2.r2-r0/tf-a-stm32mp-2.2.r2/../build/trusted/bl32/plat_bl_common.o
 .text.bl2_plat_handle_pre_image_load
                0x0000000000000000        0x4 /home/ming/tf-a-stm32mp-2.2.r2-r0/tf-a-stm32mp-2.2.r2/../build/trusted/bl32/plat_bl_common.o
 .text.bl2_plat_handle_post_image_load
                0x0000000000000000        0x4 /home/ming/tf-a-stm32mp-2.2.r2-r0/tf-a-stm32mp-2.2.r2/../build/trusted/bl32/plat_bl_common.o
 .text.plat_try_next_boot_source
                0x0000000000000000        0x4 /home/ming/tf-a-stm32mp-2.2.r2-r0/tf-a-stm32mp-2.2.r2/../build/trusted/bl32/plat_bl_common.o
 .text.setup_page_tables
                0x0000000000000000       0x16 /home/ming/tf-a-stm32mp-2.2.r2-r0/tf-a-stm32mp-2.2.r2/../build/trusted/bl32/plat_bl_common.o
 .debug_info    0x0000000000000000      0x31a /home/ming/tf-a-stm32mp-2.2.r2-r0/tf-a-stm32mp-2.2.r2/../build/trusted/bl32/plat_bl_common.o
 .debug_abbrev  0x0000000000000000      0x1d4 /home/ming/tf-a-stm32mp-2.2.r2-r0/tf-a-stm32mp-2.2.r2/../build/trusted/bl32/plat_bl_common.o
 .debug_loc     0x0000000000000000       0x6e /home/ming/tf-a-stm32mp-2.2.r2-r0/tf-a-stm32mp-2.2.r2/../build/trusted/bl32/plat_bl_common.o
 .debug_aranges
                0x0000000000000000       0x38 /home/ming/tf-a-stm32mp-2.2.r2-r0/tf-a-stm32mp-2.2.r2/../build/trusted/bl32/plat_bl_common.o
 .debug_ranges  0x0000000000000000       0x28 /home/ming/tf-a-stm32mp-2.2.r2-r0/tf-a-stm32mp-2.2.r2/../build/trusted/bl32/plat_bl_common.o
 .debug_line    0x0000000000000000      0x16f /home/ming/tf-a-stm32mp-2.2.r2-r0/tf-a-stm32mp-2.2.r2/../build/trusted/bl32/plat_bl_common.o
 .debug_str     0x0000000000000000      0x369 /home/ming/tf-a-stm32mp-2.2.r2-r0/tf-a-stm32mp-2.2.r2/../build/trusted/bl32/plat_bl_common.o
 .comment       0x0000000000000000       0x25 /home/ming/tf-a-stm32mp-2.2.r2-r0/tf-a-stm32mp-2.2.r2/../build/trusted/bl32/plat_bl_common.o
 .note.GNU-stack
                0x0000000000000000        0x0 /home/ming/tf-a-stm32mp-2.2.r2-r0/tf-a-stm32mp-2.2.r2/../build/trusted/bl32/plat_bl_common.o
 .debug_frame   0x0000000000000000       0x8c /home/ming/tf-a-stm32mp-2.2.r2-r0/tf-a-stm32mp-2.2.r2/../build/trusted/bl32/plat_bl_common.o
 .ARM.attributes
                0x0000000000000000       0x39 /home/ming/tf-a-stm32mp-2.2.r2-r0/tf-a-stm32mp-2.2.r2/../build/trusted/bl32/plat_bl_common.o
 .text          0x0000000000000000        0x0 /home/ming/tf-a-stm32mp-2.2.r2-r0/tf-a-stm32mp-2.2.r2/../build/trusted/bl32/plat_log_common.o
 .data          0x0000000000000000        0x0 /home/ming/tf-a-stm32mp-2.2.r2-r0/tf-a-stm32mp-2.2.r2/../build/trusted/bl32/plat_log_common.o
 .bss           0x0000000000000000        0x0 /home/ming/tf-a-stm32mp-2.2.r2-r0/tf-a-stm32mp-2.2.r2/../build/trusted/bl32/plat_log_common.o
 .text          0x0000000000000000        0x0 /home/ming/tf-a-stm32mp-2.2.r2-r0/tf-a-stm32mp-2.2.r2/../build/trusted/bl32/plat_common.o
 .data          0x0000000000000000        0x0 /home/ming/tf-a-stm32mp-2.2.r2-r0/tf-a-stm32mp-2.2.r2/../build/trusted/bl32/plat_common.o
 .bss           0x0000000000000000        0x0 /home/ming/tf-a-stm32mp-2.2.r2-r0/tf-a-stm32mp-2.2.r2/../build/trusted/bl32/plat_common.o
 .text          0x0000000000000000        0x0 /home/ming/tf-a-stm32mp-2.2.r2-r0/tf-a-stm32mp-2.2.r2/../build/trusted/bl32/popcountdi2.o
 .data          0x0000000000000000        0x0 /home/ming/tf-a-stm32mp-2.2.r2-r0/tf-a-stm32mp-2.2.r2/../build/trusted/bl32/popcountdi2.o
 .bss           0x0000000000000000        0x0 /home/ming/tf-a-stm32mp-2.2.r2-r0/tf-a-stm32mp-2.2.r2/../build/trusted/bl32/popcountdi2.o
 .text.__popcountdi2
                0x0000000000000000       0x58 /home/ming/tf-a-stm32mp-2.2.r2-r0/tf-a-stm32mp-2.2.r2/../build/trusted/bl32/popcountdi2.o
 .debug_info    0x0000000000000000      0x100 /home/ming/tf-a-stm32mp-2.2.r2-r0/tf-a-stm32mp-2.2.r2/../build/trusted/bl32/popcountdi2.o
 .debug_abbrev  0x0000000000000000       0x6f /home/ming/tf-a-stm32mp-2.2.r2-r0/tf-a-stm32mp-2.2.r2/../build/trusted/bl32/popcountdi2.o
 .debug_loc     0x0000000000000000       0x83 /home/ming/tf-a-stm32mp-2.2.r2-r0/tf-a-stm32mp-2.2.r2/../build/trusted/bl32/popcountdi2.o
 .debug_aranges
                0x0000000000000000       0x20 /home/ming/tf-a-stm32mp-2.2.r2-r0/tf-a-stm32mp-2.2.r2/../build/trusted/bl32/popcountdi2.o
 .debug_ranges  0x0000000000000000       0x10 /home/ming/tf-a-stm32mp-2.2.r2-r0/tf-a-stm32mp-2.2.r2/../build/trusted/bl32/popcountdi2.o
 .debug_line    0x0000000000000000       0x6c /home/ming/tf-a-stm32mp-2.2.r2-r0/tf-a-stm32mp-2.2.r2/../build/trusted/bl32/popcountdi2.o
 .debug_str     0x0000000000000000      0x211 /home/ming/tf-a-stm32mp-2.2.r2-r0/tf-a-stm32mp-2.2.r2/../build/trusted/bl32/popcountdi2.o
 .comment       0x0000000000000000       0x25 /home/ming/tf-a-stm32mp-2.2.r2-r0/tf-a-stm32mp-2.2.r2/../build/trusted/bl32/popcountdi2.o
 .note.GNU-stack
                0x0000000000000000        0x0 /home/ming/tf-a-stm32mp-2.2.r2-r0/tf-a-stm32mp-2.2.r2/../build/trusted/bl32/popcountdi2.o
 .debug_frame   0x0000000000000000       0x30 /home/ming/tf-a-stm32mp-2.2.r2-r0/tf-a-stm32mp-2.2.r2/../build/trusted/bl32/popcountdi2.o
 .ARM.attributes
                0x0000000000000000       0x39 /home/ming/tf-a-stm32mp-2.2.r2-r0/tf-a-stm32mp-2.2.r2/../build/trusted/bl32/popcountdi2.o
 .text          0x0000000000000000        0x0 /home/ming/tf-a-stm32mp-2.2.r2-r0/tf-a-stm32mp-2.2.r2/../build/trusted/bl32/popcountsi2.o
 .data          0x0000000000000000        0x0 /home/ming/tf-a-stm32mp-2.2.r2-r0/tf-a-stm32mp-2.2.r2/../build/trusted/bl32/popcountsi2.o
 .bss           0x0000000000000000        0x0 /home/ming/tf-a-stm32mp-2.2.r2-r0/tf-a-stm32mp-2.2.r2/../build/trusted/bl32/popcountsi2.o
 .text.__popcountsi2
                0x0000000000000000       0x2a /home/ming/tf-a-stm32mp-2.2.r2-r0/tf-a-stm32mp-2.2.r2/../build/trusted/bl32/popcountsi2.o
 .debug_info    0x0000000000000000       0xdc /home/ming/tf-a-stm32mp-2.2.r2-r0/tf-a-stm32mp-2.2.r2/../build/trusted/bl32/popcountsi2.o
 .debug_abbrev  0x0000000000000000       0x6f /home/ming/tf-a-stm32mp-2.2.r2-r0/tf-a-stm32mp-2.2.r2/../build/trusted/bl32/popcountsi2.o
 .debug_loc     0x0000000000000000      0x11c /home/ming/tf-a-stm32mp-2.2.r2-r0/tf-a-stm32mp-2.2.r2/../build/trusted/bl32/popcountsi2.o
 .debug_aranges
                0x0000000000000000       0x20 /home/ming/tf-a-stm32mp-2.2.r2-r0/tf-a-stm32mp-2.2.r2/../build/trusted/bl32/popcountsi2.o
 .debug_ranges  0x0000000000000000       0x10 /home/ming/tf-a-stm32mp-2.2.r2-r0/tf-a-stm32mp-2.2.r2/../build/trusted/bl32/popcountsi2.o
 .debug_line    0x0000000000000000       0x6b /home/ming/tf-a-stm32mp-2.2.r2-r0/tf-a-stm32mp-2.2.r2/../build/trusted/bl32/popcountsi2.o
 .debug_str     0x0000000000000000      0x203 /home/ming/tf-a-stm32mp-2.2.r2-r0/tf-a-stm32mp-2.2.r2/../build/trusted/bl32/popcountsi2.o
 .comment       0x0000000000000000       0x25 /home/ming/tf-a-stm32mp-2.2.r2-r0/tf-a-stm32mp-2.2.r2/../build/trusted/bl32/popcountsi2.o
 .note.GNU-stack
                0x0000000000000000        0x0 /home/ming/tf-a-stm32mp-2.2.r2-r0/tf-a-stm32mp-2.2.r2/../build/trusted/bl32/popcountsi2.o
 .debug_frame   0x0000000000000000       0x20 /home/ming/tf-a-stm32mp-2.2.r2-r0/tf-a-stm32mp-2.2.r2/../build/trusted/bl32/popcountsi2.o
 .ARM.attributes
                0x0000000000000000       0x39 /home/ming/tf-a-stm32mp-2.2.r2-r0/tf-a-stm32mp-2.2.r2/../build/trusted/bl32/popcountsi2.o
 .text          0x0000000000000000        0x0 /home/ming/tf-a-stm32mp-2.2.r2-r0/tf-a-stm32mp-2.2.r2/../build/trusted/bl32/ctzdi2.o
 .data          0x0000000000000000        0x0 /home/ming/tf-a-stm32mp-2.2.r2-r0/tf-a-stm32mp-2.2.r2/../build/trusted/bl32/ctzdi2.o
 .bss           0x0000000000000000        0x0 /home/ming/tf-a-stm32mp-2.2.r2-r0/tf-a-stm32mp-2.2.r2/../build/trusted/bl32/ctzdi2.o
 .text          0x0000000000000000        0x0 /home/ming/tf-a-stm32mp-2.2.r2-r0/tf-a-stm32mp-2.2.r2/../build/trusted/bl32/divdi3.o
 .data          0x0000000000000000        0x0 /home/ming/tf-a-stm32mp-2.2.r2-r0/tf-a-stm32mp-2.2.r2/../build/trusted/bl32/divdi3.o
 .bss           0x0000000000000000        0x0 /home/ming/tf-a-stm32mp-2.2.r2-r0/tf-a-stm32mp-2.2.r2/../build/trusted/bl32/divdi3.o
 .text.__divdi3
                0x0000000000000000       0x4a /home/ming/tf-a-stm32mp-2.2.r2-r0/tf-a-stm32mp-2.2.r2/../build/trusted/bl32/divdi3.o
 .debug_info    0x0000000000000000      0x12a /home/ming/tf-a-stm32mp-2.2.r2-r0/tf-a-stm32mp-2.2.r2/../build/trusted/bl32/divdi3.o
 .debug_abbrev  0x0000000000000000       0xaf /home/ming/tf-a-stm32mp-2.2.r2-r0/tf-a-stm32mp-2.2.r2/../build/trusted/bl32/divdi3.o
 .debug_loc     0x0000000000000000       0x90 /home/ming/tf-a-stm32mp-2.2.r2-r0/tf-a-stm32mp-2.2.r2/../build/trusted/bl32/divdi3.o
 .debug_aranges
                0x0000000000000000       0x20 /home/ming/tf-a-stm32mp-2.2.r2-r0/tf-a-stm32mp-2.2.r2/../build/trusted/bl32/divdi3.o
 .debug_ranges  0x0000000000000000       0x10 /home/ming/tf-a-stm32mp-2.2.r2-r0/tf-a-stm32mp-2.2.r2/../build/trusted/bl32/divdi3.o
 .debug_line    0x0000000000000000       0x7a /home/ming/tf-a-stm32mp-2.2.r2-r0/tf-a-stm32mp-2.2.r2/../build/trusted/bl32/divdi3.o
 .debug_str     0x0000000000000000      0x217 /home/ming/tf-a-stm32mp-2.2.r2-r0/tf-a-stm32mp-2.2.r2/../build/trusted/bl32/divdi3.o
 .comment       0x0000000000000000       0x25 /home/ming/tf-a-stm32mp-2.2.r2-r0/tf-a-stm32mp-2.2.r2/../build/trusted/bl32/divdi3.o
 .note.GNU-stack
                0x0000000000000000        0x0 /home/ming/tf-a-stm32mp-2.2.r2-r0/tf-a-stm32mp-2.2.r2/../build/trusted/bl32/divdi3.o
 .debug_frame   0x0000000000000000       0x34 /home/ming/tf-a-stm32mp-2.2.r2-r0/tf-a-stm32mp-2.2.r2/../build/trusted/bl32/divdi3.o
 .ARM.attributes
                0x0000000000000000       0x39 /home/ming/tf-a-stm32mp-2.2.r2-r0/tf-a-stm32mp-2.2.r2/../build/trusted/bl32/divdi3.o
 .text          0x0000000000000000        0x0 /home/ming/tf-a-stm32mp-2.2.r2-r0/tf-a-stm32mp-2.2.r2/../build/trusted/bl32/divmoddi4.o
 .data          0x0000000000000000        0x0 /home/ming/tf-a-stm32mp-2.2.r2-r0/tf-a-stm32mp-2.2.r2/../build/trusted/bl32/divmoddi4.o
 .bss           0x0000000000000000        0x0 /home/ming/tf-a-stm32mp-2.2.r2-r0/tf-a-stm32mp-2.2.r2/../build/trusted/bl32/divmoddi4.o
 .text.__divmoddi4
                0x0000000000000000       0x2e /home/ming/tf-a-stm32mp-2.2.r2-r0/tf-a-stm32mp-2.2.r2/../build/trusted/bl32/divmoddi4.o
 .debug_info    0x0000000000000000      0x12a /home/ming/tf-a-stm32mp-2.2.r2-r0/tf-a-stm32mp-2.2.r2/../build/trusted/bl32/divmoddi4.o
 .debug_abbrev  0x0000000000000000       0xb1 /home/ming/tf-a-stm32mp-2.2.r2-r0/tf-a-stm32mp-2.2.r2/../build/trusted/bl32/divmoddi4.o
 .debug_loc     0x0000000000000000       0x50 /home/ming/tf-a-stm32mp-2.2.r2-r0/tf-a-stm32mp-2.2.r2/../build/trusted/bl32/divmoddi4.o
 .debug_aranges
                0x0000000000000000       0x20 /home/ming/tf-a-stm32mp-2.2.r2-r0/tf-a-stm32mp-2.2.r2/../build/trusted/bl32/divmoddi4.o
 .debug_ranges  0x0000000000000000       0x10 /home/ming/tf-a-stm32mp-2.2.r2-r0/tf-a-stm32mp-2.2.r2/../build/trusted/bl32/divmoddi4.o
 .debug_line    0x0000000000000000       0x74 /home/ming/tf-a-stm32mp-2.2.r2-r0/tf-a-stm32mp-2.2.r2/../build/trusted/bl32/divmoddi4.o
 .debug_str     0x0000000000000000      0x201 /home/ming/tf-a-stm32mp-2.2.r2-r0/tf-a-stm32mp-2.2.r2/../build/trusted/bl32/divmoddi4.o
 .comment       0x0000000000000000       0x25 /home/ming/tf-a-stm32mp-2.2.r2-r0/tf-a-stm32mp-2.2.r2/../build/trusted/bl32/divmoddi4.o
 .note.GNU-stack
                0x0000000000000000        0x0 /home/ming/tf-a-stm32mp-2.2.r2-r0/tf-a-stm32mp-2.2.r2/../build/trusted/bl32/divmoddi4.o
 .debug_frame   0x0000000000000000       0x30 /home/ming/tf-a-stm32mp-2.2.r2-r0/tf-a-stm32mp-2.2.r2/../build/trusted/bl32/divmoddi4.o
 .ARM.attributes
                0x0000000000000000       0x39 /home/ming/tf-a-stm32mp-2.2.r2-r0/tf-a-stm32mp-2.2.r2/../build/trusted/bl32/divmoddi4.o
 .text          0x0000000000000000        0x0 /home/ming/tf-a-stm32mp-2.2.r2-r0/tf-a-stm32mp-2.2.r2/../build/trusted/bl32/lshrdi3.o
 .data          0x0000000000000000        0x0 /home/ming/tf-a-stm32mp-2.2.r2-r0/tf-a-stm32mp-2.2.r2/../build/trusted/bl32/lshrdi3.o
 .bss           0x0000000000000000        0x0 /home/ming/tf-a-stm32mp-2.2.r2-r0/tf-a-stm32mp-2.2.r2/../build/trusted/bl32/lshrdi3.o
 .text.__lshrdi3
                0x0000000000000000       0x28 /home/ming/tf-a-stm32mp-2.2.r2-r0/tf-a-stm32mp-2.2.r2/../build/trusted/bl32/lshrdi3.o
 .debug_info    0x0000000000000000      0x160 /home/ming/tf-a-stm32mp-2.2.r2-r0/tf-a-stm32mp-2.2.r2/../build/trusted/bl32/lshrdi3.o
 .debug_abbrev  0x0000000000000000       0xd7 /home/ming/tf-a-stm32mp-2.2.r2-r0/tf-a-stm32mp-2.2.r2/../build/trusted/bl32/lshrdi3.o
 .debug_loc     0x0000000000000000       0x48 /home/ming/tf-a-stm32mp-2.2.r2-r0/tf-a-stm32mp-2.2.r2/../build/trusted/bl32/lshrdi3.o
 .debug_aranges
                0x0000000000000000       0x20 /home/ming/tf-a-stm32mp-2.2.r2-r0/tf-a-stm32mp-2.2.r2/../build/trusted/bl32/lshrdi3.o
 .debug_ranges  0x0000000000000000       0x10 /home/ming/tf-a-stm32mp-2.2.r2-r0/tf-a-stm32mp-2.2.r2/../build/trusted/bl32/lshrdi3.o
 .debug_line    0x0000000000000000       0x70 /home/ming/tf-a-stm32mp-2.2.r2-r0/tf-a-stm32mp-2.2.r2/../build/trusted/bl32/lshrdi3.o
 .debug_str     0x0000000000000000      0x230 /home/ming/tf-a-stm32mp-2.2.r2-r0/tf-a-stm32mp-2.2.r2/../build/trusted/bl32/lshrdi3.o
 .comment       0x0000000000000000       0x25 /home/ming/tf-a-stm32mp-2.2.r2-r0/tf-a-stm32mp-2.2.r2/../build/trusted/bl32/lshrdi3.o
 .note.GNU-stack
                0x0000000000000000        0x0 /home/ming/tf-a-stm32mp-2.2.r2-r0/tf-a-stm32mp-2.2.r2/../build/trusted/bl32/lshrdi3.o
 .debug_frame   0x0000000000000000       0x28 /home/ming/tf-a-stm32mp-2.2.r2-r0/tf-a-stm32mp-2.2.r2/../build/trusted/bl32/lshrdi3.o
 .ARM.attributes
                0x0000000000000000       0x39 /home/ming/tf-a-stm32mp-2.2.r2-r0/tf-a-stm32mp-2.2.r2/../build/trusted/bl32/lshrdi3.o
 .text          0x0000000000000000        0x0 /home/ming/tf-a-stm32mp-2.2.r2-r0/tf-a-stm32mp-2.2.r2/../build/trusted/bl32/udivmoddi4.o
 .data          0x0000000000000000        0x0 /home/ming/tf-a-stm32mp-2.2.r2-r0/tf-a-stm32mp-2.2.r2/../build/trusted/bl32/udivmoddi4.o
 .bss           0x0000000000000000        0x0 /home/ming/tf-a-stm32mp-2.2.r2-r0/tf-a-stm32mp-2.2.r2/../build/trusted/bl32/udivmoddi4.o
 .text          0x0000000000000000        0x0 /home/ming/tf-a-stm32mp-2.2.r2-r0/tf-a-stm32mp-2.2.r2/../build/trusted/bl32/stm32mp_common.o
 .data          0x0000000000000000        0x0 /home/ming/tf-a-stm32mp-2.2.r2-r0/tf-a-stm32mp-2.2.r2/../build/trusted/bl32/stm32mp_common.o
 .bss           0x0000000000000000        0x0 /home/ming/tf-a-stm32mp-2.2.r2-r0/tf-a-stm32mp-2.2.r2/../build/trusted/bl32/stm32mp_common.o
 .text.plat_get_ns_image_entrypoint
                0x0000000000000000        0x8 /home/ming/tf-a-stm32mp-2.2.r2-r0/tf-a-stm32mp-2.2.r2/../build/trusted/bl32/stm32mp_common.o
 .text.stm32mp_plat_reset
                0x0000000000000000        0xa /home/ming/tf-a-stm32mp-2.2.r2-r0/tf-a-stm32mp-2.2.r2/../build/trusted/bl32/stm32mp_common.o
 .text.stm32mp_save_boot_ctx_address
                0x0000000000000000        0xc /home/ming/tf-a-stm32mp-2.2.r2-r0/tf-a-stm32mp-2.2.r2/../build/trusted/bl32/stm32mp_common.o
 .text.stm32mp_get_boot_ctx_address
                0x0000000000000000        0xc /home/ming/tf-a-stm32mp-2.2.r2-r0/tf-a-stm32mp-2.2.r2/../build/trusted/bl32/stm32mp_common.o
 .text.stm32mp_check_header
                0x0000000000000000       0xc0 /home/ming/tf-a-stm32mp-2.2.r2-r0/tf-a-stm32mp-2.2.r2/../build/trusted/bl32/stm32mp_common.o
 .text.stm32mp_save_loaded_header
                0x0000000000000000       0x1c /home/ming/tf-a-stm32mp-2.2.r2-r0/tf-a-stm32mp-2.2.r2/../build/trusted/bl32/stm32mp_common.o
 .text.stm32mp_delete_loaded_header
                0x0000000000000000       0x1c /home/ming/tf-a-stm32mp-2.2.r2-r0/tf-a-stm32mp-2.2.r2/../build/trusted/bl32/stm32mp_common.o
 .text.stm32mp_get_loaded_header
                0x0000000000000000       0x1c /home/ming/tf-a-stm32mp-2.2.r2-r0/tf-a-stm32mp-2.2.r2/../build/trusted/bl32/stm32mp_common.o
 .bss.boot_ctx_address
                0x0000000000000000        0x4 /home/ming/tf-a-stm32mp-2.2.r2-r0/tf-a-stm32mp-2.2.r2/../build/trusted/bl32/stm32mp_common.o
 .bss.latest_stm32_header
                0x0000000000000000        0x4 /home/ming/tf-a-stm32mp-2.2.r2-r0/tf-a-stm32mp-2.2.r2/../build/trusted/bl32/stm32mp_common.o
 .rodata.stm32mp_check_header.str1.1
                0x0000000000000000       0x41 /home/ming/tf-a-stm32mp-2.2.r2-r0/tf-a-stm32mp-2.2.r2/../build/trusted/bl32/stm32mp_common.o
 .text          0x0000000000000000        0x0 /home/ming/tf-a-stm32mp-2.2.r2-r0/tf-a-stm32mp-2.2.r2/../build/trusted/bl32/stm32mp1_private.o
 .data          0x0000000000000000        0x0 /home/ming/tf-a-stm32mp-2.2.r2-r0/tf-a-stm32mp-2.2.r2/../build/trusted/bl32/stm32mp1_private.o
 .bss           0x0000000000000000        0x0 /home/ming/tf-a-stm32mp-2.2.r2-r0/tf-a-stm32mp-2.2.r2/../build/trusted/bl32/stm32mp1_private.o
 .text.stm32mp_print_cpuinfo
                0x0000000000000000      0x148 /home/ming/tf-a-stm32mp-2.2.r2-r0/tf-a-stm32mp-2.2.r2/../build/trusted/bl32/stm32mp1_private.o
 .text.stm32mp_print_boardinfo
                0x0000000000000000       0x4c /home/ming/tf-a-stm32mp-2.2.r2-r0/tf-a-stm32mp-2.2.r2/../build/trusted/bl32/stm32mp1_private.o
 .text.stm32mp_is_closed_device
                0x0000000000000000       0x20 /home/ming/tf-a-stm32mp-2.2.r2-r0/tf-a-stm32mp-2.2.r2/../build/trusted/bl32/stm32mp1_private.o
 .text.stm32mp_is_auth_supported
                0x0000000000000000       0x3c /home/ming/tf-a-stm32mp-2.2.r2-r0/tf-a-stm32mp-2.2.r2/../build/trusted/bl32/stm32mp1_private.o
 .text.plat_bind_regulator
                0x0000000000000000       0x50 /home/ming/tf-a-stm32mp-2.2.r2-r0/tf-a-stm32mp-2.2.r2/../build/trusted/bl32/stm32mp1_private.o
 .rodata.CSWTCH.46
                0x0000000000000000       0x10 /home/ming/tf-a-stm32mp-2.2.r2-r0/tf-a-stm32mp-2.2.r2/../build/trusted/bl32/stm32mp1_private.o
 .rodata.plat_bind_regulator.str1.1
                0x0000000000000000       0x14 /home/ming/tf-a-stm32mp-2.2.r2-r0/tf-a-stm32mp-2.2.r2/../build/trusted/bl32/stm32mp1_private.o
 .rodata.stm32mp_is_closed_device.str1.1
                0x0000000000000000        0x9 /home/ming/tf-a-stm32mp-2.2.r2-r0/tf-a-stm32mp-2.2.r2/../build/trusted/bl32/stm32mp1_private.o
 .rodata.stm32mp_print_boardinfo.str1.1
                0x0000000000000000       0x2e /home/ming/tf-a-stm32mp-2.2.r2-r0/tf-a-stm32mp-2.2.r2/../build/trusted/bl32/stm32mp1_private.o
 .rodata.stm32mp_print_cpuinfo.str1.1
                0x0000000000000000       0x99 /home/ming/tf-a-stm32mp-2.2.r2-r0/tf-a-stm32mp-2.2.r2/../build/trusted/bl32/stm32mp1_private.o
 .rodata.str1.1
                0x0000000000000000        0xc /home/ming/tf-a-stm32mp-2.2.r2-r0/tf-a-stm32mp-2.2.r2/../build/trusted/bl32/stm32mp1_private.o
 .text          0x0000000000000000        0x0 /home/ming/tf-a-stm32mp-2.2.r2-r0/tf-a-stm32mp-2.2.r2/../build/trusted/bl32/xlat_tables_arch.o
 .data          0x0000000000000000        0x0 /home/ming/tf-a-stm32mp-2.2.r2-r0/tf-a-stm32mp-2.2.r2/../build/trusted/bl32/xlat_tables_arch.o
 .bss           0x0000000000000000        0x0 /home/ming/tf-a-stm32mp-2.2.r2-r0/tf-a-stm32mp-2.2.r2/../build/trusted/bl32/xlat_tables_arch.o
 .text.xlat_arch_is_granule_size_supported
                0x0000000000000000        0xa /home/ming/tf-a-stm32mp-2.2.r2-r0/tf-a-stm32mp-2.2.r2/../build/trusted/bl32/xlat_tables_arch.o
 .text.xlat_arch_get_max_supported_granule_size
                0x0000000000000000        0x6 /home/ming/tf-a-stm32mp-2.2.r2-r0/tf-a-stm32mp-2.2.r2/../build/trusted/bl32/xlat_tables_arch.o
 .text          0x0000000000000000        0x0 /home/ming/tf-a-stm32mp-2.2.r2-r0/tf-a-stm32mp-2.2.r2/../build/trusted/bl32/xlat_tables_context.o
 .data          0x0000000000000000        0x0 /home/ming/tf-a-stm32mp-2.2.r2-r0/tf-a-stm32mp-2.2.r2/../build/trusted/bl32/xlat_tables_context.o
 .bss           0x0000000000000000        0x0 /home/ming/tf-a-stm32mp-2.2.r2-r0/tf-a-stm32mp-2.2.r2/../build/trusted/bl32/xlat_tables_context.o
 .text.mmap_add_region_alloc_va
                0x0000000000000000       0x30 /home/ming/tf-a-stm32mp-2.2.r2-r0/tf-a-stm32mp-2.2.r2/../build/trusted/bl32/xlat_tables_context.o
 .text.mmap_add_alloc_va
                0x0000000000000000       0x2c /home/ming/tf-a-stm32mp-2.2.r2-r0/tf-a-stm32mp-2.2.r2/../build/trusted/bl32/xlat_tables_context.o
 .text.mmap_add_dynamic_region_alloc_va
                0x0000000000000000       0x30 /home/ming/tf-a-stm32mp-2.2.r2-r0/tf-a-stm32mp-2.2.r2/../build/trusted/bl32/xlat_tables_context.o
 .text.xlat_get_mem_attributes
                0x0000000000000000       0x10 /home/ming/tf-a-stm32mp-2.2.r2-r0/tf-a-stm32mp-2.2.r2/../build/trusted/bl32/xlat_tables_context.o
 .text.xlat_change_mem_attributes
                0x0000000000000000       0x10 /home/ming/tf-a-stm32mp-2.2.r2-r0/tf-a-stm32mp-2.2.r2/../build/trusted/bl32/xlat_tables_context.o
 .text.enable_mmu_hyp
                0x0000000000000000       0x34 /home/ming/tf-a-stm32mp-2.2.r2-r0/tf-a-stm32mp-2.2.r2/../build/trusted/bl32/xlat_tables_context.o
 .text          0x0000000000000000        0x0 /home/ming/tf-a-stm32mp-2.2.r2-r0/tf-a-stm32mp-2.2.r2/../build/trusted/bl32/xlat_tables_core.o
 .data          0x0000000000000000        0x0 /home/ming/tf-a-stm32mp-2.2.r2-r0/tf-a-stm32mp-2.2.r2/../build/trusted/bl32/xlat_tables_core.o
 .bss           0x0000000000000000        0x0 /home/ming/tf-a-stm32mp-2.2.r2-r0/tf-a-stm32mp-2.2.r2/../build/trusted/bl32/xlat_tables_core.o
 .text.mmap_alloc_va_align_ctx.isra.1
                0x0000000000000000       0x42 /home/ming/tf-a-stm32mp-2.2.r2-r0/tf-a-stm32mp-2.2.r2/../build/trusted/bl32/xlat_tables_core.o
 .text.mmap_add_region_alloc_va_ctx
                0x0000000000000000       0x3c /home/ming/tf-a-stm32mp-2.2.r2-r0/tf-a-stm32mp-2.2.r2/../build/trusted/bl32/xlat_tables_core.o
 .text.mmap_add_dynamic_region_alloc_va_ctx
                0x0000000000000000       0x2c /home/ming/tf-a-stm32mp-2.2.r2-r0/tf-a-stm32mp-2.2.r2/../build/trusted/bl32/xlat_tables_core.o
 .text.xlat_setup_dynamic_ctx
                0x0000000000000000       0x5e /home/ming/tf-a-stm32mp-2.2.r2-r0/tf-a-stm32mp-2.2.r2/../build/trusted/bl32/xlat_tables_core.o
 .text          0x0000000000000000        0x0 /home/ming/tf-a-stm32mp-2.2.r2-r0/tf-a-stm32mp-2.2.r2/../build/trusted/bl32/xlat_tables_utils.o
 .data          0x0000000000000000        0x0 /home/ming/tf-a-stm32mp-2.2.r2-r0/tf-a-stm32mp-2.2.r2/../build/trusted/bl32/xlat_tables_utils.o
 .bss           0x0000000000000000        0x0 /home/ming/tf-a-stm32mp-2.2.r2-r0/tf-a-stm32mp-2.2.r2/../build/trusted/bl32/xlat_tables_utils.o
 .text.find_xlat_table_entry
                0x0000000000000000       0xb0 /home/ming/tf-a-stm32mp-2.2.r2-r0/tf-a-stm32mp-2.2.r2/../build/trusted/bl32/xlat_tables_utils.o
 .text.xlat_get_mem_attributes_internal
                0x0000000000000000      0x134 /home/ming/tf-a-stm32mp-2.2.r2-r0/tf-a-stm32mp-2.2.r2/../build/trusted/bl32/xlat_tables_utils.o
 .text.xlat_get_mem_attributes_ctx
                0x0000000000000000       0x12 /home/ming/tf-a-stm32mp-2.2.r2-r0/tf-a-stm32mp-2.2.r2/../build/trusted/bl32/xlat_tables_utils.o
 .text.xlat_change_mem_attributes_ctx
                0x0000000000000000      0x1b8 /home/ming/tf-a-stm32mp-2.2.r2-r0/tf-a-stm32mp-2.2.r2/../build/trusted/bl32/xlat_tables_utils.o
 .rodata.__func__.6709
                0x0000000000000000       0x1f /home/ming/tf-a-stm32mp-2.2.r2-r0/tf-a-stm32mp-2.2.r2/../build/trusted/bl32/xlat_tables_utils.o
 .rodata.find_xlat_table_entry.str1.1
                0x0000000000000000       0x53 /home/ming/tf-a-stm32mp-2.2.r2-r0/tf-a-stm32mp-2.2.r2/../build/trusted/bl32/xlat_tables_utils.o
 .rodata.xlat_change_mem_attributes_ctx.str1.1
                0x0000000000000000      0x152 /home/ming/tf-a-stm32mp-2.2.r2-r0/tf-a-stm32mp-2.2.r2/../build/trusted/bl32/xlat_tables_utils.o
 .rodata.xlat_get_mem_attributes_internal.str1.1
                0x0000000000000000       0x1f /home/ming/tf-a-stm32mp-2.2.r2-r0/tf-a-stm32mp-2.2.r2/../build/trusted/bl32/xlat_tables_utils.o
 .text          0x0000000000000000        0x0 /home/ming/tf-a-stm32mp-2.2.r2-r0/tf-a-stm32mp-2.2.r2/../build/trusted/bl32/tzc400.o
 .data          0x0000000000000000        0x0 /home/ming/tf-a-stm32mp-2.2.r2-r0/tf-a-stm32mp-2.2.r2/../build/trusted/bl32/tzc400.o
 .bss           0x0000000000000000        0x0 /home/ming/tf-a-stm32mp-2.2.r2-r0/tf-a-stm32mp-2.2.r2/../build/trusted/bl32/tzc400.o
 .text.tzc400_configure_region0
                0x0000000000000000       0x2c /home/ming/tf-a-stm32mp-2.2.r2-r0/tf-a-stm32mp-2.2.r2/../build/trusted/bl32/tzc400.o
 .text.tzc400_clear_all_interrupts
                0x0000000000000000       0x30 /home/ming/tf-a-stm32mp-2.2.r2-r0/tf-a-stm32mp-2.2.r2/../build/trusted/bl32/tzc400.o
 .text          0x0000000000000000        0x0 /home/ming/tf-a-stm32mp-2.2.r2-r0/tf-a-stm32mp-2.2.r2/../build/trusted/bl32/delay_timer.o
 .data          0x0000000000000000        0x0 /home/ming/tf-a-stm32mp-2.2.r2-r0/tf-a-stm32mp-2.2.r2/../build/trusted/bl32/delay_timer.o
 .bss           0x0000000000000000        0x0 /home/ming/tf-a-stm32mp-2.2.r2-r0/tf-a-stm32mp-2.2.r2/../build/trusted/bl32/delay_timer.o
 .text          0x0000000000000000        0x0 /home/ming/tf-a-stm32mp-2.2.r2-r0/tf-a-stm32mp-2.2.r2/../build/trusted/bl32/generic_delay_timer.o
 .data          0x0000000000000000        0x0 /home/ming/tf-a-stm32mp-2.2.r2-r0/tf-a-stm32mp-2.2.r2/../build/trusted/bl32/generic_delay_timer.o
 .bss           0x0000000000000000        0x0 /home/ming/tf-a-stm32mp-2.2.r2-r0/tf-a-stm32mp-2.2.r2/../build/trusted/bl32/generic_delay_timer.o
 .text          0x0000000000000000        0x0 /home/ming/tf-a-stm32mp-2.2.r2-r0/tf-a-stm32mp-2.2.r2/../build/trusted/bl32/bsec2.o
 .data          0x0000000000000000        0x0 /home/ming/tf-a-stm32mp-2.2.r2-r0/tf-a-stm32mp-2.2.r2/../build/trusted/bl32/bsec2.o
 .bss           0x0000000000000000        0x0 /home/ming/tf-a-stm32mp-2.2.r2-r0/tf-a-stm32mp-2.2.r2/../build/trusted/bl32/bsec2.o
 .text.bsec_get_base
                0x0000000000000000        0xc /home/ming/tf-a-stm32mp-2.2.r2-r0/tf-a-stm32mp-2.2.r2/../build/trusted/bl32/bsec2.o
 .text.bsec_get_config
                0x0000000000000000       0x44 /home/ming/tf-a-stm32mp-2.2.r2-r0/tf-a-stm32mp-2.2.r2/../build/trusted/bl32/bsec2.o
 .text.bsec_write_debug_conf
                0x0000000000000000       0x24 /home/ming/tf-a-stm32mp-2.2.r2-r0/tf-a-stm32mp-2.2.r2/../build/trusted/bl32/bsec2.o
 .text.bsec_set_config
                0x0000000000000000       0x6c /home/ming/tf-a-stm32mp-2.2.r2-r0/tf-a-stm32mp-2.2.r2/../build/trusted/bl32/bsec2.o
 .text.bsec_get_hw_conf
                0x0000000000000000       0x10 /home/ming/tf-a-stm32mp-2.2.r2-r0/tf-a-stm32mp-2.2.r2/../build/trusted/bl32/bsec2.o
 .text.bsec_get_magic_id
                0x0000000000000000       0x10 /home/ming/tf-a-stm32mp-2.2.r2-r0/tf-a-stm32mp-2.2.r2/../build/trusted/bl32/bsec2.o
 .text.bsec_set_sr_lock
                0x0000000000000000       0x38 /home/ming/tf-a-stm32mp-2.2.r2-r0/tf-a-stm32mp-2.2.r2/../build/trusted/bl32/bsec2.o
 .text.bsec_set_sw_lock
                0x0000000000000000       0x38 /home/ming/tf-a-stm32mp-2.2.r2-r0/tf-a-stm32mp-2.2.r2/../build/trusted/bl32/bsec2.o
 .text.bsec_set_sp_lock
                0x0000000000000000       0x38 /home/ming/tf-a-stm32mp-2.2.r2-r0/tf-a-stm32mp-2.2.r2/../build/trusted/bl32/bsec2.o
 .text.bsec_otp_lock
                0x0000000000000000       0x2c /home/ming/tf-a-stm32mp-2.2.r2-r0/tf-a-stm32mp-2.2.r2/../build/trusted/bl32/bsec2.o
 .text.bsec_shadow_read_otp
                0x0000000000000000       0x3c /home/ming/tf-a-stm32mp-2.2.r2-r0/tf-a-stm32mp-2.2.r2/../build/trusted/bl32/bsec2.o
 .rodata.bsec_shadow_read_otp.str1.1
                0x0000000000000000       0x37 /home/ming/tf-a-stm32mp-2.2.r2-r0/tf-a-stm32mp-2.2.r2/../build/trusted/bl32/bsec2.o
 .text          0x0000000000000000        0x0 /home/ming/tf-a-stm32mp-2.2.r2-r0/tf-a-stm32mp-2.2.r2/../build/trusted/bl32/stm32mp_clkfunc.o
 .data          0x0000000000000000        0x0 /home/ming/tf-a-stm32mp-2.2.r2-r0/tf-a-stm32mp-2.2.r2/../build/trusted/bl32/stm32mp_clkfunc.o
 .bss           0x0000000000000000        0x0 /home/ming/tf-a-stm32mp-2.2.r2-r0/tf-a-stm32mp-2.2.r2/../build/trusted/bl32/stm32mp_clkfunc.o
 .text.fdt_osc_read_bool
                0x0000000000000000       0x74 /home/ming/tf-a-stm32mp-2.2.r2-r0/tf-a-stm32mp-2.2.r2/../build/trusted/bl32/stm32mp_clkfunc.o
 .text.fdt_osc_read_uint32_default
                0x0000000000000000       0x74 /home/ming/tf-a-stm32mp-2.2.r2-r0/tf-a-stm32mp-2.2.r2/../build/trusted/bl32/stm32mp_clkfunc.o
 .text.fdt_rcc_read_uint32_array
                0x0000000000000000       0x24 /home/ming/tf-a-stm32mp-2.2.r2-r0/tf-a-stm32mp-2.2.r2/../build/trusted/bl32/stm32mp_clkfunc.o
 .text.fdt_rcc_subnode_offset
                0x0000000000000000       0x2e /home/ming/tf-a-stm32mp-2.2.r2-r0/tf-a-stm32mp-2.2.r2/../build/trusted/bl32/stm32mp_clkfunc.o
 .text.fdt_get_rcc_secure_status
                0x0000000000000000       0x18 /home/ming/tf-a-stm32mp-2.2.r2-r0/tf-a-stm32mp-2.2.r2/../build/trusted/bl32/stm32mp_clkfunc.o
 .text.fdt_get_uart_clock_freq
                0x0000000000000000       0x30 /home/ming/tf-a-stm32mp-2.2.r2-r0/tf-a-stm32mp-2.2.r2/../build/trusted/bl32/stm32mp_clkfunc.o
 .text.fdt_is_pll1_predefined
                0x0000000000000000       0x14 /home/ming/tf-a-stm32mp-2.2.r2-r0/tf-a-stm32mp-2.2.r2/../build/trusted/bl32/stm32mp_clkfunc.o
 .text.stm32mp_stgen_config
                0x0000000000000000       0x60 /home/ming/tf-a-stm32mp-2.2.r2-r0/tf-a-stm32mp-2.2.r2/../build/trusted/bl32/stm32mp_clkfunc.o
 .rodata.fdt_get_uart_clock_freq.str1.1
                0x0000000000000000       0x10 /home/ming/tf-a-stm32mp-2.2.r2-r0/tf-a-stm32mp-2.2.r2/../build/trusted/bl32/stm32mp_clkfunc.o
 .rodata.fdt_is_pll1_predefined.str1.1
                0x0000000000000000        0x9 /home/ming/tf-a-stm32mp-2.2.r2-r0/tf-a-stm32mp-2.2.r2/../build/trusted/bl32/stm32mp_clkfunc.o
 .text          0x0000000000000000        0x0 /home/ming/tf-a-stm32mp-2.2.r2-r0/tf-a-stm32mp-2.2.r2/../build/trusted/bl32/stm32mp1_clk.o
 .data          0x0000000000000000        0x0 /home/ming/tf-a-stm32mp-2.2.r2-r0/tf-a-stm32mp-2.2.r2/../build/trusted/bl32/stm32mp1_clk.o
 .bss           0x0000000000000000        0x0 /home/ming/tf-a-stm32mp-2.2.r2-r0/tf-a-stm32mp-2.2.r2/../build/trusted/bl32/stm32mp1_clk.o
 .text.stm32mp1_mco_csg
                0x0000000000000000       0x3a /home/ming/tf-a-stm32mp-2.2.r2-r0/tf-a-stm32mp-2.2.r2/../build/trusted/bl32/stm32mp1_clk.o
 .text.stm32mp1_check_pll_conf
                0x0000000000000000      0x110 /home/ming/tf-a-stm32mp-2.2.r2-r0/tf-a-stm32mp-2.2.r2/../build/trusted/bl32/stm32mp1_clk.o
 .text.unlikely.stm32mp1_pkcs_config
                0x0000000000000000       0x26 /home/ming/tf-a-stm32mp-2.2.r2-r0/tf-a-stm32mp-2.2.r2/../build/trusted/bl32/stm32mp1_clk.o
 .text.stm32mp1_osc_wait
                0x0000000000000000       0x84 /home/ming/tf-a-stm32mp-2.2.r2-r0/tf-a-stm32mp-2.2.r2/../build/trusted/bl32/stm32mp1_clk.o
 .text.stm32mp1_clk_get_maxfreq_opp
                0x0000000000000000       0x54 /home/ming/tf-a-stm32mp-2.2.r2-r0/tf-a-stm32mp-2.2.r2/../build/trusted/bl32/stm32mp1_clk.o
 .text.stm32mp1_clk_init
                0x0000000000000000      0x690 /home/ming/tf-a-stm32mp-2.2.r2-r0/tf-a-stm32mp-2.2.r2/../build/trusted/bl32/stm32mp1_clk.o
 .text.stm32mp1_clk_rcc2id
                0x0000000000000000       0x48 /home/ming/tf-a-stm32mp-2.2.r2-r0/tf-a-stm32mp-2.2.r2/../build/trusted/bl32/stm32mp1_clk.o
 .rodata.stm32mp1_check_pll_conf.str1.1
                0x0000000000000000        0x5 /home/ming/tf-a-stm32mp-2.2.r2-r0/tf-a-stm32mp-2.2.r2/../build/trusted/bl32/stm32mp1_clk.o
 .rodata.stm32mp1_clk_get_maxfreq_opp.str1.1
                0x0000000000000000       0x1e /home/ming/tf-a-stm32mp-2.2.r2-r0/tf-a-stm32mp-2.2.r2/../build/trusted/bl32/stm32mp1_clk.o
 .rodata.stm32mp1_clk_init.str1.1
                0x0000000000000000       0x8f /home/ming/tf-a-stm32mp-2.2.r2-r0/tf-a-stm32mp-2.2.r2/../build/trusted/bl32/stm32mp1_clk.o
 .rodata.stm32mp1_osc_wait.str1.1
                0x0000000000000000       0x2c /home/ming/tf-a-stm32mp-2.2.r2-r0/tf-a-stm32mp-2.2.r2/../build/trusted/bl32/stm32mp1_clk.o
 .text          0x0000000000000000        0x0 /home/ming/tf-a-stm32mp-2.2.r2-r0/tf-a-stm32mp-2.2.r2/../build/trusted/bl32/stm32mp1_ddr_helpers.o
 .data          0x0000000000000000        0x0 /home/ming/tf-a-stm32mp-2.2.r2-r0/tf-a-stm32mp-2.2.r2/../build/trusted/bl32/stm32mp1_ddr_helpers.o
 .bss           0x0000000000000000        0x0 /home/ming/tf-a-stm32mp-2.2.r2-r0/tf-a-stm32mp-2.2.r2/../build/trusted/bl32/stm32mp1_ddr_helpers.o
 .text.ddr_is_nonsecured_area
                0x0000000000000000       0x58 /home/ming/tf-a-stm32mp-2.2.r2-r0/tf-a-stm32mp-2.2.r2/../build/trusted/bl32/stm32mp1_ddr_helpers.o
 .text          0x0000000000000000        0x0 /home/ming/tf-a-stm32mp-2.2.r2-r0/tf-a-stm32mp-2.2.r2/../build/trusted/bl32/stm32_gpio.o
 .data          0x0000000000000000        0x0 /home/ming/tf-a-stm32mp-2.2.r2-r0/tf-a-stm32mp-2.2.r2/../build/trusted/bl32/stm32_gpio.o
 .bss           0x0000000000000000        0x0 /home/ming/tf-a-stm32mp-2.2.r2-r0/tf-a-stm32mp-2.2.r2/../build/trusted/bl32/stm32_gpio.o
 .text          0x0000000000000000        0x0 /home/ming/tf-a-stm32mp-2.2.r2-r0/tf-a-stm32mp-2.2.r2/../build/trusted/bl32/stm32_i2c.o
 .data          0x0000000000000000        0x0 /home/ming/tf-a-stm32mp-2.2.r2-r0/tf-a-stm32mp-2.2.r2/../build/trusted/bl32/stm32_i2c.o
 .bss           0x0000000000000000        0x0 /home/ming/tf-a-stm32mp-2.2.r2-r0/tf-a-stm32mp-2.2.r2/../build/trusted/bl32/stm32_i2c.o
 .text.stm32_i2c_master_transmit
                0x0000000000000000       0x18 /home/ming/tf-a-stm32mp-2.2.r2-r0/tf-a-stm32mp-2.2.r2/../build/trusted/bl32/stm32_i2c.o
 .text.stm32_i2c_master_receive
                0x0000000000000000       0x14 /home/ming/tf-a-stm32mp-2.2.r2-r0/tf-a-stm32mp-2.2.r2/../build/trusted/bl32/stm32_i2c.o
 .text          0x0000000000000000        0x0 /home/ming/tf-a-stm32mp-2.2.r2-r0/tf-a-stm32mp-2.2.r2/../build/trusted/bl32/stm32_iwdg.o
 .data          0x0000000000000000        0x0 /home/ming/tf-a-stm32mp-2.2.r2-r0/tf-a-stm32mp-2.2.r2/../build/trusted/bl32/stm32_iwdg.o
 .bss           0x0000000000000000        0x0 /home/ming/tf-a-stm32mp-2.2.r2-r0/tf-a-stm32mp-2.2.r2/../build/trusted/bl32/stm32_iwdg.o
 .text          0x0000000000000000        0x0 /home/ming/tf-a-stm32mp-2.2.r2-r0/tf-a-stm32mp-2.2.r2/../build/trusted/bl32/stm32mp_pmic.o
 .data          0x0000000000000000        0x0 /home/ming/tf-a-stm32mp-2.2.r2-r0/tf-a-stm32mp-2.2.r2/../build/trusted/bl32/stm32mp_pmic.o
 .bss           0x0000000000000000        0x0 /home/ming/tf-a-stm32mp-2.2.r2-r0/tf-a-stm32mp-2.2.r2/../build/trusted/bl32/stm32mp_pmic.o
 .text.pmic_regulator_enable
                0x0000000000000000       0x2e /home/ming/tf-a-stm32mp-2.2.r2-r0/tf-a-stm32mp-2.2.r2/../build/trusted/bl32/stm32mp_pmic.o
 .text.pmic_regulator_disable
                0x0000000000000000       0x2e /home/ming/tf-a-stm32mp-2.2.r2-r0/tf-a-stm32mp-2.2.r2/../build/trusted/bl32/stm32mp_pmic.o
 .text.pmic_set_regulator_min_voltage
                0x0000000000000000       0x2e /home/ming/tf-a-stm32mp-2.2.r2-r0/tf-a-stm32mp-2.2.r2/../build/trusted/bl32/stm32mp_pmic.o
 .text.is_pmic_regulator
                0x0000000000000000       0x38 /home/ming/tf-a-stm32mp-2.2.r2-r0/tf-a-stm32mp-2.2.r2/../build/trusted/bl32/stm32mp_pmic.o
 .text.bind_pmic_regulator
                0x0000000000000000        0xc /home/ming/tf-a-stm32mp-2.2.r2-r0/tf-a-stm32mp-2.2.r2/../build/trusted/bl32/stm32mp_pmic.o
 .text.configure_pmic
                0x0000000000000000       0x14 /home/ming/tf-a-stm32mp-2.2.r2-r0/tf-a-stm32mp-2.2.r2/../build/trusted/bl32/stm32mp_pmic.o
 .text.print_pmic_info_and_debug
                0x0000000000000000       0x34 /home/ming/tf-a-stm32mp-2.2.r2-r0/tf-a-stm32mp-2.2.r2/../build/trusted/bl32/stm32mp_pmic.o
 .text.pmic_ddr_power_init
                0x0000000000000000      0x14c /home/ming/tf-a-stm32mp-2.2.r2-r0/tf-a-stm32mp-2.2.r2/../build/trusted/bl32/stm32mp_pmic.o
 .rodata.is_pmic_regulator.str1.1
                0x0000000000000000       0x16 /home/ming/tf-a-stm32mp-2.2.r2-r0/tf-a-stm32mp-2.2.r2/../build/trusted/bl32/stm32mp_pmic.o
 .rodata.pmic_ddr_power_init.str1.1
                0x0000000000000000       0x14 /home/ming/tf-a-stm32mp-2.2.r2-r0/tf-a-stm32mp-2.2.r2/../build/trusted/bl32/stm32mp_pmic.o
 .rodata.pmic_regu_ops
                0x0000000000000000        0x8 /home/ming/tf-a-stm32mp-2.2.r2-r0/tf-a-stm32mp-2.2.r2/../build/trusted/bl32/stm32mp_pmic.o
 .rodata.print_pmic_info_and_debug.str1.1
                0x0000000000000000       0x31 /home/ming/tf-a-stm32mp-2.2.r2-r0/tf-a-stm32mp-2.2.r2/../build/trusted/bl32/stm32mp_pmic.o
 .text          0x0000000000000000        0x0 /home/ming/tf-a-stm32mp-2.2.r2-r0/tf-a-stm32mp-2.2.r2/../build/trusted/bl32/stpmic1.o
 .data          0x0000000000000000        0x0 /home/ming/tf-a-stm32mp-2.2.r2-r0/tf-a-stm32mp-2.2.r2/../build/trusted/bl32/stpmic1.o
 .bss           0x0000000000000000        0x0 /home/ming/tf-a-stm32mp-2.2.r2-r0/tf-a-stm32mp-2.2.r2/../build/trusted/bl32/stpmic1.o
 .text.stpmic1_regulator_disable
                0x0000000000000000       0x14 /home/ming/tf-a-stm32mp-2.2.r2-r0/tf-a-stm32mp-2.2.r2/../build/trusted/bl32/stpmic1.o
 .text.stpmic1_dump_regulators
                0x0000000000000000        0x2 /home/ming/tf-a-stm32mp-2.2.r2-r0/tf-a-stm32mp-2.2.r2/../build/trusted/bl32/stpmic1.o
 .text.stpmic1_get_version
                0x0000000000000000       0x1e /home/ming/tf-a-stm32mp-2.2.r2-r0/tf-a-stm32mp-2.2.r2/../build/trusted/bl32/stpmic1.o
 .text          0x0000000000000000        0x0 /home/ming/tf-a-stm32mp-2.2.r2-r0/tf-a-stm32mp-2.2.r2/../build/trusted/bl32/stm32mp_dummy_regulator.o
 .data          0x0000000000000000        0x0 /home/ming/tf-a-stm32mp-2.2.r2-r0/tf-a-stm32mp-2.2.r2/../build/trusted/bl32/stm32mp_dummy_regulator.o
 .bss           0x0000000000000000        0x0 /home/ming/tf-a-stm32mp-2.2.r2-r0/tf-a-stm32mp-2.2.r2/../build/trusted/bl32/stm32mp_dummy_regulator.o
 .text.dummy_regulator_enable
                0x0000000000000000        0x4 /home/ming/tf-a-stm32mp-2.2.r2-r0/tf-a-stm32mp-2.2.r2/../build/trusted/bl32/stm32mp_dummy_regulator.o
 .text.dummy_regulator_disable
                0x0000000000000000        0x4 /home/ming/tf-a-stm32mp-2.2.r2-r0/tf-a-stm32mp-2.2.r2/../build/trusted/bl32/stm32mp_dummy_regulator.o
 .text.bind_dummy_regulator
                0x0000000000000000        0xc /home/ming/tf-a-stm32mp-2.2.r2-r0/tf-a-stm32mp-2.2.r2/../build/trusted/bl32/stm32mp_dummy_regulator.o
 .rodata.dummy_regu_ops
                0x0000000000000000        0x8 /home/ming/tf-a-stm32mp-2.2.r2-r0/tf-a-stm32mp-2.2.r2/../build/trusted/bl32/stm32mp_dummy_regulator.o
 .debug_info    0x0000000000000000      0x133 /home/ming/tf-a-stm32mp-2.2.r2-r0/tf-a-stm32mp-2.2.r2/../build/trusted/bl32/stm32mp_dummy_regulator.o
 .debug_abbrev  0x0000000000000000       0xfb /home/ming/tf-a-stm32mp-2.2.r2-r0/tf-a-stm32mp-2.2.r2/../build/trusted/bl32/stm32mp_dummy_regulator.o
 .debug_loc     0x0000000000000000       0x21 /home/ming/tf-a-stm32mp-2.2.r2-r0/tf-a-stm32mp-2.2.r2/../build/trusted/bl32/stm32mp_dummy_regulator.o
 .debug_aranges
                0x0000000000000000       0x28 /home/ming/tf-a-stm32mp-2.2.r2-r0/tf-a-stm32mp-2.2.r2/../build/trusted/bl32/stm32mp_dummy_regulator.o
 .debug_ranges  0x0000000000000000       0x18 /home/ming/tf-a-stm32mp-2.2.r2-r0/tf-a-stm32mp-2.2.r2/../build/trusted/bl32/stm32mp_dummy_regulator.o
 .debug_line    0x0000000000000000       0x9a /home/ming/tf-a-stm32mp-2.2.r2-r0/tf-a-stm32mp-2.2.r2/../build/trusted/bl32/stm32mp_dummy_regulator.o
 .debug_str     0x0000000000000000      0x1c0 /home/ming/tf-a-stm32mp-2.2.r2-r0/tf-a-stm32mp-2.2.r2/../build/trusted/bl32/stm32mp_dummy_regulator.o
 .comment       0x0000000000000000       0x25 /home/ming/tf-a-stm32mp-2.2.r2-r0/tf-a-stm32mp-2.2.r2/../build/trusted/bl32/stm32mp_dummy_regulator.o
 .note.GNU-stack
                0x0000000000000000        0x0 /home/ming/tf-a-stm32mp-2.2.r2-r0/tf-a-stm32mp-2.2.r2/../build/trusted/bl32/stm32mp_dummy_regulator.o
 .debug_frame   0x0000000000000000       0x40 /home/ming/tf-a-stm32mp-2.2.r2-r0/tf-a-stm32mp-2.2.r2/../build/trusted/bl32/stm32mp_dummy_regulator.o
 .ARM.attributes
                0x0000000000000000       0x39 /home/ming/tf-a-stm32mp-2.2.r2-r0/tf-a-stm32mp-2.2.r2/../build/trusted/bl32/stm32mp_dummy_regulator.o
 .text          0x0000000000000000        0x0 /home/ming/tf-a-stm32mp-2.2.r2-r0/tf-a-stm32mp-2.2.r2/../build/trusted/bl32/stm32mp_regulator.o
 .data          0x0000000000000000        0x0 /home/ming/tf-a-stm32mp-2.2.r2-r0/tf-a-stm32mp-2.2.r2/../build/trusted/bl32/stm32mp_regulator.o
 .bss           0x0000000000000000        0x0 /home/ming/tf-a-stm32mp-2.2.r2-r0/tf-a-stm32mp-2.2.r2/../build/trusted/bl32/stm32mp_regulator.o
 .text.plat_bind_regulator
                0x0000000000000000        0x6 /home/ming/tf-a-stm32mp-2.2.r2-r0/tf-a-stm32mp-2.2.r2/../build/trusted/bl32/stm32mp_regulator.o
 .text.stm32mp_regulator_enable
                0x0000000000000000       0x1c /home/ming/tf-a-stm32mp-2.2.r2-r0/tf-a-stm32mp-2.2.r2/../build/trusted/bl32/stm32mp_regulator.o
 .text.stm32mp_regulator_disable
                0x0000000000000000       0x24 /home/ming/tf-a-stm32mp-2.2.r2-r0/tf-a-stm32mp-2.2.r2/../build/trusted/bl32/stm32mp_regulator.o
 .text.stm32mp_regulator_register
                0x0000000000000000        0x4 /home/ming/tf-a-stm32mp-2.2.r2-r0/tf-a-stm32mp-2.2.r2/../build/trusted/bl32/stm32mp_regulator.o
 .rodata.stm32mp_regulator_enable.str1.1
                0x0000000000000000       0x29 /home/ming/tf-a-stm32mp-2.2.r2-r0/tf-a-stm32mp-2.2.r2/../build/trusted/bl32/stm32mp_regulator.o
 .debug_info    0x0000000000000000      0x2e9 /home/ming/tf-a-stm32mp-2.2.r2-r0/tf-a-stm32mp-2.2.r2/../build/trusted/bl32/stm32mp_regulator.o
 .debug_abbrev  0x0000000000000000      0x15d /home/ming/tf-a-stm32mp-2.2.r2-r0/tf-a-stm32mp-2.2.r2/../build/trusted/bl32/stm32mp_regulator.o
 .debug_loc     0x0000000000000000       0xcf /home/ming/tf-a-stm32mp-2.2.r2-r0/tf-a-stm32mp-2.2.r2/../build/trusted/bl32/stm32mp_regulator.o
 .debug_aranges
                0x0000000000000000       0x38 /home/ming/tf-a-stm32mp-2.2.r2-r0/tf-a-stm32mp-2.2.r2/../build/trusted/bl32/stm32mp_regulator.o
 .debug_ranges  0x0000000000000000       0x28 /home/ming/tf-a-stm32mp-2.2.r2-r0/tf-a-stm32mp-2.2.r2/../build/trusted/bl32/stm32mp_regulator.o
 .debug_line    0x0000000000000000      0x161 /home/ming/tf-a-stm32mp-2.2.r2-r0/tf-a-stm32mp-2.2.r2/../build/trusted/bl32/stm32mp_regulator.o
 .debug_str     0x0000000000000000      0x2f5 /home/ming/tf-a-stm32mp-2.2.r2-r0/tf-a-stm32mp-2.2.r2/../build/trusted/bl32/stm32mp_regulator.o
 .comment       0x0000000000000000       0x25 /home/ming/tf-a-stm32mp-2.2.r2-r0/tf-a-stm32mp-2.2.r2/../build/trusted/bl32/stm32mp_regulator.o
 .note.GNU-stack
                0x0000000000000000        0x0 /home/ming/tf-a-stm32mp-2.2.r2-r0/tf-a-stm32mp-2.2.r2/../build/trusted/bl32/stm32mp_regulator.o
 .debug_frame   0x0000000000000000       0x6c /home/ming/tf-a-stm32mp-2.2.r2-r0/tf-a-stm32mp-2.2.r2/../build/trusted/bl32/stm32mp_regulator.o
 .ARM.attributes
                0x0000000000000000       0x39 /home/ming/tf-a-stm32mp-2.2.r2-r0/tf-a-stm32mp-2.2.r2/../build/trusted/bl32/stm32mp_regulator.o
 .text          0x0000000000000000        0x0 /home/ming/tf-a-stm32mp-2.2.r2-r0/tf-a-stm32mp-2.2.r2/../build/trusted/bl32/stm32mp1_reset.o
 .data          0x0000000000000000        0x0 /home/ming/tf-a-stm32mp-2.2.r2-r0/tf-a-stm32mp-2.2.r2/../build/trusted/bl32/stm32mp1_reset.o
 .bss           0x0000000000000000        0x0 /home/ming/tf-a-stm32mp-2.2.r2-r0/tf-a-stm32mp-2.2.r2/../build/trusted/bl32/stm32mp1_reset.o
 .text          0x0000000000000000        0x0 /home/ming/tf-a-stm32mp-2.2.r2-r0/tf-a-stm32mp-2.2.r2/../build/trusted/bl32/stm32mp_dt.o
 .data          0x0000000000000000        0x0 /home/ming/tf-a-stm32mp-2.2.r2-r0/tf-a-stm32mp-2.2.r2/../build/trusted/bl32/stm32mp_dt.o
 .bss           0x0000000000000000        0x0 /home/ming/tf-a-stm32mp-2.2.r2-r0/tf-a-stm32mp-2.2.r2/../build/trusted/bl32/stm32mp_dt.o
 .text.fdt_check_node
                0x0000000000000000       0x20 /home/ming/tf-a-stm32mp-2.2.r2-r0/tf-a-stm32mp-2.2.r2/../build/trusted/bl32/stm32mp_dt.o
 .text.fdt_get_reg_props_by_name
                0x0000000000000000       0x98 /home/ming/tf-a-stm32mp-2.2.r2-r0/tf-a-stm32mp-2.2.r2/../build/trusted/bl32/stm32mp_dt.o
 .text.dt_set_stdout_pinctrl
                0x0000000000000000       0x18 /home/ming/tf-a-stm32mp-2.2.r2-r0/tf-a-stm32mp-2.2.r2/../build/trusted/bl32/stm32mp_dt.o
 .text.dt_match_instance_by_compatible
                0x0000000000000000       0x6c /home/ming/tf-a-stm32mp-2.2.r2-r0/tf-a-stm32mp-2.2.r2/../build/trusted/bl32/stm32mp_dt.o
 .text.dt_get_max_opp_freqvolt
                0x0000000000000000       0x84 /home/ming/tf-a-stm32mp-2.2.r2-r0/tf-a-stm32mp-2.2.r2/../build/trusted/bl32/stm32mp_dt.o
 .text.dt_get_pwr_vdd_voltage
                0x0000000000000000       0x54 /home/ming/tf-a-stm32mp-2.2.r2-r0/tf-a-stm32mp-2.2.r2/../build/trusted/bl32/stm32mp_dt.o
 .text.dt_get_board_model
                0x0000000000000000       0x2c /home/ming/tf-a-stm32mp-2.2.r2-r0/tf-a-stm32mp-2.2.r2/../build/trusted/bl32/stm32mp_dt.o
 .rodata.dt_get_board_model.str1.1
                0x0000000000000000        0x8 /home/ming/tf-a-stm32mp-2.2.r2-r0/tf-a-stm32mp-2.2.r2/../build/trusted/bl32/stm32mp_dt.o
 .rodata.dt_get_pwr_vdd_voltage.str1.1
                0x0000000000000000       0x37 /home/ming/tf-a-stm32mp-2.2.r2-r0/tf-a-stm32mp-2.2.r2/../build/trusted/bl32/stm32mp_dt.o
 .text          0x0000000000000000        0x0 /home/ming/tf-a-stm32mp-2.2.r2-r0/tf-a-stm32mp-2.2.r2/../build/trusted/bl32/stm32mp_shres_helpers.o
 .data          0x0000000000000000        0x0 /home/ming/tf-a-stm32mp-2.2.r2-r0/tf-a-stm32mp-2.2.r2/../build/trusted/bl32/stm32mp_shres_helpers.o
 .bss           0x0000000000000000        0x0 /home/ming/tf-a-stm32mp-2.2.r2-r0/tf-a-stm32mp-2.2.r2/../build/trusted/bl32/stm32mp_shres_helpers.o
 .text          0x0000000000000000        0x0 /home/ming/tf-a-stm32mp-2.2.r2-r0/tf-a-stm32mp-2.2.r2/../build/trusted/bl32/stm32mp1_context.o
 .data          0x0000000000000000        0x0 /home/ming/tf-a-stm32mp-2.2.r2-r0/tf-a-stm32mp-2.2.r2/../build/trusted/bl32/stm32mp1_context.o
 .bss           0x0000000000000000        0x0 /home/ming/tf-a-stm32mp-2.2.r2-r0/tf-a-stm32mp-2.2.r2/../build/trusted/bl32/stm32mp1_context.o
 .text.stm32_get_stgen_from_context
                0x0000000000000000       0x1c /home/ming/tf-a-stm32mp-2.2.r2-r0/tf-a-stm32mp-2.2.r2/../build/trusted/bl32/stm32mp1_context.o
 .text.stm32_get_zdata_from_context
                0x0000000000000000       0x1e /home/ming/tf-a-stm32mp-2.2.r2-r0/tf-a-stm32mp-2.2.r2/../build/trusted/bl32/stm32mp1_context.o
 .text.stm32_get_pll1_settings_from_context
                0x0000000000000000       0x20 /home/ming/tf-a-stm32mp-2.2.r2-r0/tf-a-stm32mp-2.2.r2/../build/trusted/bl32/stm32mp1_context.o
 .text.stm32_save_boot_interface
                0x0000000000000000       0x30 /home/ming/tf-a-stm32mp-2.2.r2-r0/tf-a-stm32mp-2.2.r2/../build/trusted/bl32/stm32mp1_context.o
 .text.stm32_get_boot_interface
                0x0000000000000000       0x2c /home/ming/tf-a-stm32mp-2.2.r2-r0/tf-a-stm32mp-2.2.r2/../build/trusted/bl32/stm32mp1_context.o
 .text.stm32_restore_ddr_training_area
                0x0000000000000000       0x28 /home/ming/tf-a-stm32mp-2.2.r2-r0/tf-a-stm32mp-2.2.r2/../build/trusted/bl32/stm32mp1_context.o
 .text          0x0000000000000000        0x0 /home/ming/tf-a-stm32mp-2.2.r2-r0/tf-a-stm32mp-2.2.r2/../build/trusted/bl32/stm32mp1_dbgmcu.o
 .data          0x0000000000000000        0x0 /home/ming/tf-a-stm32mp-2.2.r2-r0/tf-a-stm32mp-2.2.r2/../build/trusted/bl32/stm32mp1_dbgmcu.o
 .bss           0x0000000000000000        0x0 /home/ming/tf-a-stm32mp-2.2.r2-r0/tf-a-stm32mp-2.2.r2/../build/trusted/bl32/stm32mp1_dbgmcu.o
 .text.stm32mp1_dbgmcu_get_chip_version
                0x0000000000000000       0x2c /home/ming/tf-a-stm32mp-2.2.r2-r0/tf-a-stm32mp-2.2.r2/../build/trusted/bl32/stm32mp1_dbgmcu.o
 .text.stm32mp1_dbgmcu_freeze_iwdg2
                0x0000000000000000       0x2c /home/ming/tf-a-stm32mp-2.2.r2-r0/tf-a-stm32mp-2.2.r2/../build/trusted/bl32/stm32mp1_dbgmcu.o
 .text          0x0000000000000000        0x0 /home/ming/tf-a-stm32mp-2.2.r2-r0/tf-a-stm32mp-2.2.r2/../build/trusted/bl32/stm32mp1_security.o
 .data          0x0000000000000000        0x0 /home/ming/tf-a-stm32mp-2.2.r2-r0/tf-a-stm32mp-2.2.r2/../build/trusted/bl32/stm32mp1_security.o
 .bss           0x0000000000000000        0x0 /home/ming/tf-a-stm32mp-2.2.r2-r0/tf-a-stm32mp-2.2.r2/../build/trusted/bl32/stm32mp1_security.o
 .text.stm32mp1_arch_security_setup
                0x0000000000000000       0x50 /home/ming/tf-a-stm32mp-2.2.r2-r0/tf-a-stm32mp-2.2.r2/../build/trusted/bl32/stm32mp1_security.o
 .text          0x0000000000000000        0x0 /home/ming/tf-a-stm32mp-2.2.r2-r0/tf-a-stm32mp-2.2.r2/../build/trusted/bl32/stm32mp1_syscfg.o
 .data          0x0000000000000000        0x0 /home/ming/tf-a-stm32mp-2.2.r2-r0/tf-a-stm32mp-2.2.r2/../build/trusted/bl32/stm32mp1_syscfg.o
 .bss           0x0000000000000000        0x0 /home/ming/tf-a-stm32mp-2.2.r2-r0/tf-a-stm32mp-2.2.r2/../build/trusted/bl32/stm32mp1_syscfg.o
 .text.stm32mp1_syscfg_init
                0x0000000000000000       0xa0 /home/ming/tf-a-stm32mp-2.2.r2-r0/tf-a-stm32mp-2.2.r2/../build/trusted/bl32/stm32mp1_syscfg.o
 .rodata.stm32mp1_syscfg_init.str1.1
                0x0000000000000000       0x96 /home/ming/tf-a-stm32mp-2.2.r2-r0/tf-a-stm32mp-2.2.r2/../build/trusted/bl32/stm32mp1_syscfg.o
 .text          0x0000000000000000        0x0 /home/ming/tf-a-stm32mp-2.2.r2-r0/tf-a-stm32mp-2.2.r2/../build/trusted/bl32/entrypoint.o
 .data          0x0000000000000000        0x0 /home/ming/tf-a-stm32mp-2.2.r2-r0/tf-a-stm32mp-2.2.r2/../build/trusted/bl32/entrypoint.o
 .bss           0x0000000000000000        0x0 /home/ming/tf-a-stm32mp-2.2.r2-r0/tf-a-stm32mp-2.2.r2/../build/trusted/bl32/entrypoint.o
 .text          0x0000000000000000        0x0 /home/ming/tf-a-stm32mp-2.2.r2-r0/tf-a-stm32mp-2.2.r2/../build/trusted/bl32/cpu_data.o
 .data          0x0000000000000000        0x0 /home/ming/tf-a-stm32mp-2.2.r2-r0/tf-a-stm32mp-2.2.r2/../build/trusted/bl32/cpu_data.o
 .bss           0x0000000000000000        0x0 /home/ming/tf-a-stm32mp-2.2.r2-r0/tf-a-stm32mp-2.2.r2/../build/trusted/bl32/cpu_data.o
 .text          0x0000000000000000        0x0 /home/ming/tf-a-stm32mp-2.2.r2-r0/tf-a-stm32mp-2.2.r2/../build/trusted/bl32/cpu_helpers.o
 .data          0x0000000000000000        0x0 /home/ming/tf-a-stm32mp-2.2.r2-r0/tf-a-stm32mp-2.2.r2/../build/trusted/bl32/cpu_helpers.o
 .bss           0x0000000000000000        0x0 /home/ming/tf-a-stm32mp-2.2.r2-r0/tf-a-stm32mp-2.2.r2/../build/trusted/bl32/cpu_helpers.o
 .text.asm.cpu_get_rev_var
                0x0000000000000000       0x10 /home/ming/tf-a-stm32mp-2.2.r2-r0/tf-a-stm32mp-2.2.r2/../build/trusted/bl32/cpu_helpers.o
 .text.asm.cpu_rev_var_ls
                0x0000000000000000       0x10 /home/ming/tf-a-stm32mp-2.2.r2-r0/tf-a-stm32mp-2.2.r2/../build/trusted/bl32/cpu_helpers.o
 .text.asm.cpu_rev_var_hs
                0x0000000000000000       0x10 /home/ming/tf-a-stm32mp-2.2.r2-r0/tf-a-stm32mp-2.2.r2/../build/trusted/bl32/cpu_helpers.o
 .text          0x0000000000000000        0x0 /home/ming/tf-a-stm32mp-2.2.r2-r0/tf-a-stm32mp-2.2.r2/../build/trusted/bl32/spinlock.o
 .data          0x0000000000000000        0x0 /home/ming/tf-a-stm32mp-2.2.r2-r0/tf-a-stm32mp-2.2.r2/../build/trusted/bl32/spinlock.o
 .bss           0x0000000000000000        0x0 /home/ming/tf-a-stm32mp-2.2.r2-r0/tf-a-stm32mp-2.2.r2/../build/trusted/bl32/spinlock.o
 .text          0x0000000000000000        0x0 /home/ming/tf-a-stm32mp-2.2.r2-r0/tf-a-stm32mp-2.2.r2/../build/trusted/bl32/psci_helpers.o
 .data          0x0000000000000000        0x0 /home/ming/tf-a-stm32mp-2.2.r2-r0/tf-a-stm32mp-2.2.r2/../build/trusted/bl32/psci_helpers.o
 .bss           0x0000000000000000        0x0 /home/ming/tf-a-stm32mp-2.2.r2-r0/tf-a-stm32mp-2.2.r2/../build/trusted/bl32/psci_helpers.o
 .text          0x0000000000000000        0x0 /home/ming/tf-a-stm32mp-2.2.r2-r0/tf-a-stm32mp-2.2.r2/../build/trusted/bl32/platform_mp_stack.o
 .data          0x0000000000000000        0x0 /home/ming/tf-a-stm32mp-2.2.r2-r0/tf-a-stm32mp-2.2.r2/../build/trusted/bl32/platform_mp_stack.o
 .bss           0x0000000000000000        0x0 /home/ming/tf-a-stm32mp-2.2.r2-r0/tf-a-stm32mp-2.2.r2/../build/trusted/bl32/platform_mp_stack.o
 .text          0x0000000000000000        0x0 /home/ming/tf-a-stm32mp-2.2.r2-r0/tf-a-stm32mp-2.2.r2/../build/trusted/bl32/debug.o
 .data          0x0000000000000000        0x0 /home/ming/tf-a-stm32mp-2.2.r2-r0/tf-a-stm32mp-2.2.r2/../build/trusted/bl32/debug.o
 .bss           0x0000000000000000        0x0 /home/ming/tf-a-stm32mp-2.2.r2-r0/tf-a-stm32mp-2.2.r2/../build/trusted/bl32/debug.o
 .text.asm.report_exception
                0x0000000000000000       0x14 /home/ming/tf-a-stm32mp-2.2.r2-r0/tf-a-stm32mp-2.2.r2/../build/trusted/bl32/debug.o
 .text          0x0000000000000000        0x0 /home/ming/tf-a-stm32mp-2.2.r2-r0/tf-a-stm32mp-2.2.r2/../build/trusted/bl32/cache_helpers.o
 .data          0x0000000000000000        0x0 /home/ming/tf-a-stm32mp-2.2.r2-r0/tf-a-stm32mp-2.2.r2/../build/trusted/bl32/cache_helpers.o
 .bss           0x0000000000000000        0x0 /home/ming/tf-a-stm32mp-2.2.r2-r0/tf-a-stm32mp-2.2.r2/../build/trusted/bl32/cache_helpers.o
 .text.asm.dcsw_op_louis
                0x0000000000000000       0x14 /home/ming/tf-a-stm32mp-2.2.r2-r0/tf-a-stm32mp-2.2.r2/../build/trusted/bl32/cache_helpers.o
 .text.asm.dcsw_op_level2
                0x0000000000000000       0x10 /home/ming/tf-a-stm32mp-2.2.r2-r0/tf-a-stm32mp-2.2.r2/../build/trusted/bl32/cache_helpers.o
 .text.asm.dcsw_op_level3
                0x0000000000000000       0x10 /home/ming/tf-a-stm32mp-2.2.r2-r0/tf-a-stm32mp-2.2.r2/../build/trusted/bl32/cache_helpers.o
 .text          0x0000000000000000        0x0 /home/ming/tf-a-stm32mp-2.2.r2-r0/tf-a-stm32mp-2.2.r2/../build/trusted/bl32/misc_helpers.o
 .data          0x0000000000000000        0x0 /home/ming/tf-a-stm32mp-2.2.r2-r0/tf-a-stm32mp-2.2.r2/../build/trusted/bl32/misc_helpers.o
 .bss           0x0000000000000000        0x0 /home/ming/tf-a-stm32mp-2.2.r2-r0/tf-a-stm32mp-2.2.r2/../build/trusted/bl32/misc_helpers.o
 .text.asm.smc  0x0000000000000000        0x8 /home/ming/tf-a-stm32mp-2.2.r2-r0/tf-a-stm32mp-2.2.r2/../build/trusted/bl32/misc_helpers.o
 .text.asm.memcpy4
                0x0000000000000000       0x50 /home/ming/tf-a-stm32mp-2.2.r2-r0/tf-a-stm32mp-2.2.r2/../build/trusted/bl32/misc_helpers.o
 .rodata.str1.1
                0x0000000000000000       0x1b /home/ming/tf-a-stm32mp-2.2.r2-r0/tf-a-stm32mp-2.2.r2/../build/trusted/bl32/misc_helpers.o
 .text          0x0000000000000000        0x0 /home/ming/tf-a-stm32mp-2.2.r2-r0/tf-a-stm32mp-2.2.r2/../build/trusted/bl32/platform_helpers.o
 .data          0x0000000000000000        0x0 /home/ming/tf-a-stm32mp-2.2.r2-r0/tf-a-stm32mp-2.2.r2/../build/trusted/bl32/platform_helpers.o
 .bss           0x0000000000000000        0x0 /home/ming/tf-a-stm32mp-2.2.r2-r0/tf-a-stm32mp-2.2.r2/../build/trusted/bl32/platform_helpers.o
 .text.asm.plat_report_exception
                0x0000000000000000        0x4 /home/ming/tf-a-stm32mp-2.2.r2-r0/tf-a-stm32mp-2.2.r2/../build/trusted/bl32/platform_helpers.o
 .text.asm.plat_report_undef_inst
                0x0000000000000000        0x4 /home/ming/tf-a-stm32mp-2.2.r2-r0/tf-a-stm32mp-2.2.r2/../build/trusted/bl32/platform_helpers.o
 .text.asm.plat_report_prefetch_abort
                0x0000000000000000        0x4 /home/ming/tf-a-stm32mp-2.2.r2-r0/tf-a-stm32mp-2.2.r2/../build/trusted/bl32/platform_helpers.o
 .text.asm.plat_report_data_abort
                0x0000000000000000        0x4 /home/ming/tf-a-stm32mp-2.2.r2-r0/tf-a-stm32mp-2.2.r2/../build/trusted/bl32/platform_helpers.o
 .text.asm.plat_reset_handler
                0x0000000000000000        0x4 /home/ming/tf-a-stm32mp-2.2.r2-r0/tf-a-stm32mp-2.2.r2/../build/trusted/bl32/platform_helpers.o
 .text.asm.platform_mem_init
                0x0000000000000000        0x4 /home/ming/tf-a-stm32mp-2.2.r2-r0/tf-a-stm32mp-2.2.r2/../build/trusted/bl32/platform_helpers.o
 .text.asm.bl1_plat_prepare_exit
                0x0000000000000000        0x4 /home/ming/tf-a-stm32mp-2.2.r2-r0/tf-a-stm32mp-2.2.r2/../build/trusted/bl32/platform_helpers.o
 .text.asm.plat_panic_handler
                0x0000000000000000        0x4 /home/ming/tf-a-stm32mp-2.2.r2-r0/tf-a-stm32mp-2.2.r2/../build/trusted/bl32/platform_helpers.o
 .text          0x0000000000000000       0x24 /home/ming/tf-a-stm32mp-2.2.r2-r0/tf-a-stm32mp-2.2.r2/../build/trusted/bl32/aeabi_ldivmod.o
 .data          0x0000000000000000        0x0 /home/ming/tf-a-stm32mp-2.2.r2-r0/tf-a-stm32mp-2.2.r2/../build/trusted/bl32/aeabi_ldivmod.o
 .bss           0x0000000000000000        0x0 /home/ming/tf-a-stm32mp-2.2.r2-r0/tf-a-stm32mp-2.2.r2/../build/trusted/bl32/aeabi_ldivmod.o
 .debug_line    0x0000000000000000       0x66 /home/ming/tf-a-stm32mp-2.2.r2-r0/tf-a-stm32mp-2.2.r2/../build/trusted/bl32/aeabi_ldivmod.o
 .debug_info    0x0000000000000000       0x8b /home/ming/tf-a-stm32mp-2.2.r2-r0/tf-a-stm32mp-2.2.r2/../build/trusted/bl32/aeabi_ldivmod.o
 .debug_abbrev  0x0000000000000000       0x14 /home/ming/tf-a-stm32mp-2.2.r2-r0/tf-a-stm32mp-2.2.r2/../build/trusted/bl32/aeabi_ldivmod.o
 .debug_aranges
                0x0000000000000000       0x20 /home/ming/tf-a-stm32mp-2.2.r2-r0/tf-a-stm32mp-2.2.r2/../build/trusted/bl32/aeabi_ldivmod.o
 .ARM.attributes
                0x0000000000000000       0x2d /home/ming/tf-a-stm32mp-2.2.r2-r0/tf-a-stm32mp-2.2.r2/../build/trusted/bl32/aeabi_ldivmod.o
 .data          0x0000000000000000        0x0 /home/ming/tf-a-stm32mp-2.2.r2-r0/tf-a-stm32mp-2.2.r2/../build/trusted/bl32/aeabi_uldivmod.o
 .bss           0x0000000000000000        0x0 /home/ming/tf-a-stm32mp-2.2.r2-r0/tf-a-stm32mp-2.2.r2/../build/trusted/bl32/aeabi_uldivmod.o
 .text          0x0000000000000000        0x0 /home/ming/tf-a-stm32mp-2.2.r2-r0/tf-a-stm32mp-2.2.r2/../build/trusted/bl32/stm32_console.o
 .data          0x0000000000000000        0x0 /home/ming/tf-a-stm32mp-2.2.r2-r0/tf-a-stm32mp-2.2.r2/../build/trusted/bl32/stm32_console.o
 .bss           0x0000000000000000        0x0 /home/ming/tf-a-stm32mp-2.2.r2-r0/tf-a-stm32mp-2.2.r2/../build/trusted/bl32/stm32_console.o
 .text.asm.console_stm32_core_getc
                0x0000000000000000        0x8 /home/ming/tf-a-stm32mp-2.2.r2-r0/tf-a-stm32mp-2.2.r2/../build/trusted/bl32/stm32_console.o
 .text          0x0000000000000000        0x0 /home/ming/tf-a-stm32mp-2.2.r2-r0/tf-a-stm32mp-2.2.r2/../build/trusted/bl32/enable_mmu.o
 .data          0x0000000000000000        0x0 /home/ming/tf-a-stm32mp-2.2.r2-r0/tf-a-stm32mp-2.2.r2/../build/trusted/bl32/enable_mmu.o
 .bss           0x0000000000000000        0x0 /home/ming/tf-a-stm32mp-2.2.r2-r0/tf-a-stm32mp-2.2.r2/../build/trusted/bl32/enable_mmu.o
 .text.asm.enable_mmu_direct_hyp
                0x0000000000000000       0x74 /home/ming/tf-a-stm32mp-2.2.r2-r0/tf-a-stm32mp-2.2.r2/../build/trusted/bl32/enable_mmu.o
 .text          0x0000000000000000        0x0 /home/ming/tf-a-stm32mp-2.2.r2-r0/tf-a-stm32mp-2.2.r2/../build/trusted/bl32/cortex_a7.o
 .bss           0x0000000000000000        0x0 /home/ming/tf-a-stm32mp-2.2.r2-r0/tf-a-stm32mp-2.2.r2/../build/trusted/bl32/cortex_a7.o
 .rodata        0x0000000000000000        0xa /home/ming/tf-a-stm32mp-2.2.r2-r0/tf-a-stm32mp-2.2.r2/../build/trusted/bl32/cortex_a7.o
 .text          0x0000000000000000        0x0 /home/ming/tf-a-stm32mp-2.2.r2-r0/tf-a-stm32mp-2.2.r2/../build/trusted/bl32/stm32mp1_helper.o
 .data          0x0000000000000000        0x0 /home/ming/tf-a-stm32mp-2.2.r2-r0/tf-a-stm32mp-2.2.r2/../build/trusted/bl32/stm32mp1_helper.o
 .bss           0x0000000000000000        0x0 /home/ming/tf-a-stm32mp-2.2.r2-r0/tf-a-stm32mp-2.2.r2/../build/trusted/bl32/stm32mp1_helper.o
 .text.asm.platform_mem_init
                0x0000000000000000        0x4 /home/ming/tf-a-stm32mp-2.2.r2-r0/tf-a-stm32mp-2.2.r2/../build/trusted/bl32/stm32mp1_helper.o
 .text.asm.plat_get_my_entrypoint
                0x0000000000000000        0x8 /home/ming/tf-a-stm32mp-2.2.r2-r0/tf-a-stm32mp-2.2.r2/../build/trusted/bl32/stm32mp1_helper.o
 .text.asm.plat_secondary_cold_boot_setup
                0x0000000000000000        0x4 /home/ming/tf-a-stm32mp-2.2.r2-r0/tf-a-stm32mp-2.2.r2/../build/trusted/bl32/stm32mp1_helper.o
 .text.asm.plat_is_my_cpu_primary
                0x0000000000000000       0x20 /home/ming/tf-a-stm32mp-2.2.r2-r0/tf-a-stm32mp-2.2.r2/../build/trusted/bl32/stm32mp1_helper.o
 .text          0x0000000000000000        0x0 /home/ming/tf-a-stm32mp-2.2.r2-r0/tf-a-stm32mp-2.2.r2/../build/trusted/lib/libfdt.a(fdt.o)
 .data          0x0000000000000000        0x0 /home/ming/tf-a-stm32mp-2.2.r2-r0/tf-a-stm32mp-2.2.r2/../build/trusted/lib/libfdt.a(fdt.o)
 .bss           0x0000000000000000        0x0 /home/ming/tf-a-stm32mp-2.2.r2-r0/tf-a-stm32mp-2.2.r2/../build/trusted/lib/libfdt.a(fdt.o)
 .text.fdt_find_string_
                0x0000000000000000       0x30 /home/ming/tf-a-stm32mp-2.2.r2-r0/tf-a-stm32mp-2.2.r2/../build/trusted/lib/libfdt.a(fdt.o)
 .text.fdt_move
                0x0000000000000000       0x2e /home/ming/tf-a-stm32mp-2.2.r2-r0/tf-a-stm32mp-2.2.r2/../build/trusted/lib/libfdt.a(fdt.o)
 .text          0x0000000000000000        0x0 /home/ming/tf-a-stm32mp-2.2.r2-r0/tf-a-stm32mp-2.2.r2/../build/trusted/lib/libfdt.a(fdt_addresses.o)
 .data          0x0000000000000000        0x0 /home/ming/tf-a-stm32mp-2.2.r2-r0/tf-a-stm32mp-2.2.r2/../build/trusted/lib/libfdt.a(fdt_addresses.o)
 .bss           0x0000000000000000        0x0 /home/ming/tf-a-stm32mp-2.2.r2-r0/tf-a-stm32mp-2.2.r2/../build/trusted/lib/libfdt.a(fdt_addresses.o)
 .text.fdt_size_cells
                0x0000000000000000       0x48 /home/ming/tf-a-stm32mp-2.2.r2-r0/tf-a-stm32mp-2.2.r2/../build/trusted/lib/libfdt.a(fdt_addresses.o)
 .rodata.fdt_size_cells.str1.1
                0x0000000000000000        0xc /home/ming/tf-a-stm32mp-2.2.r2-r0/tf-a-stm32mp-2.2.r2/../build/trusted/lib/libfdt.a(fdt_addresses.o)
 .text          0x0000000000000000        0x0 /home/ming/tf-a-stm32mp-2.2.r2-r0/tf-a-stm32mp-2.2.r2/../build/trusted/lib/libfdt.a(fdt_ro.o)
 .data          0x0000000000000000        0x0 /home/ming/tf-a-stm32mp-2.2.r2-r0/tf-a-stm32mp-2.2.r2/../build/trusted/lib/libfdt.a(fdt_ro.o)
 .bss           0x0000000000000000        0x0 /home/ming/tf-a-stm32mp-2.2.r2-r0/tf-a-stm32mp-2.2.r2/../build/trusted/lib/libfdt.a(fdt_ro.o)
 .text.fdt64_to_cpu
                0x0000000000000000        0x8 /home/ming/tf-a-stm32mp-2.2.r2-r0/tf-a-stm32mp-2.2.r2/../build/trusted/lib/libfdt.a(fdt_ro.o)
 .text.fdt_get_mem_rsv
                0x0000000000000000       0x3a /home/ming/tf-a-stm32mp-2.2.r2-r0/tf-a-stm32mp-2.2.r2/../build/trusted/lib/libfdt.a(fdt_ro.o)
 .text.fdt_num_mem_rsv
                0x0000000000000000       0x28 /home/ming/tf-a-stm32mp-2.2.r2-r0/tf-a-stm32mp-2.2.r2/../build/trusted/lib/libfdt.a(fdt_ro.o)
 .text.fdt_get_property_by_offset
                0x0000000000000000       0x24 /home/ming/tf-a-stm32mp-2.2.r2-r0/tf-a-stm32mp-2.2.r2/../build/trusted/lib/libfdt.a(fdt_ro.o)
 .text.fdt_get_property_namelen
                0x0000000000000000       0x30 /home/ming/tf-a-stm32mp-2.2.r2-r0/tf-a-stm32mp-2.2.r2/../build/trusted/lib/libfdt.a(fdt_ro.o)
 .text.fdt_get_property
                0x0000000000000000       0x22 /home/ming/tf-a-stm32mp-2.2.r2-r0/tf-a-stm32mp-2.2.r2/../build/trusted/lib/libfdt.a(fdt_ro.o)
 .text.fdt_getprop_by_offset
                0x0000000000000000       0x4a /home/ming/tf-a-stm32mp-2.2.r2-r0/tf-a-stm32mp-2.2.r2/../build/trusted/lib/libfdt.a(fdt_ro.o)
 .text.fdt_get_max_phandle
                0x0000000000000000       0x42 /home/ming/tf-a-stm32mp-2.2.r2-r0/tf-a-stm32mp-2.2.r2/../build/trusted/lib/libfdt.a(fdt_ro.o)
 .text.fdt_get_alias
                0x0000000000000000       0x1a /home/ming/tf-a-stm32mp-2.2.r2-r0/tf-a-stm32mp-2.2.r2/../build/trusted/lib/libfdt.a(fdt_ro.o)
 .text.fdt_get_path
                0x0000000000000000       0xbc /home/ming/tf-a-stm32mp-2.2.r2-r0/tf-a-stm32mp-2.2.r2/../build/trusted/lib/libfdt.a(fdt_ro.o)
 .text.fdt_node_offset_by_prop_value
                0x0000000000000000       0x56 /home/ming/tf-a-stm32mp-2.2.r2-r0/tf-a-stm32mp-2.2.r2/../build/trusted/lib/libfdt.a(fdt_ro.o)
 .text.fdt_stringlist_count
                0x0000000000000000       0x38 /home/ming/tf-a-stm32mp-2.2.r2-r0/tf-a-stm32mp-2.2.r2/../build/trusted/lib/libfdt.a(fdt_ro.o)
 .text.fdt_stringlist_get
                0x0000000000000000       0x60 /home/ming/tf-a-stm32mp-2.2.r2-r0/tf-a-stm32mp-2.2.r2/../build/trusted/lib/libfdt.a(fdt_ro.o)
 .text          0x0000000000000000        0x0 /home/ming/tf-a-stm32mp-2.2.r2-r0/tf-a-stm32mp-2.2.r2/../build/trusted/lib/libc.a(assert.o)
 .data          0x0000000000000000        0x0 /home/ming/tf-a-stm32mp-2.2.r2-r0/tf-a-stm32mp-2.2.r2/../build/trusted/lib/libc.a(assert.o)
 .bss           0x0000000000000000        0x0 /home/ming/tf-a-stm32mp-2.2.r2-r0/tf-a-stm32mp-2.2.r2/../build/trusted/lib/libc.a(assert.o)
 .text          0x0000000000000000        0x0 /home/ming/tf-a-stm32mp-2.2.r2-r0/tf-a-stm32mp-2.2.r2/../build/trusted/lib/libc.a(memchr.o)
 .data          0x0000000000000000        0x0 /home/ming/tf-a-stm32mp-2.2.r2-r0/tf-a-stm32mp-2.2.r2/../build/trusted/lib/libc.a(memchr.o)
 .bss           0x0000000000000000        0x0 /home/ming/tf-a-stm32mp-2.2.r2-r0/tf-a-stm32mp-2.2.r2/../build/trusted/lib/libc.a(memchr.o)
 .text          0x0000000000000000        0x0 /home/ming/tf-a-stm32mp-2.2.r2-r0/tf-a-stm32mp-2.2.r2/../build/trusted/lib/libc.a(memcmp.o)
 .data          0x0000000000000000        0x0 /home/ming/tf-a-stm32mp-2.2.r2-r0/tf-a-stm32mp-2.2.r2/../build/trusted/lib/libc.a(memcmp.o)
 .bss           0x0000000000000000        0x0 /home/ming/tf-a-stm32mp-2.2.r2-r0/tf-a-stm32mp-2.2.r2/../build/trusted/lib/libc.a(memcmp.o)
 .text          0x0000000000000000        0x0 /home/ming/tf-a-stm32mp-2.2.r2-r0/tf-a-stm32mp-2.2.r2/../build/trusted/lib/libc.a(memcpy.o)
 .data          0x0000000000000000        0x0 /home/ming/tf-a-stm32mp-2.2.r2-r0/tf-a-stm32mp-2.2.r2/../build/trusted/lib/libc.a(memcpy.o)
 .bss           0x0000000000000000        0x0 /home/ming/tf-a-stm32mp-2.2.r2-r0/tf-a-stm32mp-2.2.r2/../build/trusted/lib/libc.a(memcpy.o)
 .text          0x0000000000000000        0x0 /home/ming/tf-a-stm32mp-2.2.r2-r0/tf-a-stm32mp-2.2.r2/../build/trusted/lib/libc.a(memmove.o)
 .data          0x0000000000000000        0x0 /home/ming/tf-a-stm32mp-2.2.r2-r0/tf-a-stm32mp-2.2.r2/../build/trusted/lib/libc.a(memmove.o)
 .bss           0x0000000000000000        0x0 /home/ming/tf-a-stm32mp-2.2.r2-r0/tf-a-stm32mp-2.2.r2/../build/trusted/lib/libc.a(memmove.o)
 .text          0x0000000000000000        0x0 /home/ming/tf-a-stm32mp-2.2.r2-r0/tf-a-stm32mp-2.2.r2/../build/trusted/lib/libc.a(memset.o)
 .data          0x0000000000000000        0x0 /home/ming/tf-a-stm32mp-2.2.r2-r0/tf-a-stm32mp-2.2.r2/../build/trusted/lib/libc.a(memset.o)
 .bss           0x0000000000000000        0x0 /home/ming/tf-a-stm32mp-2.2.r2-r0/tf-a-stm32mp-2.2.r2/../build/trusted/lib/libc.a(memset.o)
 .text          0x0000000000000000        0x0 /home/ming/tf-a-stm32mp-2.2.r2-r0/tf-a-stm32mp-2.2.r2/../build/trusted/lib/libc.a(printf.o)
 .data          0x0000000000000000        0x0 /home/ming/tf-a-stm32mp-2.2.r2-r0/tf-a-stm32mp-2.2.r2/../build/trusted/lib/libc.a(printf.o)
 .bss           0x0000000000000000        0x0 /home/ming/tf-a-stm32mp-2.2.r2-r0/tf-a-stm32mp-2.2.r2/../build/trusted/lib/libc.a(printf.o)
 .text          0x0000000000000000        0x0 /home/ming/tf-a-stm32mp-2.2.r2-r0/tf-a-stm32mp-2.2.r2/../build/trusted/lib/libc.a(putchar.o)
 .data          0x0000000000000000        0x0 /home/ming/tf-a-stm32mp-2.2.r2-r0/tf-a-stm32mp-2.2.r2/../build/trusted/lib/libc.a(putchar.o)
 .bss           0x0000000000000000        0x0 /home/ming/tf-a-stm32mp-2.2.r2-r0/tf-a-stm32mp-2.2.r2/../build/trusted/lib/libc.a(putchar.o)
 .text          0x0000000000000000        0x0 /home/ming/tf-a-stm32mp-2.2.r2-r0/tf-a-stm32mp-2.2.r2/../build/trusted/lib/libc.a(snprintf.o)
 .data          0x0000000000000000        0x0 /home/ming/tf-a-stm32mp-2.2.r2-r0/tf-a-stm32mp-2.2.r2/../build/trusted/lib/libc.a(snprintf.o)
 .bss           0x0000000000000000        0x0 /home/ming/tf-a-stm32mp-2.2.r2-r0/tf-a-stm32mp-2.2.r2/../build/trusted/lib/libc.a(snprintf.o)
 .text.unsigned_dec_print
                0x0000000000000000       0x48 /home/ming/tf-a-stm32mp-2.2.r2-r0/tf-a-stm32mp-2.2.r2/../build/trusted/lib/libc.a(snprintf.o)
 .text.snprintf
                0x0000000000000000       0xe0 /home/ming/tf-a-stm32mp-2.2.r2-r0/tf-a-stm32mp-2.2.r2/../build/trusted/lib/libc.a(snprintf.o)
 .rodata.snprintf.str1.1
                0x0000000000000000       0x39 /home/ming/tf-a-stm32mp-2.2.r2-r0/tf-a-stm32mp-2.2.r2/../build/trusted/lib/libc.a(snprintf.o)
 .debug_info    0x0000000000000000      0x34a /home/ming/tf-a-stm32mp-2.2.r2-r0/tf-a-stm32mp-2.2.r2/../build/trusted/lib/libc.a(snprintf.o)
 .debug_abbrev  0x0000000000000000      0x1f8 /home/ming/tf-a-stm32mp-2.2.r2-r0/tf-a-stm32mp-2.2.r2/../build/trusted/lib/libc.a(snprintf.o)
 .debug_loc     0x0000000000000000      0x1ab /home/ming/tf-a-stm32mp-2.2.r2-r0/tf-a-stm32mp-2.2.r2/../build/trusted/lib/libc.a(snprintf.o)
 .debug_aranges
                0x0000000000000000       0x28 /home/ming/tf-a-stm32mp-2.2.r2-r0/tf-a-stm32mp-2.2.r2/../build/trusted/lib/libc.a(snprintf.o)
 .debug_ranges  0x0000000000000000       0x30 /home/ming/tf-a-stm32mp-2.2.r2-r0/tf-a-stm32mp-2.2.r2/../build/trusted/lib/libc.a(snprintf.o)
 .debug_line    0x0000000000000000      0x194 /home/ming/tf-a-stm32mp-2.2.r2-r0/tf-a-stm32mp-2.2.r2/../build/trusted/lib/libc.a(snprintf.o)
 .debug_str     0x0000000000000000      0x28c /home/ming/tf-a-stm32mp-2.2.r2-r0/tf-a-stm32mp-2.2.r2/../build/trusted/lib/libc.a(snprintf.o)
 .comment       0x0000000000000000       0x25 /home/ming/tf-a-stm32mp-2.2.r2-r0/tf-a-stm32mp-2.2.r2/../build/trusted/lib/libc.a(snprintf.o)
 .note.GNU-stack
                0x0000000000000000        0x0 /home/ming/tf-a-stm32mp-2.2.r2-r0/tf-a-stm32mp-2.2.r2/../build/trusted/lib/libc.a(snprintf.o)
 .debug_frame   0x0000000000000000       0x6c /home/ming/tf-a-stm32mp-2.2.r2-r0/tf-a-stm32mp-2.2.r2/../build/trusted/lib/libc.a(snprintf.o)
 .ARM.attributes
                0x0000000000000000       0x39 /home/ming/tf-a-stm32mp-2.2.r2-r0/tf-a-stm32mp-2.2.r2/../build/trusted/lib/libc.a(snprintf.o)
 .text          0x0000000000000000        0x0 /home/ming/tf-a-stm32mp-2.2.r2-r0/tf-a-stm32mp-2.2.r2/../build/trusted/lib/libc.a(strchr.o)
 .data          0x0000000000000000        0x0 /home/ming/tf-a-stm32mp-2.2.r2-r0/tf-a-stm32mp-2.2.r2/../build/trusted/lib/libc.a(strchr.o)
 .bss           0x0000000000000000        0x0 /home/ming/tf-a-stm32mp-2.2.r2-r0/tf-a-stm32mp-2.2.r2/../build/trusted/lib/libc.a(strchr.o)
 .text          0x0000000000000000        0x0 /home/ming/tf-a-stm32mp-2.2.r2-r0/tf-a-stm32mp-2.2.r2/../build/trusted/lib/libc.a(strcmp.o)
 .data          0x0000000000000000        0x0 /home/ming/tf-a-stm32mp-2.2.r2-r0/tf-a-stm32mp-2.2.r2/../build/trusted/lib/libc.a(strcmp.o)
 .bss           0x0000000000000000        0x0 /home/ming/tf-a-stm32mp-2.2.r2-r0/tf-a-stm32mp-2.2.r2/../build/trusted/lib/libc.a(strcmp.o)
 .text          0x0000000000000000        0x0 /home/ming/tf-a-stm32mp-2.2.r2-r0/tf-a-stm32mp-2.2.r2/../build/trusted/lib/libc.a(strlcpy.o)
 .data          0x0000000000000000        0x0 /home/ming/tf-a-stm32mp-2.2.r2-r0/tf-a-stm32mp-2.2.r2/../build/trusted/lib/libc.a(strlcpy.o)
 .bss           0x0000000000000000        0x0 /home/ming/tf-a-stm32mp-2.2.r2-r0/tf-a-stm32mp-2.2.r2/../build/trusted/lib/libc.a(strlcpy.o)
 .text          0x0000000000000000        0x0 /home/ming/tf-a-stm32mp-2.2.r2-r0/tf-a-stm32mp-2.2.r2/../build/trusted/lib/libc.a(strlen.o)
 .data          0x0000000000000000        0x0 /home/ming/tf-a-stm32mp-2.2.r2-r0/tf-a-stm32mp-2.2.r2/../build/trusted/lib/libc.a(strlen.o)
 .bss           0x0000000000000000        0x0 /home/ming/tf-a-stm32mp-2.2.r2-r0/tf-a-stm32mp-2.2.r2/../build/trusted/lib/libc.a(strlen.o)
 .text          0x0000000000000000        0x0 /home/ming/tf-a-stm32mp-2.2.r2-r0/tf-a-stm32mp-2.2.r2/../build/trusted/lib/libc.a(strncmp.o)
 .data          0x0000000000000000        0x0 /home/ming/tf-a-stm32mp-2.2.r2-r0/tf-a-stm32mp-2.2.r2/../build/trusted/lib/libc.a(strncmp.o)
 .bss           0x0000000000000000        0x0 /home/ming/tf-a-stm32mp-2.2.r2-r0/tf-a-stm32mp-2.2.r2/../build/trusted/lib/libc.a(strncmp.o)
 .text          0x0000000000000000        0x0 /home/ming/tf-a-stm32mp-2.2.r2-r0/tf-a-stm32mp-2.2.r2/../build/trusted/lib/libc.a(strnlen.o)
 .data          0x0000000000000000        0x0 /home/ming/tf-a-stm32mp-2.2.r2-r0/tf-a-stm32mp-2.2.r2/../build/trusted/lib/libc.a(strnlen.o)
 .bss           0x0000000000000000        0x0 /home/ming/tf-a-stm32mp-2.2.r2-r0/tf-a-stm32mp-2.2.r2/../build/trusted/lib/libc.a(strnlen.o)
 .text          0x0000000000000000        0x0 /home/ming/tf-a-stm32mp-2.2.r2-r0/tf-a-stm32mp-2.2.r2/../build/trusted/lib/libc.a(strrchr.o)
 .data          0x0000000000000000        0x0 /home/ming/tf-a-stm32mp-2.2.r2-r0/tf-a-stm32mp-2.2.r2/../build/trusted/lib/libc.a(strrchr.o)
 .bss           0x0000000000000000        0x0 /home/ming/tf-a-stm32mp-2.2.r2-r0/tf-a-stm32mp-2.2.r2/../build/trusted/lib/libc.a(strrchr.o)

Memory Configuration

Name             Origin             Length             Attributes
RAM              0x000000002ffeb000 0x0000000000014000 xrw
*default*        0x0000000000000000 0xffffffffffffffff

Linker script and memory map

                0x000000002ffeb000                . = 0x2ffeb000
                0x0000000000000001                ASSERT ((. == ALIGN (0x1000)), BL32_BASE address is not aligned on a page boundary.)

ro              0x000000002ffeb000    0x10000
                0x000000002ffeb000                __RO_START__ = .
 *entrypoint.o(.text*)
 .text.asm.sp_min_entrypoint
                0x000000002ffeb000      0x160 /home/ming/tf-a-stm32mp-2.2.r2-r0/tf-a-stm32mp-2.2.r2/../build/trusted/bl32/entrypoint.o
                0x000000002ffeb000                sp_min_entrypoint
 .text.asm.sp_min_handle_smc
                0x000000002ffeb160       0xcc /home/ming/tf-a-stm32mp-2.2.r2-r0/tf-a-stm32mp-2.2.r2/../build/trusted/bl32/entrypoint.o
                0x000000002ffeb160                sp_min_handle_smc
 .text.asm.sp_min_handle_fiq
                0x000000002ffeb22c       0xb4 /home/ming/tf-a-stm32mp-2.2.r2-r0/tf-a-stm32mp-2.2.r2/../build/trusted/bl32/entrypoint.o
                0x000000002ffeb22c                sp_min_handle_fiq
 .text.asm.sp_min_warm_entrypoint
                0x000000002ffeb2e0       0xe0 /home/ming/tf-a-stm32mp-2.2.r2-r0/tf-a-stm32mp-2.2.r2/../build/trusted/bl32/entrypoint.o
                0x000000002ffeb2e0                sp_min_warm_entrypoint
 .text.asm.sp_min_exit
                0x000000002ffeb3c0       0x84 /home/ming/tf-a-stm32mp-2.2.r2-r0/tf-a-stm32mp-2.2.r2/../build/trusted/bl32/entrypoint.o
 *(.text*)
 .text.smc_get_ctx
                0x000000002ffeb444       0x24 /home/ming/tf-a-stm32mp-2.2.r2-r0/tf-a-stm32mp-2.2.r2/../build/trusted/bl32/sp_min_main.o
                0x000000002ffeb444                smc_get_ctx
 .text.smc_get_next_ctx
                0x000000002ffeb468       0x14 /home/ming/tf-a-stm32mp-2.2.r2-r0/tf-a-stm32mp-2.2.r2/../build/trusted/bl32/sp_min_main.o
                0x000000002ffeb468                smc_get_next_ctx
 .text.cm_get_context
                0x000000002ffeb47c       0x24 /home/ming/tf-a-stm32mp-2.2.r2-r0/tf-a-stm32mp-2.2.r2/../build/trusted/bl32/sp_min_main.o
                0x000000002ffeb47c                cm_get_context
 .text.cm_get_context_by_index
                0x000000002ffeb4a0       0x20 /home/ming/tf-a-stm32mp-2.2.r2-r0/tf-a-stm32mp-2.2.r2/../build/trusted/bl32/sp_min_main.o
                0x000000002ffeb4a0                cm_get_context_by_index
 .text.cm_set_context_by_index
                0x000000002ffeb4c0       0x20 /home/ming/tf-a-stm32mp-2.2.r2-r0/tf-a-stm32mp-2.2.r2/../build/trusted/bl32/sp_min_main.o
                0x000000002ffeb4c0                cm_set_context_by_index
 .text.get_arm_std_svc_args
                0x000000002ffeb4e0       0x20 /home/ming/tf-a-stm32mp-2.2.r2-r0/tf-a-stm32mp-2.2.r2/../build/trusted/bl32/sp_min_main.o
                0x000000002ffeb4e0                get_arm_std_svc_args
 .text.sp_min_main
                0x000000002ffeb500       0xd8 /home/ming/tf-a-stm32mp-2.2.r2-r0/tf-a-stm32mp-2.2.r2/../build/trusted/bl32/sp_min_main.o
                0x000000002ffeb500                sp_min_main
 .text.sp_min_warm_boot
                0x000000002ffeb5d8       0x84 /home/ming/tf-a-stm32mp-2.2.r2-r0/tf-a-stm32mp-2.2.r2/../build/trusted/bl32/sp_min_main.o
                0x000000002ffeb5d8                sp_min_warm_boot
 .text.sp_min_fiq
                0x000000002ffeb65c       0x16 /home/ming/tf-a-stm32mp-2.2.r2-r0/tf-a-stm32mp-2.2.r2/../build/trusted/bl32/sp_min_main.o
                0x000000002ffeb65c                sp_min_fiq
 *fill*         0x000000002ffeb672        0x2 
 .text.handle_runtime_svc
                0x000000002ffeb674       0x60 /home/ming/tf-a-stm32mp-2.2.r2-r0/tf-a-stm32mp-2.2.r2/../build/trusted/bl32/runtime_svc.o
                0x000000002ffeb674                handle_runtime_svc
 .text.runtime_svc_init
                0x000000002ffeb6d4       0xec /home/ming/tf-a-stm32mp-2.2.r2-r0/tf-a-stm32mp-2.2.r2/../build/trusted/bl32/runtime_svc.o
                0x000000002ffeb6d4                runtime_svc_init
 .text.sp_min_plat_runtime_setup
                0x000000002ffeb7c0        0x6 /home/ming/tf-a-stm32mp-2.2.r2-r0/tf-a-stm32mp-2.2.r2/../build/trusted/bl32/plat_sp_min_common.o
                0x000000002ffeb7c0                sp_min_plat_runtime_setup
 *fill*         0x000000002ffeb7c6        0x2 
 .text.std_svc_smc_handler
                0x000000002ffeb7c8       0x7c /home/ming/tf-a-stm32mp-2.2.r2-r0/tf-a-stm32mp-2.2.r2/../build/trusted/bl32/std_svc_setup.o
 .text.std_svc_setup
                0x000000002ffeb844       0x24 /home/ming/tf-a-stm32mp-2.2.r2-r0/tf-a-stm32mp-2.2.r2/../build/trusted/bl32/std_svc_setup.o
 .text.cm_setup_context
                0x000000002ffeb868       0x78 /home/ming/tf-a-stm32mp-2.2.r2-r0/tf-a-stm32mp-2.2.r2/../build/trusted/bl32/context_mgmt.o
                0x000000002ffeb868                cm_setup_context
 .text.cm_init_context_by_index
                0x000000002ffeb8e0       0x18 /home/ming/tf-a-stm32mp-2.2.r2-r0/tf-a-stm32mp-2.2.r2/../build/trusted/bl32/context_mgmt.o
                0x000000002ffeb8e0                cm_init_context_by_index
 .text.cm_init_my_context
                0x000000002ffeb8f8       0x18 /home/ming/tf-a-stm32mp-2.2.r2-r0/tf-a-stm32mp-2.2.r2/../build/trusted/bl32/context_mgmt.o
                0x000000002ffeb8f8                cm_init_my_context
 .text.cm_prepare_el3_exit
                0x000000002ffeb910       0xb4 /home/ming/tf-a-stm32mp-2.2.r2-r0/tf-a-stm32mp-2.2.r2/../build/trusted/bl32/context_mgmt.o
                0x000000002ffeb910                cm_prepare_el3_exit
 .text.errata_needs_reporting
                0x000000002ffeb9c4       0x2a /home/ming/tf-a-stm32mp-2.2.r2-r0/tf-a-stm32mp-2.2.r2/../build/trusted/bl32/errata_report.o
                0x000000002ffeb9c4                errata_needs_reporting
 *fill*         0x000000002ffeb9ee        0x2 
 .text.psci_do_cpu_off
                0x000000002ffeb9f0       0xb8 /home/ming/tf-a-stm32mp-2.2.r2-r0/tf-a-stm32mp-2.2.r2/../build/trusted/bl32/psci_off.o
                0x000000002ffeb9f0                psci_do_cpu_off
 .text.psci_cpu_on_start
                0x000000002ffebaa8      0x128 /home/ming/tf-a-stm32mp-2.2.r2-r0/tf-a-stm32mp-2.2.r2/../build/trusted/bl32/psci_on.o
                0x000000002ffebaa8                psci_cpu_on_start
 .text.psci_cpu_on_finish
                0x000000002ffebbd0       0x9c /home/ming/tf-a-stm32mp-2.2.r2-r0/tf-a-stm32mp-2.2.r2/../build/trusted/bl32/psci_on.o
                0x000000002ffebbd0                psci_cpu_on_finish
 .text.psci_cpu_suspend_start
                0x000000002ffebc6c      0x124 /home/ming/tf-a-stm32mp-2.2.r2-r0/tf-a-stm32mp-2.2.r2/../build/trusted/bl32/psci_suspend.o
                0x000000002ffebc6c                psci_cpu_suspend_start
 .text.psci_cpu_suspend_finish
                0x000000002ffebd90       0x8c /home/ming/tf-a-stm32mp-2.2.r2-r0/tf-a-stm32mp-2.2.r2/../build/trusted/bl32/psci_suspend.o
                0x000000002ffebd90                psci_cpu_suspend_finish
 .text.psci_validate_power_state
                0x000000002ffebe1c       0x30 /home/ming/tf-a-stm32mp-2.2.r2-r0/tf-a-stm32mp-2.2.r2/../build/trusted/bl32/psci_common.o
                0x000000002ffebe1c                psci_validate_power_state
 .text.psci_query_sys_suspend_pwrstate
                0x000000002ffebe4c       0x20 /home/ming/tf-a-stm32mp-2.2.r2-r0/tf-a-stm32mp-2.2.r2/../build/trusted/bl32/psci_common.o
                0x000000002ffebe4c                psci_query_sys_suspend_pwrstate
 .text.psci_is_last_on_cpu
                0x000000002ffebe6c       0x50 /home/ming/tf-a-stm32mp-2.2.r2-r0/tf-a-stm32mp-2.2.r2/../build/trusted/bl32/psci_common.o
                0x000000002ffebe6c                psci_is_last_on_cpu
 .text.psci_init_req_local_pwr_states
                0x000000002ffebebc       0x10 /home/ming/tf-a-stm32mp-2.2.r2-r0/tf-a-stm32mp-2.2.r2/../build/trusted/bl32/psci_common.o
                0x000000002ffebebc                psci_init_req_local_pwr_states
 .text.psci_get_target_local_pwr_states
                0x000000002ffebecc       0x54 /home/ming/tf-a-stm32mp-2.2.r2-r0/tf-a-stm32mp-2.2.r2/../build/trusted/bl32/psci_common.o
                0x000000002ffebecc                psci_get_target_local_pwr_states
 .text.psci_get_parent_pwr_domain_nodes
                0x000000002ffebf20       0x2c /home/ming/tf-a-stm32mp-2.2.r2-r0/tf-a-stm32mp-2.2.r2/../build/trusted/bl32/psci_common.o
                0x000000002ffebf20                psci_get_parent_pwr_domain_nodes
 .text.psci_set_pwr_domains_to_run
                0x000000002ffebf4c       0x84 /home/ming/tf-a-stm32mp-2.2.r2-r0/tf-a-stm32mp-2.2.r2/../build/trusted/bl32/psci_common.o
                0x000000002ffebf4c                psci_set_pwr_domains_to_run
 .text.psci_do_state_coordination
                0x000000002ffebfd0       0xbc /home/ming/tf-a-stm32mp-2.2.r2-r0/tf-a-stm32mp-2.2.r2/../build/trusted/bl32/psci_common.o
                0x000000002ffebfd0                psci_do_state_coordination
 .text.psci_find_max_off_lvl
                0x000000002ffec08c       0x18 /home/ming/tf-a-stm32mp-2.2.r2-r0/tf-a-stm32mp-2.2.r2/../build/trusted/bl32/psci_common.o
                0x000000002ffec08c                psci_find_max_off_lvl
 .text.psci_find_target_suspend_lvl
                0x000000002ffec0a4       0x14 /home/ming/tf-a-stm32mp-2.2.r2-r0/tf-a-stm32mp-2.2.r2/../build/trusted/bl32/psci_common.o
                0x000000002ffec0a4                psci_find_target_suspend_lvl
 .text.psci_validate_suspend_req
                0x000000002ffec0b8       0x56 /home/ming/tf-a-stm32mp-2.2.r2-r0/tf-a-stm32mp-2.2.r2/../build/trusted/bl32/psci_common.o
                0x000000002ffec0b8                psci_validate_suspend_req
 *fill*         0x000000002ffec10e        0x2 
 .text.psci_acquire_pwr_domain_locks
                0x000000002ffec110       0x30 /home/ming/tf-a-stm32mp-2.2.r2-r0/tf-a-stm32mp-2.2.r2/../build/trusted/bl32/psci_common.o
                0x000000002ffec110                psci_acquire_pwr_domain_locks
 .text.psci_release_pwr_domain_locks
                0x000000002ffec140       0x30 /home/ming/tf-a-stm32mp-2.2.r2-r0/tf-a-stm32mp-2.2.r2/../build/trusted/bl32/psci_common.o
                0x000000002ffec140                psci_release_pwr_domain_locks
 .text.psci_validate_mpidr
                0x000000002ffec170       0x12 /home/ming/tf-a-stm32mp-2.2.r2-r0/tf-a-stm32mp-2.2.r2/../build/trusted/bl32/psci_common.o
                0x000000002ffec170                psci_validate_mpidr
 *fill*         0x000000002ffec182        0x2 
 .text.psci_validate_entry_point
                0x000000002ffec184       0x9c /home/ming/tf-a-stm32mp-2.2.r2-r0/tf-a-stm32mp-2.2.r2/../build/trusted/bl32/psci_common.o
                0x000000002ffec184                psci_validate_entry_point
 .text.psci_warmboot_entrypoint
                0x000000002ffec220       0x8c /home/ming/tf-a-stm32mp-2.2.r2-r0/tf-a-stm32mp-2.2.r2/../build/trusted/bl32/psci_common.o
                0x000000002ffec220                psci_warmboot_entrypoint
 .text.psci_spd_migrate_info
                0x000000002ffec2ac       0x2c /home/ming/tf-a-stm32mp-2.2.r2-r0/tf-a-stm32mp-2.2.r2/../build/trusted/bl32/psci_common.o
                0x000000002ffec2ac                psci_spd_migrate_info
 .text.psci_print_power_domain_map
                0x000000002ffec2d8       0xb8 /home/ming/tf-a-stm32mp-2.2.r2-r0/tf-a-stm32mp-2.2.r2/../build/trusted/bl32/psci_common.o
                0x000000002ffec2d8                psci_print_power_domain_map
 .text.psci_do_pwrdown_sequence
                0x000000002ffec390        0x4 /home/ming/tf-a-stm32mp-2.2.r2-r0/tf-a-stm32mp-2.2.r2/../build/trusted/bl32/psci_common.o
                0x000000002ffec390                psci_do_pwrdown_sequence
 .text.psci_cpu_on
                0x000000002ffec394       0x2e /home/ming/tf-a-stm32mp-2.2.r2-r0/tf-a-stm32mp-2.2.r2/../build/trusted/bl32/psci_main.o
                0x000000002ffec394                psci_cpu_on
 *fill*         0x000000002ffec3c2        0x2 
 .text.psci_cpu_suspend
                0x000000002ffec3c4       0xbc /home/ming/tf-a-stm32mp-2.2.r2-r0/tf-a-stm32mp-2.2.r2/../build/trusted/bl32/psci_main.o
                0x000000002ffec3c4                psci_cpu_suspend
 .text.psci_system_suspend
                0x000000002ffec480       0x6c /home/ming/tf-a-stm32mp-2.2.r2-r0/tf-a-stm32mp-2.2.r2/../build/trusted/bl32/psci_main.o
                0x000000002ffec480                psci_system_suspend
 .text.psci_cpu_off
                0x000000002ffec4ec       0x1c /home/ming/tf-a-stm32mp-2.2.r2-r0/tf-a-stm32mp-2.2.r2/../build/trusted/bl32/psci_main.o
                0x000000002ffec4ec                psci_cpu_off
 .text.psci_affinity_info
                0x000000002ffec508       0x2a /home/ming/tf-a-stm32mp-2.2.r2-r0/tf-a-stm32mp-2.2.r2/../build/trusted/bl32/psci_main.o
                0x000000002ffec508                psci_affinity_info
 *fill*         0x000000002ffec532        0x2 
 .text.psci_migrate
                0x000000002ffec534       0x6c /home/ming/tf-a-stm32mp-2.2.r2-r0/tf-a-stm32mp-2.2.r2/../build/trusted/bl32/psci_main.o
                0x000000002ffec534                psci_migrate
 .text.psci_migrate_info_type
                0x000000002ffec5a0        0xe /home/ming/tf-a-stm32mp-2.2.r2-r0/tf-a-stm32mp-2.2.r2/../build/trusted/bl32/psci_main.o
                0x000000002ffec5a0                psci_migrate_info_type
 .text.psci_migrate_info_up_cpu
                0x000000002ffec5ae       0x18 /home/ming/tf-a-stm32mp-2.2.r2-r0/tf-a-stm32mp-2.2.r2/../build/trusted/bl32/psci_main.o
                0x000000002ffec5ae                psci_migrate_info_up_cpu
 *fill*         0x000000002ffec5c6        0x2 
 .text.psci_node_hw_state
                0x000000002ffec5c8       0x48 /home/ming/tf-a-stm32mp-2.2.r2-r0/tf-a-stm32mp-2.2.r2/../build/trusted/bl32/psci_main.o
                0x000000002ffec5c8                psci_node_hw_state
 .text.psci_features
                0x000000002ffec610       0x5c /home/ming/tf-a-stm32mp-2.2.r2-r0/tf-a-stm32mp-2.2.r2/../build/trusted/bl32/psci_main.o
                0x000000002ffec610                psci_features
 .text.psci_smc_handler
                0x000000002ffec66c      0x134 /home/ming/tf-a-stm32mp-2.2.r2-r0/tf-a-stm32mp-2.2.r2/../build/trusted/bl32/psci_main.o
                0x000000002ffec66c                psci_smc_handler
 .text.psci_arch_setup
                0x000000002ffec7a0       0x16 /home/ming/tf-a-stm32mp-2.2.r2-r0/tf-a-stm32mp-2.2.r2/../build/trusted/bl32/psci_setup.o
                0x000000002ffec7a0                psci_arch_setup
 *fill*         0x000000002ffec7b6        0x2 
 .text.psci_setup
                0x000000002ffec7b8      0x224 /home/ming/tf-a-stm32mp-2.2.r2-r0/tf-a-stm32mp-2.2.r2/../build/trusted/bl32/psci_setup.o
                0x000000002ffec7b8                psci_setup
 .text.psci_prepare_next_non_secure_ctx
                0x000000002ffec9dc       0x24 /home/ming/tf-a-stm32mp-2.2.r2-r0/tf-a-stm32mp-2.2.r2/../build/trusted/bl32/psci_setup.o
                0x000000002ffec9dc                psci_prepare_next_non_secure_ctx
 .text.psci_system_off
                0x000000002ffeca00       0x38 /home/ming/tf-a-stm32mp-2.2.r2-r0/tf-a-stm32mp-2.2.r2/../build/trusted/bl32/psci_system_off.o
                0x000000002ffeca00                psci_system_off
 .text.psci_system_reset
                0x000000002ffeca38       0x38 /home/ming/tf-a-stm32mp-2.2.r2-r0/tf-a-stm32mp-2.2.r2/../build/trusted/bl32/psci_system_off.o
                0x000000002ffeca38                psci_system_reset
 .text.psci_system_reset2
                0x000000002ffeca70       0x70 /home/ming/tf-a-stm32mp-2.2.r2-r0/tf-a-stm32mp-2.2.r2/../build/trusted/bl32/psci_system_off.o
                0x000000002ffeca70                psci_system_reset2
 .text.psci_mem_protect
                0x000000002ffecae0       0x4c /home/ming/tf-a-stm32mp-2.2.r2-r0/tf-a-stm32mp-2.2.r2/../build/trusted/bl32/psci_mem_protect.o
                0x000000002ffecae0                psci_mem_protect
 .text.psci_mem_chk_range
                0x000000002ffecb2c       0x34 /home/ming/tf-a-stm32mp-2.2.r2-r0/tf-a-stm32mp-2.2.r2/../build/trusted/bl32/psci_mem_protect.o
                0x000000002ffecb2c                psci_mem_chk_range
 .text.bakery_lock_get
                0x000000002ffecb60      0x100 /home/ming/tf-a-stm32mp-2.2.r2-r0/tf-a-stm32mp-2.2.r2/../build/trusted/bl32/bakery_lock_normal.o
                0x000000002ffecb60                bakery_lock_get
 .text.bakery_lock_release
                0x000000002ffecc60       0x58 /home/ming/tf-a-stm32mp-2.2.r2-r0/tf-a-stm32mp-2.2.r2/../build/trusted/bl32/bakery_lock_normal.o
                0x000000002ffecc60                bakery_lock_release
 .text.trim_table_init
                0x000000002ffeccb8       0x8e /home/ming/tf-a-stm32mp-2.2.r2-r0/tf-a-stm32mp-2.2.r2/../build/trusted/bl32/stm32mp1_calib.o
 *fill*         0x000000002ffecd46        0x2 
 .text.csi_get_trimed_cal
                0x000000002ffecd48       0x20 /home/ming/tf-a-stm32mp-2.2.r2-r0/tf-a-stm32mp-2.2.r2/../build/trusted/bl32/stm32mp1_calib.o
 .text.csi_set_trim
                0x000000002ffecd68       0x28 /home/ming/tf-a-stm32mp-2.2.r2-r0/tf-a-stm32mp-2.2.r2/../build/trusted/bl32/stm32mp1_calib.o
 .text.hsi_get_trimed_cal
                0x000000002ffecd90       0x1c /home/ming/tf-a-stm32mp-2.2.r2-r0/tf-a-stm32mp-2.2.r2/../build/trusted/bl32/stm32mp1_calib.o
 .text.hsi_set_trim
                0x000000002ffecdac       0x24 /home/ming/tf-a-stm32mp-2.2.r2-r0/tf-a-stm32mp-2.2.r2/../build/trusted/bl32/stm32mp1_calib.o
 .text.rcc_calibration
                0x000000002ffecdd0      0x1ac /home/ming/tf-a-stm32mp-2.2.r2-r0/tf-a-stm32mp-2.2.r2/../build/trusted/bl32/stm32mp1_calib.o
 .text.stm32mp1_calib_get_wakeup
                0x000000002ffecf7c        0xc /home/ming/tf-a-stm32mp-2.2.r2-r0/tf-a-stm32mp-2.2.r2/../build/trusted/bl32/stm32mp1_calib.o
                0x000000002ffecf7c                stm32mp1_calib_get_wakeup
 .text.stm32mp1_calib_set_wakeup
                0x000000002ffecf88        0xc /home/ming/tf-a-stm32mp-2.2.r2-r0/tf-a-stm32mp-2.2.r2/../build/trusted/bl32/stm32mp1_calib.o
                0x000000002ffecf88                stm32mp1_calib_set_wakeup
 .text.stm32mp1_calib_it_handler
                0x000000002ffecf94       0x8c /home/ming/tf-a-stm32mp-2.2.r2-r0/tf-a-stm32mp-2.2.r2/../build/trusted/bl32/stm32mp1_calib.o
                0x000000002ffecf94                stm32mp1_calib_it_handler
 .text.stm32mp1_calib_start_hsi_cal
                0x000000002ffed020       0x1c /home/ming/tf-a-stm32mp-2.2.r2-r0/tf-a-stm32mp-2.2.r2/../build/trusted/bl32/stm32mp1_calib.o
                0x000000002ffed020                stm32mp1_calib_start_hsi_cal
 .text.stm32mp1_calib_start_csi_cal
                0x000000002ffed03c       0x1c /home/ming/tf-a-stm32mp-2.2.r2-r0/tf-a-stm32mp-2.2.r2/../build/trusted/bl32/stm32mp1_calib.o
                0x000000002ffed03c                stm32mp1_calib_start_csi_cal
 .text.stm32mp1_calib_init
                0x000000002ffed058       0xe8 /home/ming/tf-a-stm32mp-2.2.r2-r0/tf-a-stm32mp-2.2.r2/../build/trusted/bl32/stm32mp1_calib.o
                0x000000002ffed058                stm32mp1_calib_init
 .text.etzpc_configure_decprot
                0x000000002ffed140       0x40 /home/ming/tf-a-stm32mp-2.2.r2-r0/tf-a-stm32mp-2.2.r2/../build/trusted/bl32/etzpc.o
                0x000000002ffed140                etzpc_configure_decprot
 .text.etzpc_get_decprot
                0x000000002ffed180       0x34 /home/ming/tf-a-stm32mp-2.2.r2-r0/tf-a-stm32mp-2.2.r2/../build/trusted/bl32/etzpc.o
                0x000000002ffed180                etzpc_get_decprot
 .text.etzpc_lock_decprot
                0x000000002ffed1b4       0x30 /home/ming/tf-a-stm32mp-2.2.r2-r0/tf-a-stm32mp-2.2.r2/../build/trusted/bl32/etzpc.o
                0x000000002ffed1b4                etzpc_lock_decprot
 .text.etzpc_configure_tzma
                0x000000002ffed1e4       0x24 /home/ming/tf-a-stm32mp-2.2.r2-r0/tf-a-stm32mp-2.2.r2/../build/trusted/bl32/etzpc.o
                0x000000002ffed1e4                etzpc_configure_tzma
 .text.etzpc_init
                0x000000002ffed208       0xec /home/ming/tf-a-stm32mp-2.2.r2-r0/tf-a-stm32mp-2.2.r2/../build/trusted/bl32/etzpc.o
                0x000000002ffed208                etzpc_init
 .text.stm32_rng_read
                0x000000002ffed2f4       0xe0 /home/ming/tf-a-stm32mp-2.2.r2-r0/tf-a-stm32mp-2.2.r2/../build/trusted/bl32/stm32_rng.o
                0x000000002ffed2f4                stm32_rng_read
 .text.stm32_rng_init
                0x000000002ffed3d4       0x9c /home/ming/tf-a-stm32mp-2.2.r2-r0/tf-a-stm32mp-2.2.r2/../build/trusted/bl32/stm32_rng.o
                0x000000002ffed3d4                stm32_rng_init
 .text.stm32_rtc_read_calendar
                0x000000002ffed470       0x30 /home/ming/tf-a-stm32mp-2.2.r2-r0/tf-a-stm32mp-2.2.r2/../build/trusted/bl32/stm32_rtc.o
 .text.stm32_is_a_leap_year
                0x000000002ffed4a0       0x2c /home/ming/tf-a-stm32mp-2.2.r2-r0/tf-a-stm32mp-2.2.r2/../build/trusted/bl32/stm32_rtc.o
 .text.stm32_rtc_get_date
                0x000000002ffed4cc       0x50 /home/ming/tf-a-stm32mp-2.2.r2-r0/tf-a-stm32mp-2.2.r2/../build/trusted/bl32/stm32_rtc.o
 .text.stm32_rtc_get_time
                0x000000002ffed51c       0x50 /home/ming/tf-a-stm32mp-2.2.r2-r0/tf-a-stm32mp-2.2.r2/../build/trusted/bl32/stm32_rtc.o
 .text.stm32_rtc_regs_lock
                0x000000002ffed56c       0x18 /home/ming/tf-a-stm32mp-2.2.r2-r0/tf-a-stm32mp-2.2.r2/../build/trusted/bl32/stm32_rtc.o
                0x000000002ffed56c                stm32_rtc_regs_lock
 .text.stm32_rtc_regs_unlock
                0x000000002ffed584       0x18 /home/ming/tf-a-stm32mp-2.2.r2-r0/tf-a-stm32mp-2.2.r2/../build/trusted/bl32/stm32_rtc.o
                0x000000002ffed584                stm32_rtc_regs_unlock
 .text.stm32_rtc_get_calendar
                0x000000002ffed59c       0x40 /home/ming/tf-a-stm32mp-2.2.r2-r0/tf-a-stm32mp-2.2.r2/../build/trusted/bl32/stm32_rtc.o
                0x000000002ffed59c                stm32_rtc_get_calendar
 .text.stm32_rtc_diff_calendar
                0x000000002ffed5dc      0x1c8 /home/ming/tf-a-stm32mp-2.2.r2-r0/tf-a-stm32mp-2.2.r2/../build/trusted/bl32/stm32_rtc.o
                0x000000002ffed5dc                stm32_rtc_diff_calendar
 .text.stm32_rtc_get_timestamp
                0x000000002ffed7a4       0x6c /home/ming/tf-a-stm32mp-2.2.r2-r0/tf-a-stm32mp-2.2.r2/../build/trusted/bl32/stm32_rtc.o
                0x000000002ffed7a4                stm32_rtc_get_timestamp
 .text.stm32_rtc_set_tamper_timestamp
                0x000000002ffed810       0x48 /home/ming/tf-a-stm32mp-2.2.r2-r0/tf-a-stm32mp-2.2.r2/../build/trusted/bl32/stm32_rtc.o
                0x000000002ffed810                stm32_rtc_set_tamper_timestamp
 .text.stm32_rtc_is_timestamp_enable
                0x000000002ffed858       0x20 /home/ming/tf-a-stm32mp-2.2.r2-r0/tf-a-stm32mp-2.2.r2/../build/trusted/bl32/stm32_rtc.o
                0x000000002ffed858                stm32_rtc_is_timestamp_enable
 .text.stm32_rtc_init
                0x000000002ffed878       0x34 /home/ming/tf-a-stm32mp-2.2.r2-r0/tf-a-stm32mp-2.2.r2/../build/trusted/bl32/stm32_rtc.o
                0x000000002ffed878                stm32_rtc_init
 .text.stm32_tamp_configure_internal
                0x000000002ffed8ac       0x58 /home/ming/tf-a-stm32mp-2.2.r2-r0/tf-a-stm32mp-2.2.r2/../build/trusted/bl32/stm32_tamp.o
                0x000000002ffed8ac                stm32_tamp_configure_internal
 .text.stm32_tamp_configure_external
                0x000000002ffed904      0x108 /home/ming/tf-a-stm32mp-2.2.r2-r0/tf-a-stm32mp-2.2.r2/../build/trusted/bl32/stm32_tamp.o
                0x000000002ffed904                stm32_tamp_configure_external
 .text.stm32_tamp_it_handler
                0x000000002ffeda0c       0xe0 /home/ming/tf-a-stm32mp-2.2.r2-r0/tf-a-stm32mp-2.2.r2/../build/trusted/bl32/stm32_tamp.o
                0x000000002ffeda0c                stm32_tamp_it_handler
 .text.stm32_tamp_init
                0x000000002ffedaec      0x114 /home/ming/tf-a-stm32mp-2.2.r2-r0/tf-a-stm32mp-2.2.r2/../build/trusted/bl32/stm32_tamp.o
                0x000000002ffedaec                stm32_tamp_init
 .text.stm32_timer_config
                0x000000002ffedc00       0x7c /home/ming/tf-a-stm32mp-2.2.r2-r0/tf-a-stm32mp-2.2.r2/../build/trusted/bl32/stm32_timer.o
 .text.stm32_timer_start_capture.part.0
                0x000000002ffedc7c       0xcc /home/ming/tf-a-stm32mp-2.2.r2-r0/tf-a-stm32mp-2.2.r2/../build/trusted/bl32/stm32_timer.o
 .text.stm32_timer_csi_freq
                0x000000002ffedd48       0x34 /home/ming/tf-a-stm32mp-2.2.r2-r0/tf-a-stm32mp-2.2.r2/../build/trusted/bl32/stm32_timer.o
                0x000000002ffedd48                stm32_timer_csi_freq
 .text.stm32_timer_hsi_freq
                0x000000002ffedd7c       0x30 /home/ming/tf-a-stm32mp-2.2.r2-r0/tf-a-stm32mp-2.2.r2/../build/trusted/bl32/stm32_timer.o
                0x000000002ffedd7c                stm32_timer_hsi_freq
 .text.stm32_timer_freq_func
                0x000000002ffeddac       0x34 /home/ming/tf-a-stm32mp-2.2.r2-r0/tf-a-stm32mp-2.2.r2/../build/trusted/bl32/stm32_timer.o
                0x000000002ffeddac                stm32_timer_freq_func
 .text.stm32_timer_init
                0x000000002ffedde0       0xe8 /home/ming/tf-a-stm32mp-2.2.r2-r0/tf-a-stm32mp-2.2.r2/../build/trusted/bl32/stm32_timer.o
                0x000000002ffedde0                stm32_timer_init
 .text.stm32mp1_tamper_action
                0x000000002ffedec8       0x20 /home/ming/tf-a-stm32mp-2.2.r2-r0/tf-a-stm32mp-2.2.r2/../build/trusted/bl32/sp_min_setup.o
 .text.sp_min_plat_fiq_handler
                0x000000002ffedee8       0xec /home/ming/tf-a-stm32mp-2.2.r2-r0/tf-a-stm32mp-2.2.r2/../build/trusted/bl32/sp_min_setup.o
                0x000000002ffedee8                sp_min_plat_fiq_handler
 .text.sp_min_plat_get_bl33_ep_info
                0x000000002ffedfd4       0x64 /home/ming/tf-a-stm32mp-2.2.r2-r0/tf-a-stm32mp-2.2.r2/../build/trusted/bl32/sp_min_setup.o
                0x000000002ffedfd4                sp_min_plat_get_bl33_ep_info
 .text.sp_min_early_platform_setup2
                0x000000002ffee038      0x130 /home/ming/tf-a-stm32mp-2.2.r2-r0/tf-a-stm32mp-2.2.r2/../build/trusted/bl32/sp_min_setup.o
                0x000000002ffee038                sp_min_early_platform_setup2
 .text.sp_min_platform_setup
                0x000000002ffee168       0xa4 /home/ming/tf-a-stm32mp-2.2.r2-r0/tf-a-stm32mp-2.2.r2/../build/trusted/bl32/sp_min_setup.o
                0x000000002ffee168                sp_min_platform_setup
 .text.sp_min_plat_arch_setup
                0x000000002ffee20c        0x2 /home/ming/tf-a-stm32mp-2.2.r2-r0/tf-a-stm32mp-2.2.r2/../build/trusted/bl32/sp_min_setup.o
                0x000000002ffee20c                sp_min_plat_arch_setup
 *fill*         0x000000002ffee20e        0x2 
 .text.smp_synchro
                0x000000002ffee210       0xa4 /home/ming/tf-a-stm32mp-2.2.r2-r0/tf-a-stm32mp-2.2.r2/../build/trusted/bl32/stm32mp1_low_power.o
 .text.stm32_apply_pmic_suspend_config
                0x000000002ffee2b4       0x44 /home/ming/tf-a-stm32mp-2.2.r2-r0/tf-a-stm32mp-2.2.r2/../build/trusted/bl32/stm32mp1_low_power.o
                0x000000002ffee2b4                stm32_apply_pmic_suspend_config
 .text.enter_cstop
                0x000000002ffee2f8      0x164 /home/ming/tf-a-stm32mp-2.2.r2-r0/tf-a-stm32mp-2.2.r2/../build/trusted/bl32/stm32mp1_low_power.o
 .text.stm32_exit_cstop
                0x000000002ffee45c       0x9c /home/ming/tf-a-stm32mp-2.2.r2-r0/tf-a-stm32mp-2.2.r2/../build/trusted/bl32/stm32mp1_low_power.o
                0x000000002ffee45c                stm32_exit_cstop
 .text.stm32_pwr_down_wfi
                0x000000002ffee4f8       0x38 /home/ming/tf-a-stm32mp-2.2.r2-r0/tf-a-stm32mp-2.2.r2/../build/trusted/bl32/stm32mp1_low_power.o
                0x000000002ffee4f8                stm32_pwr_down_wfi
 .text.stm32_auto_stop
                0x000000002ffee530       0x4a /home/ming/tf-a-stm32mp-2.2.r2-r0/tf-a-stm32mp-2.2.r2/../build/trusted/bl32/stm32mp1_low_power.o
                0x000000002ffee530                stm32_auto_stop
 *fill*         0x000000002ffee57a        0x2 
 .text.stm32_enter_low_power
                0x000000002ffee57c       0x6c /home/ming/tf-a-stm32mp-2.2.r2-r0/tf-a-stm32mp-2.2.r2/../build/trusted/bl32/stm32mp1_low_power.o
                0x000000002ffee57c                stm32_enter_low_power
 .text.stm32_pwr_domain_off
                0x000000002ffee5e8        0x2 /home/ming/tf-a-stm32mp-2.2.r2-r0/tf-a-stm32mp-2.2.r2/../build/trusted/bl32/stm32mp1_pm.o
 .text.stm32_validate_power_state
                0x000000002ffee5ea       0x1c /home/ming/tf-a-stm32mp-2.2.r2-r0/tf-a-stm32mp-2.2.r2/../build/trusted/bl32/stm32mp1_pm.o
 *fill*         0x000000002ffee606        0x2 
 .text.stm32_validate_ns_entrypoint
                0x000000002ffee608       0x18 /home/ming/tf-a-stm32mp-2.2.r2-r0/tf-a-stm32mp-2.2.r2/../build/trusted/bl32/stm32mp1_pm.o
 .text.stm32_node_hw_state
                0x000000002ffee620        0xc /home/ming/tf-a-stm32mp-2.2.r2-r0/tf-a-stm32mp-2.2.r2/../build/trusted/bl32/stm32mp1_pm.o
 .text.stm32_get_sys_suspend_power_state
                0x000000002ffee62c        0x8 /home/ming/tf-a-stm32mp-2.2.r2-r0/tf-a-stm32mp-2.2.r2/../build/trusted/bl32/stm32mp1_pm.o
 .text.stm32_system_reset
                0x000000002ffee634       0x14 /home/ming/tf-a-stm32mp-2.2.r2-r0/tf-a-stm32mp-2.2.r2/../build/trusted/bl32/stm32mp1_pm.o
 .text.stm32_pwr_domain_suspend
                0x000000002ffee648       0x18 /home/ming/tf-a-stm32mp-2.2.r2-r0/tf-a-stm32mp-2.2.r2/../build/trusted/bl32/stm32mp1_pm.o
 .text.stm32_system_off
                0x000000002ffee660       0x3c /home/ming/tf-a-stm32mp-2.2.r2-r0/tf-a-stm32mp-2.2.r2/../build/trusted/bl32/stm32mp1_pm.o
 .text.stm32_pwr_domain_pwr_down_wfi
                0x000000002ffee69c       0x40 /home/ming/tf-a-stm32mp-2.2.r2-r0/tf-a-stm32mp-2.2.r2/../build/trusted/bl32/stm32mp1_pm.o
 .text.stm32_pwr_domain_on_finish
                0x000000002ffee6dc       0x14 /home/ming/tf-a-stm32mp-2.2.r2-r0/tf-a-stm32mp-2.2.r2/../build/trusted/bl32/stm32mp1_pm.o
 .text.stm32_pwr_domain_on
                0x000000002ffee6f0       0x84 /home/ming/tf-a-stm32mp-2.2.r2-r0/tf-a-stm32mp-2.2.r2/../build/trusted/bl32/stm32mp1_pm.o
 .text.stm32_cpu_standby
                0x000000002ffee774       0x3c /home/ming/tf-a-stm32mp-2.2.r2-r0/tf-a-stm32mp-2.2.r2/../build/trusted/bl32/stm32mp1_pm.o
 .text.stm32_pwr_domain_suspend_finish
                0x000000002ffee7b0        0x2 /home/ming/tf-a-stm32mp-2.2.r2-r0/tf-a-stm32mp-2.2.r2/../build/trusted/bl32/stm32mp1_pm.o
 *fill*         0x000000002ffee7b2        0x2 
 .text.plat_setup_psci_ops
                0x000000002ffee7b4       0x14 /home/ming/tf-a-stm32mp-2.2.r2-r0/tf-a-stm32mp-2.2.r2/../build/trusted/bl32/stm32mp1_pm.o
                0x000000002ffee7b4                plat_setup_psci_ops
 .text.stm32mp1_init_lp_states
                0x000000002ffee7c8      0x114 /home/ming/tf-a-stm32mp-2.2.r2-r0/tf-a-stm32mp-2.2.r2/../build/trusted/bl32/stm32mp1_power_config.o
                0x000000002ffee7c8                stm32mp1_init_lp_states
 .text.stm32mp1_set_pm_domain_state
                0x000000002ffee8dc       0x14 /home/ming/tf-a-stm32mp-2.2.r2-r0/tf-a-stm32mp-2.2.r2/../build/trusted/bl32/stm32mp1_power_config.o
                0x000000002ffee8dc                stm32mp1_set_pm_domain_state
 .text.stm32mp1_get_lp_soc_mode
                0x000000002ffee8f0       0x58 /home/ming/tf-a-stm32mp-2.2.r2-r0/tf-a-stm32mp-2.2.r2/../build/trusted/bl32/stm32mp1_power_config.o
                0x000000002ffee8f0                stm32mp1_get_lp_soc_mode
 .text.stm32mp1_get_retram_enabled
                0x000000002ffee948        0xc /home/ming/tf-a-stm32mp-2.2.r2-r0/tf-a-stm32mp-2.2.r2/../build/trusted/bl32/stm32mp1_power_config.o
                0x000000002ffee948                stm32mp1_get_retram_enabled
 .text.get_gpioz_nbpin
                0x000000002ffee954       0x34 /home/ming/tf-a-stm32mp-2.2.r2-r0/tf-a-stm32mp-2.2.r2/../build/trusted/bl32/stm32mp1_shared_resources.o
 .text.register_periph
                0x000000002ffee988       0xb0 /home/ming/tf-a-stm32mp-2.2.r2-r0/tf-a-stm32mp-2.2.r2/../build/trusted/bl32/stm32mp1_shared_resources.o
 .text.register_periph_iomem
                0x000000002ffeea38      0x118 /home/ming/tf-a-stm32mp-2.2.r2-r0/tf-a-stm32mp-2.2.r2/../build/trusted/bl32/stm32mp1_shared_resources.o
 .text.stm32mp_gpio_bank_is_non_secure.part.5
                0x000000002ffeeb50       0x40 /home/ming/tf-a-stm32mp-2.2.r2-r0/tf-a-stm32mp-2.2.r2/../build/trusted/bl32/stm32mp1_shared_resources.o
 .text.check_decprot
                0x000000002ffeeb90       0x88 /home/ming/tf-a-stm32mp-2.2.r2-r0/tf-a-stm32mp-2.2.r2/../build/trusted/bl32/stm32mp1_shared_resources.o
 .text.stm32mp_register_secure_periph
                0x000000002ffeec18        0x6 /home/ming/tf-a-stm32mp-2.2.r2-r0/tf-a-stm32mp-2.2.r2/../build/trusted/bl32/stm32mp1_shared_resources.o
                0x000000002ffeec18                stm32mp_register_secure_periph
 .text.stm32mp_register_secure_periph_iomem
                0x000000002ffeec1e        0x6 /home/ming/tf-a-stm32mp-2.2.r2-r0/tf-a-stm32mp-2.2.r2/../build/trusted/bl32/stm32mp1_shared_resources.o
                0x000000002ffeec1e                stm32mp_register_secure_periph_iomem
 .text.stm32mp_register_non_secure_periph_iomem
                0x000000002ffeec24        0x6 /home/ming/tf-a-stm32mp-2.2.r2-r0/tf-a-stm32mp-2.2.r2/../build/trusted/bl32/stm32mp1_shared_resources.o
                0x000000002ffeec24                stm32mp_register_non_secure_periph_iomem
 *fill*         0x000000002ffeec2a        0x2 
 .text.stm32mp_register_secure_gpio
                0x000000002ffeec2c       0x28 /home/ming/tf-a-stm32mp-2.2.r2-r0/tf-a-stm32mp-2.2.r2/../build/trusted/bl32/stm32mp1_shared_resources.o
                0x000000002ffeec2c                stm32mp_register_secure_gpio
 .text.stm32mp_register_non_secure_gpio
                0x000000002ffeec54       0x10 /home/ming/tf-a-stm32mp-2.2.r2-r0/tf-a-stm32mp-2.2.r2/../build/trusted/bl32/stm32mp1_shared_resources.o
                0x000000002ffeec54                stm32mp_register_non_secure_gpio
 .text.stm32mp1_register_etzpc_decprot
                0x000000002ffeec64       0xc4 /home/ming/tf-a-stm32mp-2.2.r2-r0/tf-a-stm32mp-2.2.r2/../build/trusted/bl32/stm32mp1_shared_resources.o
                0x000000002ffeec64                stm32mp1_register_etzpc_decprot
 .text.stm32mp_gpio_bank_is_non_secure
                0x000000002ffeed28       0x18 /home/ming/tf-a-stm32mp-2.2.r2-r0/tf-a-stm32mp-2.2.r2/../build/trusted/bl32/stm32mp1_shared_resources.o
                0x000000002ffeed28                stm32mp_gpio_bank_is_non_secure
 .text.stm32mp_nsec_can_access_clock
                0x000000002ffeed40       0xcc /home/ming/tf-a-stm32mp-2.2.r2-r0/tf-a-stm32mp-2.2.r2/../build/trusted/bl32/stm32mp1_shared_resources.o
                0x000000002ffeed40                stm32mp_nsec_can_access_clock
 .text.stm32mp_nsec_can_access_reset
                0x000000002ffeee0c       0xa0 /home/ming/tf-a-stm32mp-2.2.r2-r0/tf-a-stm32mp-2.2.r2/../build/trusted/bl32/stm32mp1_shared_resources.o
                0x000000002ffeee0c                stm32mp_nsec_can_access_reset
 .text.stm32mp_lock_periph_registering
                0x000000002ffeeeac      0x220 /home/ming/tf-a-stm32mp-2.2.r2-r0/tf-a-stm32mp-2.2.r2/../build/trusted/bl32/stm32mp1_shared_resources.o
                0x000000002ffeeeac                stm32mp_lock_periph_registering
 .text.plat_get_power_domain_tree_desc
                0x000000002ffef0cc        0x8 /home/ming/tf-a-stm32mp-2.2.r2-r0/tf-a-stm32mp-2.2.r2/../build/trusted/bl32/stm32mp1_topology.o
                0x000000002ffef0cc                plat_get_power_domain_tree_desc
 .text.plat_core_pos_by_mpidr
                0x000000002ffef0d4       0x20 /home/ming/tf-a-stm32mp-2.2.r2-r0/tf-a-stm32mp-2.2.r2/../build/trusted/bl32/stm32mp1_topology.o
                0x000000002ffef0d4                plat_core_pos_by_mpidr
 .text.gicd_read_igroupr
                0x000000002ffef0f4        0xa /home/ming/tf-a-stm32mp-2.2.r2-r0/tf-a-stm32mp-2.2.r2/../build/trusted/bl32/gic_common.o
                0x000000002ffef0f4                gicd_read_igroupr
 .text.gicd_read_icfgr
                0x000000002ffef0fe        0xc /home/ming/tf-a-stm32mp-2.2.r2-r0/tf-a-stm32mp-2.2.r2/../build/trusted/bl32/gic_common.o
                0x000000002ffef0fe                gicd_read_icfgr
 .text.gicd_write_igroupr
                0x000000002ffef10a        0xa /home/ming/tf-a-stm32mp-2.2.r2-r0/tf-a-stm32mp-2.2.r2/../build/trusted/bl32/gic_common.o
                0x000000002ffef10a                gicd_write_igroupr
 .text.gicd_write_isenabler
                0x000000002ffef114        0xc /home/ming/tf-a-stm32mp-2.2.r2-r0/tf-a-stm32mp-2.2.r2/../build/trusted/bl32/gic_common.o
                0x000000002ffef114                gicd_write_isenabler
 .text.gicd_write_icenabler
                0x000000002ffef120        0xc /home/ming/tf-a-stm32mp-2.2.r2-r0/tf-a-stm32mp-2.2.r2/../build/trusted/bl32/gic_common.o
                0x000000002ffef120                gicd_write_icenabler
 .text.gicd_write_ipriorityr
                0x000000002ffef12c        0xc /home/ming/tf-a-stm32mp-2.2.r2-r0/tf-a-stm32mp-2.2.r2/../build/trusted/bl32/gic_common.o
                0x000000002ffef12c                gicd_write_ipriorityr
 .text.gicd_write_icfgr
                0x000000002ffef138        0xc /home/ming/tf-a-stm32mp-2.2.r2-r0/tf-a-stm32mp-2.2.r2/../build/trusted/bl32/gic_common.o
                0x000000002ffef138                gicd_write_icfgr
 .text.gicd_set_igroupr
                0x000000002ffef144       0x20 /home/ming/tf-a-stm32mp-2.2.r2-r0/tf-a-stm32mp-2.2.r2/../build/trusted/bl32/gic_common.o
                0x000000002ffef144                gicd_set_igroupr
 .text.gicd_clr_igroupr
                0x000000002ffef164       0x22 /home/ming/tf-a-stm32mp-2.2.r2-r0/tf-a-stm32mp-2.2.r2/../build/trusted/bl32/gic_common.o
                0x000000002ffef164                gicd_clr_igroupr
 .text.gicd_set_isenabler
                0x000000002ffef186        0xc /home/ming/tf-a-stm32mp-2.2.r2-r0/tf-a-stm32mp-2.2.r2/../build/trusted/bl32/gic_common.o
                0x000000002ffef186                gicd_set_isenabler
 .text.gicd_set_icenabler
                0x000000002ffef192        0xc /home/ming/tf-a-stm32mp-2.2.r2-r0/tf-a-stm32mp-2.2.r2/../build/trusted/bl32/gic_common.o
                0x000000002ffef192                gicd_set_icenabler
 .text.gicd_set_ipriorityr
                0x000000002ffef19e        0xa /home/ming/tf-a-stm32mp-2.2.r2-r0/tf-a-stm32mp-2.2.r2/../build/trusted/bl32/gic_common.o
                0x000000002ffef19e                gicd_set_ipriorityr
 .text.gicd_set_icfgr
                0x000000002ffef1a8       0x2c /home/ming/tf-a-stm32mp-2.2.r2-r0/tf-a-stm32mp-2.2.r2/../build/trusted/bl32/gic_common.o
                0x000000002ffef1a8                gicd_set_icfgr
 .text.gicv2_get_cpuif_id
                0x000000002ffef1d4        0x8 /home/ming/tf-a-stm32mp-2.2.r2-r0/tf-a-stm32mp-2.2.r2/../build/trusted/bl32/gicv2_helpers.o
                0x000000002ffef1d4                gicv2_get_cpuif_id
 .text.gicv2_spis_configure_defaults
                0x000000002ffef1dc       0x50 /home/ming/tf-a-stm32mp-2.2.r2-r0/tf-a-stm32mp-2.2.r2/../build/trusted/bl32/gicv2_helpers.o
                0x000000002ffef1dc                gicv2_spis_configure_defaults
 .text.gicv2_secure_spis_configure_props
                0x000000002ffef22c       0x94 /home/ming/tf-a-stm32mp-2.2.r2-r0/tf-a-stm32mp-2.2.r2/../build/trusted/bl32/gicv2_helpers.o
                0x000000002ffef22c                gicv2_secure_spis_configure_props
 .text.gicv2_secure_ppi_sgi_setup_props
                0x000000002ffef2c0       0xb4 /home/ming/tf-a-stm32mp-2.2.r2-r0/tf-a-stm32mp-2.2.r2/../build/trusted/bl32/gicv2_helpers.o
                0x000000002ffef2c0                gicv2_secure_ppi_sgi_setup_props
 .text.gicv2_cpuif_enable
                0x000000002ffef374       0x2c /home/ming/tf-a-stm32mp-2.2.r2-r0/tf-a-stm32mp-2.2.r2/../build/trusted/bl32/gicv2_main.o
                0x000000002ffef374                gicv2_cpuif_enable
 .text.gicv2_pcpu_distif_init
                0x000000002ffef3a0       0x3c /home/ming/tf-a-stm32mp-2.2.r2-r0/tf-a-stm32mp-2.2.r2/../build/trusted/bl32/gicv2_main.o
                0x000000002ffef3a0                gicv2_pcpu_distif_init
 .text.gicv2_distif_init
                0x000000002ffef3dc       0x44 /home/ming/tf-a-stm32mp-2.2.r2-r0/tf-a-stm32mp-2.2.r2/../build/trusted/bl32/gicv2_main.o
                0x000000002ffef3dc                gicv2_distif_init
 .text.gicv2_driver_init
                0x000000002ffef420       0x64 /home/ming/tf-a-stm32mp-2.2.r2-r0/tf-a-stm32mp-2.2.r2/../build/trusted/bl32/gicv2_main.o
                0x000000002ffef420                gicv2_driver_init
 .text.gicv2_get_pending_interrupt_id
                0x000000002ffef484       0x38 /home/ming/tf-a-stm32mp-2.2.r2-r0/tf-a-stm32mp-2.2.r2/../build/trusted/bl32/gicv2_main.o
                0x000000002ffef484                gicv2_get_pending_interrupt_id
 .text.gicv2_acknowledge_interrupt
                0x000000002ffef4bc       0x24 /home/ming/tf-a-stm32mp-2.2.r2-r0/tf-a-stm32mp-2.2.r2/../build/trusted/bl32/gicv2_main.o
                0x000000002ffef4bc                gicv2_acknowledge_interrupt
 .text.gicv2_end_of_interrupt
                0x000000002ffef4e0       0x24 /home/ming/tf-a-stm32mp-2.2.r2-r0/tf-a-stm32mp-2.2.r2/../build/trusted/bl32/gicv2_main.o
                0x000000002ffef4e0                gicv2_end_of_interrupt
 .text.gicv2_set_pe_target_mask
                0x000000002ffef504       0x68 /home/ming/tf-a-stm32mp-2.2.r2-r0/tf-a-stm32mp-2.2.r2/../build/trusted/bl32/gicv2_main.o
                0x000000002ffef504                gicv2_set_pe_target_mask
 .text.gicv2_enable_interrupt
                0x000000002ffef56c       0x44 /home/ming/tf-a-stm32mp-2.2.r2-r0/tf-a-stm32mp-2.2.r2/../build/trusted/bl32/gicv2_main.o
                0x000000002ffef56c                gicv2_enable_interrupt
 .text.gicv2_disable_interrupt
                0x000000002ffef5b0       0x3c /home/ming/tf-a-stm32mp-2.2.r2-r0/tf-a-stm32mp-2.2.r2/../build/trusted/bl32/gicv2_main.o
                0x000000002ffef5b0                gicv2_disable_interrupt
 .text.gicv2_set_interrupt_priority
                0x000000002ffef5ec       0x40 /home/ming/tf-a-stm32mp-2.2.r2-r0/tf-a-stm32mp-2.2.r2/../build/trusted/bl32/gicv2_main.o
                0x000000002ffef5ec                gicv2_set_interrupt_priority
 .text.gicv2_set_interrupt_type
                0x000000002ffef62c       0x6c /home/ming/tf-a-stm32mp-2.2.r2-r0/tf-a-stm32mp-2.2.r2/../build/trusted/bl32/gicv2_main.o
                0x000000002ffef62c                gicv2_set_interrupt_type
 .text.gicv2_raise_sgi
                0x000000002ffef698       0x6c /home/ming/tf-a-stm32mp-2.2.r2-r0/tf-a-stm32mp-2.2.r2/../build/trusted/bl32/gicv2_main.o
                0x000000002ffef698                gicv2_raise_sgi
 .text.gicv2_set_spi_routing
                0x000000002ffef704       0x6c /home/ming/tf-a-stm32mp-2.2.r2-r0/tf-a-stm32mp-2.2.r2/../build/trusted/bl32/gicv2_main.o
                0x000000002ffef704                gicv2_set_spi_routing
 .text.gicv2_set_pmr
                0x000000002ffef770       0x38 /home/ming/tf-a-stm32mp-2.2.r2-r0/tf-a-stm32mp-2.2.r2/../build/trusted/bl32/gicv2_main.o
                0x000000002ffef770                gicv2_set_pmr
 .text.gicv2_interrupt_set_cfg
                0x000000002ffef7a8       0x14 /home/ming/tf-a-stm32mp-2.2.r2-r0/tf-a-stm32mp-2.2.r2/../build/trusted/bl32/gicv2_main.o
                0x000000002ffef7a8                gicv2_interrupt_set_cfg
 .text.plat_ic_get_pending_interrupt_id
                0x000000002ffef7bc       0x14 /home/ming/tf-a-stm32mp-2.2.r2-r0/tf-a-stm32mp-2.2.r2/../build/trusted/bl32/plat_gicv2.o
                0x000000002ffef7bc                plat_ic_get_pending_interrupt_id
 .text.plat_ic_acknowledge_interrupt
                0x000000002ffef7d0        0x4 /home/ming/tf-a-stm32mp-2.2.r2-r0/tf-a-stm32mp-2.2.r2/../build/trusted/bl32/plat_gicv2.o
                0x000000002ffef7d0                plat_ic_acknowledge_interrupt
 .text.plat_ic_end_of_interrupt
                0x000000002ffef7d4        0x4 /home/ming/tf-a-stm32mp-2.2.r2-r0/tf-a-stm32mp-2.2.r2/../build/trusted/bl32/plat_gicv2.o
                0x000000002ffef7d4                plat_ic_end_of_interrupt
 .text.plat_ic_disable_interrupt
                0x000000002ffef7d8        0x4 /home/ming/tf-a-stm32mp-2.2.r2-r0/tf-a-stm32mp-2.2.r2/../build/trusted/bl32/plat_gicv2.o
                0x000000002ffef7d8                plat_ic_disable_interrupt
 .text.plat_ic_set_interrupt_priority
                0x000000002ffef7dc        0x4 /home/ming/tf-a-stm32mp-2.2.r2-r0/tf-a-stm32mp-2.2.r2/../build/trusted/bl32/plat_gicv2.o
                0x000000002ffef7dc                plat_ic_set_interrupt_priority
 .text.plat_ic_set_priority_mask
                0x000000002ffef7e0        0x4 /home/ming/tf-a-stm32mp-2.2.r2-r0/tf-a-stm32mp-2.2.r2/../build/trusted/bl32/plat_gicv2.o
                0x000000002ffef7e0                plat_ic_set_priority_mask
 .text.fdt32_to_cpu
                0x000000002ffef7e4        0x4 /home/ming/tf-a-stm32mp-2.2.r2-r0/tf-a-stm32mp-2.2.r2/../build/trusted/bl32/stm32_gic.o
 .text.enable_gic_interrupt
                0x000000002ffef7e8       0x62 /home/ming/tf-a-stm32mp-2.2.r2-r0/tf-a-stm32mp-2.2.r2/../build/trusted/bl32/stm32_gic.o
 .text.stm32_gic_pcpu_init
                0x000000002ffef84a       0x16 /home/ming/tf-a-stm32mp-2.2.r2-r0/tf-a-stm32mp-2.2.r2/../build/trusted/bl32/stm32_gic.o
                0x000000002ffef84a                stm32_gic_pcpu_init
 .text.stm32_gic_init
                0x000000002ffef860       0x90 /home/ming/tf-a-stm32mp-2.2.r2-r0/tf-a-stm32mp-2.2.r2/../build/trusted/bl32/stm32_gic.o
                0x000000002ffef860                stm32_gic_init
 .text.stm32_gic_enable_spi
                0x000000002ffef8f0      0x138 /home/ming/tf-a-stm32mp-2.2.r2-r0/tf-a-stm32mp-2.2.r2/../build/trusted/bl32/stm32_gic.o
                0x000000002ffef8f0                stm32_gic_enable_spi
 .text.plat_get_target_pwr_state
                0x000000002ffefa28       0x24 /home/ming/tf-a-stm32mp-2.2.r2-r0/tf-a-stm32mp-2.2.r2/../build/trusted/bl32/plat_psci_common.o
                0x000000002ffefa28                plat_get_target_pwr_state
 .text.bsec_main
                0x000000002ffefa4c      0x12c /home/ming/tf-a-stm32mp-2.2.r2-r0/tf-a-stm32mp-2.2.r2/../build/trusted/bl32/bsec_svc.o
                0x000000002ffefa4c                bsec_main
 .text.pm_domain_scv_handler
                0x000000002ffefb78       0x18 /home/ming/tf-a-stm32mp-2.2.r2-r0/tf-a-stm32mp-2.2.r2/../build/trusted/bl32/low_power_svc.o
                0x000000002ffefb78                pm_domain_scv_handler
 .text.pwr_scv_handler
                0x000000002ffefb90       0x8c /home/ming/tf-a-stm32mp-2.2.r2-r0/tf-a-stm32mp-2.2.r2/../build/trusted/bl32/pwr_svc.o
                0x000000002ffefb90                pwr_scv_handler
 .text.rcc_scv_handler
                0x000000002ffefc1c       0x62 /home/ming/tf-a-stm32mp-2.2.r2-r0/tf-a-stm32mp-2.2.r2/../build/trusted/bl32/rcc_svc.o
                0x000000002ffefc1c                rcc_scv_handler
 .text.rcc_cal_scv_handler
                0x000000002ffefc7e       0x26 /home/ming/tf-a-stm32mp-2.2.r2-r0/tf-a-stm32mp-2.2.r2/../build/trusted/bl32/rcc_svc.o
                0x000000002ffefc7e                rcc_cal_scv_handler
 .text.rcc_opp_scv_handler
                0x000000002ffefca4       0x4c /home/ming/tf-a-stm32mp-2.2.r2-r0/tf-a-stm32mp-2.2.r2/../build/trusted/bl32/rcc_svc.o
                0x000000002ffefca4                rcc_opp_scv_handler
 .text.stm32mp1_svc_setup
                0x000000002ffefcf0        0x4 /home/ming/tf-a-stm32mp-2.2.r2-r0/tf-a-stm32mp-2.2.r2/../build/trusted/bl32/stm32mp1_svc_setup.o
 .text.stm32mp1_svc_smc_handler
                0x000000002ffefcf4      0x104 /home/ming/tf-a-stm32mp-2.2.r2-r0/tf-a-stm32mp-2.2.r2/../build/trusted/bl32/stm32mp1_svc_setup.o
 .text.discover_list_protocols
                0x000000002ffefdf8       0x90 /home/ming/tf-a-stm32mp-2.2.r2-r0/tf-a-stm32mp-2.2.r2/../build/trusted/bl32/base.o
 .text.discover_implementation_version
                0x000000002ffefe88       0x24 /home/ming/tf-a-stm32mp-2.2.r2-r0/tf-a-stm32mp-2.2.r2/../build/trusted/bl32/base.o
 .text.report_message_attributes
                0x000000002ffefeac       0x44 /home/ming/tf-a-stm32mp-2.2.r2-r0/tf-a-stm32mp-2.2.r2/../build/trusted/bl32/base.o
 .text.report_version
                0x000000002ffefef0       0x28 /home/ming/tf-a-stm32mp-2.2.r2-r0/tf-a-stm32mp-2.2.r2/../build/trusted/bl32/base.o
 .text.report_attributes
                0x000000002ffeff18       0x2e /home/ming/tf-a-stm32mp-2.2.r2-r0/tf-a-stm32mp-2.2.r2/../build/trusted/bl32/base.o
 *fill*         0x000000002ffeff46        0x2 
 .text.discover_sub_vendor
                0x000000002ffeff48       0x54 /home/ming/tf-a-stm32mp-2.2.r2-r0/tf-a-stm32mp-2.2.r2/../build/trusted/bl32/base.o
 .text.discover_vendor
                0x000000002ffeff9c       0x54 /home/ming/tf-a-stm32mp-2.2.r2-r0/tf-a-stm32mp-2.2.r2/../build/trusted/bl32/base.o
 .text.scmi_msg_get_base_handler
                0x000000002ffefff0       0x24 /home/ming/tf-a-stm32mp-2.2.r2-r0/tf-a-stm32mp-2.2.r2/../build/trusted/bl32/base.o
                0x000000002ffefff0                scmi_msg_get_base_handler
 .text.confine_array_index
                0x000000002fff0014        0xc /home/ming/tf-a-stm32mp-2.2.r2-r0/tf-a-stm32mp-2.2.r2/../build/trusted/bl32/clock.o
 .text.report_message_attributes
                0x000000002fff0020       0x44 /home/ming/tf-a-stm32mp-2.2.r2-r0/tf-a-stm32mp-2.2.r2/../build/trusted/bl32/clock.o
 .text.report_version
                0x000000002fff0064       0x28 /home/ming/tf-a-stm32mp-2.2.r2-r0/tf-a-stm32mp-2.2.r2/../build/trusted/bl32/clock.o
 .text.write_rate_desc_array_in_buffer
                0x000000002fff008c       0x34 /home/ming/tf-a-stm32mp-2.2.r2-r0/tf-a-stm32mp-2.2.r2/../build/trusted/bl32/clock.o
 .text.report_attributes
                0x000000002fff00c0       0x34 /home/ming/tf-a-stm32mp-2.2.r2-r0/tf-a-stm32mp-2.2.r2/../build/trusted/bl32/clock.o
 .text.scmi_clock_describe_rates
                0x000000002fff00f4       0xf8 /home/ming/tf-a-stm32mp-2.2.r2-r0/tf-a-stm32mp-2.2.r2/../build/trusted/bl32/clock.o
 .text.scmi_clock_rate_get
                0x000000002fff01ec       0x60 /home/ming/tf-a-stm32mp-2.2.r2-r0/tf-a-stm32mp-2.2.r2/../build/trusted/bl32/clock.o
 .text.scmi_clock_rate_set
                0x000000002fff024c       0x4a /home/ming/tf-a-stm32mp-2.2.r2-r0/tf-a-stm32mp-2.2.r2/../build/trusted/bl32/clock.o
 *fill*         0x000000002fff0296        0x2 
 .text.scmi_clock_attributes
                0x000000002fff0298       0x90 /home/ming/tf-a-stm32mp-2.2.r2-r0/tf-a-stm32mp-2.2.r2/../build/trusted/bl32/clock.o
 .text.scmi_clock_config_set
                0x000000002fff0328       0x4e /home/ming/tf-a-stm32mp-2.2.r2-r0/tf-a-stm32mp-2.2.r2/../build/trusted/bl32/clock.o
 *fill*         0x000000002fff0376        0x2 
 .text.scmi_msg_get_clock_handler
                0x000000002fff0378       0x20 /home/ming/tf-a-stm32mp-2.2.r2-r0/tf-a-stm32mp-2.2.r2/../build/trusted/bl32/clock.o
                0x000000002fff0378                scmi_msg_get_clock_handler
 .text.scmi_status_response
                0x000000002fff0398       0x30 /home/ming/tf-a-stm32mp-2.2.r2-r0/tf-a-stm32mp-2.2.r2/../build/trusted/bl32/entry.o
                0x000000002fff0398                scmi_status_response
 .text.scmi_write_response
                0x000000002fff03c8       0x2c /home/ming/tf-a-stm32mp-2.2.r2-r0/tf-a-stm32mp-2.2.r2/../build/trusted/bl32/entry.o
                0x000000002fff03c8                scmi_write_response
 .text.scmi_process_message
                0x000000002fff03f4       0x4c /home/ming/tf-a-stm32mp-2.2.r2-r0/tf-a-stm32mp-2.2.r2/../build/trusted/bl32/entry.o
                0x000000002fff03f4                scmi_process_message
 .text.report_message_attributes
                0x000000002fff0440       0x44 /home/ming/tf-a-stm32mp-2.2.r2-r0/tf-a-stm32mp-2.2.r2/../build/trusted/bl32/reset_domain.o
 .text.report_version
                0x000000002fff0484       0x28 /home/ming/tf-a-stm32mp-2.2.r2-r0/tf-a-stm32mp-2.2.r2/../build/trusted/bl32/reset_domain.o
 .text.report_attributes
                0x000000002fff04ac       0x2e /home/ming/tf-a-stm32mp-2.2.r2-r0/tf-a-stm32mp-2.2.r2/../build/trusted/bl32/reset_domain.o
 *fill*         0x000000002fff04da        0x2 
 .text.reset_domain_attributes
                0x000000002fff04dc       0x94 /home/ming/tf-a-stm32mp-2.2.r2-r0/tf-a-stm32mp-2.2.r2/../build/trusted/bl32/reset_domain.o
 .text.reset_request
                0x000000002fff0570       0x78 /home/ming/tf-a-stm32mp-2.2.r2-r0/tf-a-stm32mp-2.2.r2/../build/trusted/bl32/reset_domain.o
 .text.scmi_msg_get_rd_handler
                0x000000002fff05e8       0x24 /home/ming/tf-a-stm32mp-2.2.r2-r0/tf-a-stm32mp-2.2.r2/../build/trusted/bl32/reset_domain.o
                0x000000002fff05e8                scmi_msg_get_rd_handler
 .text.scmi_proccess_smt
                0x000000002fff060c       0xb0 /home/ming/tf-a-stm32mp-2.2.r2-r0/tf-a-stm32mp-2.2.r2/../build/trusted/bl32/smt.o
 .text.scmi_smt_fastcall_smc_entry
                0x000000002fff06bc       0x20 /home/ming/tf-a-stm32mp-2.2.r2-r0/tf-a-stm32mp-2.2.r2/../build/trusted/bl32/smt.o
                0x000000002fff06bc                scmi_smt_fastcall_smc_entry
 .text.scmi_smt_init_agent_channel
                0x000000002fff06dc       0x20 /home/ming/tf-a-stm32mp-2.2.r2-r0/tf-a-stm32mp-2.2.r2/../build/trusted/bl32/smt.o
                0x000000002fff06dc                scmi_smt_init_agent_channel
 .text.plat_scmi_protocol_count_paranoid
                0x000000002fff06fc        0x4 /home/ming/tf-a-stm32mp-2.2.r2-r0/tf-a-stm32mp-2.2.r2/../build/trusted/bl32/stm32mp1_scmi.o
 .text.unlikely.find_resource.part.0
                0x000000002fff0700       0x10 /home/ming/tf-a-stm32mp-2.2.r2-r0/tf-a-stm32mp-2.2.r2/../build/trusted/bl32/stm32mp1_scmi.o
 .text.find_clock
                0x000000002fff0710       0x34 /home/ming/tf-a-stm32mp-2.2.r2-r0/tf-a-stm32mp-2.2.r2/../build/trusted/bl32/stm32mp1_scmi.o
 .text.find_rd  0x000000002fff0744       0x34 /home/ming/tf-a-stm32mp-2.2.r2-r0/tf-a-stm32mp-2.2.r2/../build/trusted/bl32/stm32mp1_scmi.o
 .text.plat_scmi_get_channel
                0x000000002fff0778       0x20 /home/ming/tf-a-stm32mp-2.2.r2-r0/tf-a-stm32mp-2.2.r2/../build/trusted/bl32/stm32mp1_scmi.o
                0x000000002fff0778                plat_scmi_get_channel
 .text.plat_scmi_vendor_name
                0x000000002fff0798        0x8 /home/ming/tf-a-stm32mp-2.2.r2-r0/tf-a-stm32mp-2.2.r2/../build/trusted/bl32/stm32mp1_scmi.o
                0x000000002fff0798                plat_scmi_vendor_name
 .text.plat_scmi_sub_vendor_name
                0x000000002fff07a0        0x8 /home/ming/tf-a-stm32mp-2.2.r2-r0/tf-a-stm32mp-2.2.r2/../build/trusted/bl32/stm32mp1_scmi.o
                0x000000002fff07a0                plat_scmi_sub_vendor_name
 .text.plat_scmi_protocol_count
                0x000000002fff07a8       0x18 /home/ming/tf-a-stm32mp-2.2.r2-r0/tf-a-stm32mp-2.2.r2/../build/trusted/bl32/stm32mp1_scmi.o
                0x000000002fff07a8                plat_scmi_protocol_count
 .text.plat_scmi_protocol_list
                0x000000002fff07c0       0x20 /home/ming/tf-a-stm32mp-2.2.r2-r0/tf-a-stm32mp-2.2.r2/../build/trusted/bl32/stm32mp1_scmi.o
                0x000000002fff07c0                plat_scmi_protocol_list
 .text.plat_scmi_clock_count
                0x000000002fff07e0       0x18 /home/ming/tf-a-stm32mp-2.2.r2-r0/tf-a-stm32mp-2.2.r2/../build/trusted/bl32/stm32mp1_scmi.o
                0x000000002fff07e0                plat_scmi_clock_count
 .text.plat_scmi_clock_get_name
                0x000000002fff07f8       0x1c /home/ming/tf-a-stm32mp-2.2.r2-r0/tf-a-stm32mp-2.2.r2/../build/trusted/bl32/stm32mp1_scmi.o
                0x000000002fff07f8                plat_scmi_clock_get_name
 .text.plat_scmi_clock_rates_array
                0x000000002fff0814        0x6 /home/ming/tf-a-stm32mp-2.2.r2-r0/tf-a-stm32mp-2.2.r2/../build/trusted/bl32/stm32mp1_scmi.o
                0x000000002fff0814                plat_scmi_clock_rates_array
 .text.plat_scmi_clock_rates_by_step
                0x000000002fff081a       0x44 /home/ming/tf-a-stm32mp-2.2.r2-r0/tf-a-stm32mp-2.2.r2/../build/trusted/bl32/stm32mp1_scmi.o
                0x000000002fff081a                plat_scmi_clock_rates_by_step
 .text.plat_scmi_clock_set_rate
                0x000000002fff085e       0x48 /home/ming/tf-a-stm32mp-2.2.r2-r0/tf-a-stm32mp-2.2.r2/../build/trusted/bl32/stm32mp1_scmi.o
                0x000000002fff085e                plat_scmi_clock_set_rate
 .text.plat_scmi_clock_get_rate
                0x000000002fff08a6       0x20 /home/ming/tf-a-stm32mp-2.2.r2-r0/tf-a-stm32mp-2.2.r2/../build/trusted/bl32/stm32mp1_scmi.o
                0x000000002fff08a6                plat_scmi_clock_get_rate
 .text.plat_scmi_clock_get_state
                0x000000002fff08c6       0x1c /home/ming/tf-a-stm32mp-2.2.r2-r0/tf-a-stm32mp-2.2.r2/../build/trusted/bl32/stm32mp1_scmi.o
                0x000000002fff08c6                plat_scmi_clock_get_state
 .text.plat_scmi_clock_set_state
                0x000000002fff08e2       0x44 /home/ming/tf-a-stm32mp-2.2.r2-r0/tf-a-stm32mp-2.2.r2/../build/trusted/bl32/stm32mp1_scmi.o
                0x000000002fff08e2                plat_scmi_clock_set_state
 .text.plat_scmi_rd_get_name
                0x000000002fff0926        0xc /home/ming/tf-a-stm32mp-2.2.r2-r0/tf-a-stm32mp-2.2.r2/../build/trusted/bl32/stm32mp1_scmi.o
                0x000000002fff0926                plat_scmi_rd_get_name
 *fill*         0x000000002fff0932        0x2 
 .text.plat_scmi_rd_count
                0x000000002fff0934       0x18 /home/ming/tf-a-stm32mp-2.2.r2-r0/tf-a-stm32mp-2.2.r2/../build/trusted/bl32/stm32mp1_scmi.o
                0x000000002fff0934                plat_scmi_rd_count
 .text.plat_scmi_rd_autonomous
                0x000000002fff094c       0x52 /home/ming/tf-a-stm32mp-2.2.r2-r0/tf-a-stm32mp-2.2.r2/../build/trusted/bl32/stm32mp1_scmi.o
                0x000000002fff094c                plat_scmi_rd_autonomous
 .text.plat_scmi_rd_set_state
                0x000000002fff099e       0x44 /home/ming/tf-a-stm32mp-2.2.r2-r0/tf-a-stm32mp-2.2.r2/../build/trusted/bl32/stm32mp1_scmi.o
                0x000000002fff099e                plat_scmi_rd_set_state
 *fill*         0x000000002fff09e2        0x2 
 .text.stm32mp1_init_scmi_server
                0x000000002fff09e4       0xa8 /home/ming/tf-a-stm32mp-2.2.r2-r0/tf-a-stm32mp-2.2.r2/../build/trusted/bl32/stm32mp1_scmi.o
                0x000000002fff09e4                stm32mp1_init_scmi_server
 .text.stm32mp1_pm_save_scmi_state
                0x000000002fff0a8c       0x78 /home/ming/tf-a-stm32mp-2.2.r2-r0/tf-a-stm32mp-2.2.r2/../build/trusted/bl32/stm32mp1_scmi.o
                0x000000002fff0a8c                stm32mp1_pm_save_scmi_state
 .text.stm32mp1_pm_restore_scmi_state
                0x000000002fff0b04       0x7c /home/ming/tf-a-stm32mp-2.2.r2-r0/tf-a-stm32mp-2.2.r2/../build/trusted/bl32/stm32mp1_scmi.o
                0x000000002fff0b04                stm32mp1_pm_restore_scmi_state
 .text.tf_log   0x000000002fff0b80       0x5c /home/ming/tf-a-stm32mp-2.2.r2-r0/tf-a-stm32mp-2.2.r2/../build/trusted/bl32/tf_log.o
                0x000000002fff0b80                tf_log
 .text.console_is_registered
                0x000000002fff0bdc       0x28 /home/ming/tf-a-stm32mp-2.2.r2-r0/tf-a-stm32mp-2.2.r2/../build/trusted/bl32/multi_console.o
                0x000000002fff0bdc                console_is_registered
 .text.console_register
                0x000000002fff0c04       0x40 /home/ming/tf-a-stm32mp-2.2.r2-r0/tf-a-stm32mp-2.2.r2/../build/trusted/bl32/multi_console.o
                0x000000002fff0c04                console_register
 .text.console_switch_state
                0x000000002fff0c44        0xc /home/ming/tf-a-stm32mp-2.2.r2-r0/tf-a-stm32mp-2.2.r2/../build/trusted/bl32/multi_console.o
                0x000000002fff0c44                console_switch_state
 .text.console_set_scope
                0x000000002fff0c50       0x1c /home/ming/tf-a-stm32mp-2.2.r2-r0/tf-a-stm32mp-2.2.r2/../build/trusted/bl32/multi_console.o
                0x000000002fff0c50                console_set_scope
 .text.console_putc
                0x000000002fff0c6c       0x58 /home/ming/tf-a-stm32mp-2.2.r2-r0/tf-a-stm32mp-2.2.r2/../build/trusted/bl32/multi_console.o
                0x000000002fff0c6c                console_putc
 .text.console_flush
                0x000000002fff0cc4       0x40 /home/ming/tf-a-stm32mp-2.2.r2-r0/tf-a-stm32mp-2.2.r2/../build/trusted/bl32/multi_console.o
                0x000000002fff0cc4                console_flush
 .text.plat_log_get_prefix
                0x000000002fff0d04       0x24 /home/ming/tf-a-stm32mp-2.2.r2-r0/tf-a-stm32mp-2.2.r2/../build/trusted/bl32/plat_log_common.o
                0x000000002fff0d04                plat_log_get_prefix
 .text.bl32_plat_enable_mmu
                0x000000002fff0d28        0x4 /home/ming/tf-a-stm32mp-2.2.r2-r0/tf-a-stm32mp-2.2.r2/../build/trusted/bl32/plat_common.o
                0x000000002fff0d28                bl32_plat_enable_mmu
 .text.__ctzdi2
                0x000000002fff0d2c       0x20 /home/ming/tf-a-stm32mp-2.2.r2-r0/tf-a-stm32mp-2.2.r2/../build/trusted/bl32/ctzdi2.o
                0x000000002fff0d2c                __ctzdi2
 .text.__udivmoddi4
                0x000000002fff0d4c      0x190 /home/ming/tf-a-stm32mp-2.2.r2-r0/tf-a-stm32mp-2.2.r2/../build/trusted/bl32/udivmoddi4.o
                0x000000002fff0d4c                __udivmoddi4
 .text.plat_get_syscnt_freq2
                0x000000002fff0edc        0x6 /home/ming/tf-a-stm32mp-2.2.r2-r0/tf-a-stm32mp-2.2.r2/../build/trusted/bl32/stm32mp_common.o
                0x000000002fff0edc                plat_get_syscnt_freq2
 *fill*         0x000000002fff0ee2        0x2 
 .text.stm32mp_ddrctrl_base
                0x000000002fff0ee4        0x8 /home/ming/tf-a-stm32mp-2.2.r2-r0/tf-a-stm32mp-2.2.r2/../build/trusted/bl32/stm32mp_common.o
                0x000000002fff0ee4                stm32mp_ddrctrl_base
 .text.stm32mp_ddrphyc_base
                0x000000002fff0eec        0x8 /home/ming/tf-a-stm32mp-2.2.r2-r0/tf-a-stm32mp-2.2.r2/../build/trusted/bl32/stm32mp_common.o
                0x000000002fff0eec                stm32mp_ddrphyc_base
 .text.stm32mp_pwr_base
                0x000000002fff0ef4        0x8 /home/ming/tf-a-stm32mp-2.2.r2-r0/tf-a-stm32mp-2.2.r2/../build/trusted/bl32/stm32mp_common.o
                0x000000002fff0ef4                stm32mp_pwr_base
 .text.stm32mp_rcc_base
                0x000000002fff0efc        0x6 /home/ming/tf-a-stm32mp-2.2.r2-r0/tf-a-stm32mp-2.2.r2/../build/trusted/bl32/stm32mp_common.o
                0x000000002fff0efc                stm32mp_rcc_base
 .text.stm32mp_lock_available
                0x000000002fff0f02       0x10 /home/ming/tf-a-stm32mp-2.2.r2-r0/tf-a-stm32mp-2.2.r2/../build/trusted/bl32/stm32mp_common.o
                0x000000002fff0f02                stm32mp_lock_available
 *fill*         0x000000002fff0f12        0x2 
 .text.stm32mp_pwr_regs_lock
                0x000000002fff0f14       0x18 /home/ming/tf-a-stm32mp-2.2.r2-r0/tf-a-stm32mp-2.2.r2/../build/trusted/bl32/stm32mp_common.o
                0x000000002fff0f14                stm32mp_pwr_regs_lock
 .text.stm32mp_pwr_regs_unlock
                0x000000002fff0f2c       0x18 /home/ming/tf-a-stm32mp-2.2.r2-r0/tf-a-stm32mp-2.2.r2/../build/trusted/bl32/stm32mp_common.o
                0x000000002fff0f2c                stm32mp_pwr_regs_unlock
 .text.stm32_get_gpio_bank_base
                0x000000002fff0f44       0x28 /home/ming/tf-a-stm32mp-2.2.r2-r0/tf-a-stm32mp-2.2.r2/../build/trusted/bl32/stm32mp_common.o
                0x000000002fff0f44                stm32_get_gpio_bank_base
 .text.stm32_get_gpio_bank_offset
                0x000000002fff0f6c       0x20 /home/ming/tf-a-stm32mp-2.2.r2-r0/tf-a-stm32mp-2.2.r2/../build/trusted/bl32/stm32mp_common.o
                0x000000002fff0f6c                stm32_get_gpio_bank_offset
 .text.stm32mp_get_cpu_supply_name
                0x000000002fff0f8c       0x2e /home/ming/tf-a-stm32mp-2.2.r2-r0/tf-a-stm32mp-2.2.r2/../build/trusted/bl32/stm32mp_common.o
                0x000000002fff0f8c                stm32mp_get_cpu_supply_name
 *fill*         0x000000002fff0fba        0x2 
 .text.configure_mmu
                0x000000002fff0fbc       0x1c /home/ming/tf-a-stm32mp-2.2.r2-r0/tf-a-stm32mp-2.2.r2/../build/trusted/bl32/stm32mp1_private.o
                0x000000002fff0fbc                configure_mmu
 .text.stm32mp_mask_timer
                0x000000002fff0fd8       0x1a /home/ming/tf-a-stm32mp-2.2.r2-r0/tf-a-stm32mp-2.2.r2/../build/trusted/bl32/stm32mp1_private.o
                0x000000002fff0fd8                stm32mp_mask_timer
 .text.stm32mp_wait_cpu_reset
                0x000000002fff0ff2       0x42 /home/ming/tf-a-stm32mp-2.2.r2-r0/tf-a-stm32mp-2.2.r2/../build/trusted/bl32/stm32mp1_private.o
                0x000000002fff0ff2                stm32mp_wait_cpu_reset
 .text.stm32_get_gpio_bank_clock
                0x000000002fff1034       0x20 /home/ming/tf-a-stm32mp-2.2.r2-r0/tf-a-stm32mp-2.2.r2/../build/trusted/bl32/stm32mp1_private.o
                0x000000002fff1034                stm32_get_gpio_bank_clock
 .text.stm32_get_otp_index
                0x000000002fff1054       0x28 /home/ming/tf-a-stm32mp-2.2.r2-r0/tf-a-stm32mp-2.2.r2/../build/trusted/bl32/stm32mp1_private.o
                0x000000002fff1054                stm32_get_otp_index
 .text.stm32_get_otp_value_from_idx
                0x000000002fff107c       0x30 /home/ming/tf-a-stm32mp-2.2.r2-r0/tf-a-stm32mp-2.2.r2/../build/trusted/bl32/stm32mp1_private.o
                0x000000002fff107c                stm32_get_otp_value_from_idx
 .text.stm32_get_otp_value
                0x000000002fff10ac       0x48 /home/ming/tf-a-stm32mp-2.2.r2-r0/tf-a-stm32mp-2.2.r2/../build/trusted/bl32/stm32mp1_private.o
                0x000000002fff10ac                stm32_get_otp_value
 .text.get_part_number
                0x000000002fff10f4       0x4c /home/ming/tf-a-stm32mp-2.2.r2-r0/tf-a-stm32mp-2.2.r2/../build/trusted/bl32/stm32mp1_private.o
 .text.stm32mp_supports_cpu_opp
                0x000000002fff1140       0x40 /home/ming/tf-a-stm32mp-2.2.r2-r0/tf-a-stm32mp-2.2.r2/../build/trusted/bl32/stm32mp1_private.o
                0x000000002fff1140                stm32mp_supports_cpu_opp
 .text.stm32mp_is_single_core
                0x000000002fff1180       0x28 /home/ming/tf-a-stm32mp-2.2.r2-r0/tf-a-stm32mp-2.2.r2/../build/trusted/bl32/stm32mp1_private.o
                0x000000002fff1180                stm32mp_is_single_core
 .text.stm32mp_plat_reset
                0x000000002fff11a8       0xac /home/ming/tf-a-stm32mp-2.2.r2-r0/tf-a-stm32mp-2.2.r2/../build/trusted/bl32/stm32mp1_private.o
                0x000000002fff11a8                stm32mp_plat_reset
 .text.stm32_iwdg_get_instance
                0x000000002fff1254       0x28 /home/ming/tf-a-stm32mp-2.2.r2-r0/tf-a-stm32mp-2.2.r2/../build/trusted/bl32/stm32mp1_private.o
                0x000000002fff1254                stm32_iwdg_get_instance
 .text.stm32_iwdg_get_otp_config
                0x000000002fff127c       0x50 /home/ming/tf-a-stm32mp-2.2.r2-r0/tf-a-stm32mp-2.2.r2/../build/trusted/bl32/stm32mp1_private.o
                0x000000002fff127c                stm32_iwdg_get_otp_config
 .text.stm32mp_etzpc_binding2decprot
                0x000000002fff12cc       0x26 /home/ming/tf-a-stm32mp-2.2.r2-r0/tf-a-stm32mp-2.2.r2/../build/trusted/bl32/stm32mp1_private.o
                0x000000002fff12cc                stm32mp_etzpc_binding2decprot
 .text.xlat_arch_get_max_supported_pa
                0x000000002fff12f2        0x8 /home/ming/tf-a-stm32mp-2.2.r2-r0/tf-a-stm32mp-2.2.r2/../build/trusted/bl32/xlat_tables_arch.o
                0x000000002fff12f2                xlat_arch_get_max_supported_pa
 .text.xlat_get_min_virt_addr_space_size
                0x000000002fff12fa        0x6 /home/ming/tf-a-stm32mp-2.2.r2-r0/tf-a-stm32mp-2.2.r2/../build/trusted/bl32/xlat_tables_arch.o
                0x000000002fff12fa                xlat_get_min_virt_addr_space_size
 .text.is_dcache_enabled
                0x000000002fff1300       0x1c /home/ming/tf-a-stm32mp-2.2.r2-r0/tf-a-stm32mp-2.2.r2/../build/trusted/bl32/xlat_tables_arch.o
                0x000000002fff1300                is_dcache_enabled
 .text.xlat_arch_regime_get_xn_desc
                0x000000002fff131c       0x28 /home/ming/tf-a-stm32mp-2.2.r2-r0/tf-a-stm32mp-2.2.r2/../build/trusted/bl32/xlat_tables_arch.o
                0x000000002fff131c                xlat_arch_regime_get_xn_desc
 .text.xlat_arch_tlbi_va
                0x000000002fff1344       0x30 /home/ming/tf-a-stm32mp-2.2.r2-r0/tf-a-stm32mp-2.2.r2/../build/trusted/bl32/xlat_tables_arch.o
                0x000000002fff1344                xlat_arch_tlbi_va
 .text.xlat_arch_tlbi_va_sync
                0x000000002fff1374       0x10 /home/ming/tf-a-stm32mp-2.2.r2-r0/tf-a-stm32mp-2.2.r2/../build/trusted/bl32/xlat_tables_arch.o
                0x000000002fff1374                xlat_arch_tlbi_va_sync
 .text.xlat_arch_current_el
                0x000000002fff1384       0x3c /home/ming/tf-a-stm32mp-2.2.r2-r0/tf-a-stm32mp-2.2.r2/../build/trusted/bl32/xlat_tables_arch.o
                0x000000002fff1384                xlat_arch_current_el
 .text.is_mmu_enabled_ctx
                0x000000002fff13c0       0x40 /home/ming/tf-a-stm32mp-2.2.r2-r0/tf-a-stm32mp-2.2.r2/../build/trusted/bl32/xlat_tables_arch.o
                0x000000002fff13c0                is_mmu_enabled_ctx
 .text.setup_mmu_cfg
                0x000000002fff1400       0xac /home/ming/tf-a-stm32mp-2.2.r2-r0/tf-a-stm32mp-2.2.r2/../build/trusted/bl32/xlat_tables_arch.o
                0x000000002fff1400                setup_mmu_cfg
 .text.mmap_add_region
                0x000000002fff14ac       0x28 /home/ming/tf-a-stm32mp-2.2.r2-r0/tf-a-stm32mp-2.2.r2/../build/trusted/bl32/xlat_tables_context.o
                0x000000002fff14ac                mmap_add_region
 .text.mmap_add
                0x000000002fff14d4        0xc /home/ming/tf-a-stm32mp-2.2.r2-r0/tf-a-stm32mp-2.2.r2/../build/trusted/bl32/xlat_tables_context.o
                0x000000002fff14d4                mmap_add
 .text.mmap_add_dynamic_region
                0x000000002fff14e0       0x28 /home/ming/tf-a-stm32mp-2.2.r2-r0/tf-a-stm32mp-2.2.r2/../build/trusted/bl32/xlat_tables_context.o
                0x000000002fff14e0                mmap_add_dynamic_region
 .text.mmap_remove_dynamic_region
                0x000000002fff1508       0x10 /home/ming/tf-a-stm32mp-2.2.r2-r0/tf-a-stm32mp-2.2.r2/../build/trusted/bl32/xlat_tables_context.o
                0x000000002fff1508                mmap_remove_dynamic_region
 .text.init_xlat_tables
                0x000000002fff1518       0x3c /home/ming/tf-a-stm32mp-2.2.r2-r0/tf-a-stm32mp-2.2.r2/../build/trusted/bl32/xlat_tables_context.o
                0x000000002fff1518                init_xlat_tables
 .text.enable_mmu_svc_mon
                0x000000002fff1554       0x34 /home/ming/tf-a-stm32mp-2.2.r2-r0/tf-a-stm32mp-2.2.r2/../build/trusted/bl32/xlat_tables_context.o
                0x000000002fff1554                enable_mmu_svc_mon
 .text.mmap_add_region_check
                0x000000002fff1588      0x15c /home/ming/tf-a-stm32mp-2.2.r2-r0/tf-a-stm32mp-2.2.r2/../build/trusted/bl32/xlat_tables_core.o
 .text.xlat_clean_dcache_range
                0x000000002fff16e4       0x1a /home/ming/tf-a-stm32mp-2.2.r2-r0/tf-a-stm32mp-2.2.r2/../build/trusted/bl32/xlat_tables_core.o
 *fill*         0x000000002fff16fe        0x2 
 .text.xlat_table_get_index
                0x000000002fff1700       0x28 /home/ming/tf-a-stm32mp-2.2.r2-r0/tf-a-stm32mp-2.2.r2/../build/trusted/bl32/xlat_tables_core.o
 .text.xlat_tables_unmap_region
                0x000000002fff1728      0x154 /home/ming/tf-a-stm32mp-2.2.r2-r0/tf-a-stm32mp-2.2.r2/../build/trusted/bl32/xlat_tables_core.o
 .text.xlat_desc
                0x000000002fff187c       0xb0 /home/ming/tf-a-stm32mp-2.2.r2-r0/tf-a-stm32mp-2.2.r2/../build/trusted/bl32/xlat_tables_core.o
                0x000000002fff187c                xlat_desc
 .text.xlat_tables_map_region
                0x000000002fff192c      0x1bc /home/ming/tf-a-stm32mp-2.2.r2-r0/tf-a-stm32mp-2.2.r2/../build/trusted/bl32/xlat_tables_core.o
 .text.mmap_add_region_ctx
                0x000000002fff1ae8       0xf0 /home/ming/tf-a-stm32mp-2.2.r2-r0/tf-a-stm32mp-2.2.r2/../build/trusted/bl32/xlat_tables_core.o
                0x000000002fff1ae8                mmap_add_region_ctx
 .text.mmap_add_ctx
                0x000000002fff1bd8       0x18 /home/ming/tf-a-stm32mp-2.2.r2-r0/tf-a-stm32mp-2.2.r2/../build/trusted/bl32/xlat_tables_core.o
                0x000000002fff1bd8                mmap_add_ctx
 .text.mmap_add_dynamic_region_ctx
                0x000000002fff1bf0      0x174 /home/ming/tf-a-stm32mp-2.2.r2-r0/tf-a-stm32mp-2.2.r2/../build/trusted/bl32/xlat_tables_core.o
                0x000000002fff1bf0                mmap_add_dynamic_region_ctx
 .text.mmap_remove_dynamic_region_ctx
                0x000000002fff1d64      0x110 /home/ming/tf-a-stm32mp-2.2.r2-r0/tf-a-stm32mp-2.2.r2/../build/trusted/bl32/xlat_tables_core.o
                0x000000002fff1d64                mmap_remove_dynamic_region_ctx
 .text.init_xlat_tables_ctx
                0x000000002fff1e74      0x154 /home/ming/tf-a-stm32mp-2.2.r2-r0/tf-a-stm32mp-2.2.r2/../build/trusted/bl32/xlat_tables_core.o
                0x000000002fff1e74                init_xlat_tables_ctx
 .text.xlat_mmap_print
                0x000000002fff1fc8        0x2 /home/ming/tf-a-stm32mp-2.2.r2-r0/tf-a-stm32mp-2.2.r2/../build/trusted/bl32/xlat_tables_utils.o
                0x000000002fff1fc8                xlat_mmap_print
 .text.xlat_tables_print
                0x000000002fff1fca        0x2 /home/ming/tf-a-stm32mp-2.2.r2-r0/tf-a-stm32mp-2.2.r2/../build/trusted/bl32/xlat_tables_utils.o
                0x000000002fff1fca                xlat_tables_print
 .text.tzc400_set_action
                0x000000002fff1fcc       0x24 /home/ming/tf-a-stm32mp-2.2.r2-r0/tf-a-stm32mp-2.2.r2/../build/trusted/bl32/tzc400.o
                0x000000002fff1fcc                tzc400_set_action
 .text.tzc400_init
                0x000000002fff1ff0       0x5c /home/ming/tf-a-stm32mp-2.2.r2-r0/tf-a-stm32mp-2.2.r2/../build/trusted/bl32/tzc400.o
                0x000000002fff1ff0                tzc400_init
 .text.tzc400_configure_region
                0x000000002fff204c       0xc4 /home/ming/tf-a-stm32mp-2.2.r2-r0/tf-a-stm32mp-2.2.r2/../build/trusted/bl32/tzc400.o
                0x000000002fff204c                tzc400_configure_region
 .text.tzc400_enable_filters
                0x000000002fff2110       0x68 /home/ming/tf-a-stm32mp-2.2.r2-r0/tf-a-stm32mp-2.2.r2/../build/trusted/bl32/tzc400.o
                0x000000002fff2110                tzc400_enable_filters
 .text.tzc400_disable_filters
                0x000000002fff2178       0x48 /home/ming/tf-a-stm32mp-2.2.r2-r0/tf-a-stm32mp-2.2.r2/../build/trusted/bl32/tzc400.o
                0x000000002fff2178                tzc400_disable_filters
 .text.tzc400_is_pending_interrupt
                0x000000002fff21c0       0x3c /home/ming/tf-a-stm32mp-2.2.r2-r0/tf-a-stm32mp-2.2.r2/../build/trusted/bl32/tzc400.o
                0x000000002fff21c0                tzc400_is_pending_interrupt
 .text.tzc400_it_handler
                0x000000002fff21fc       0xbc /home/ming/tf-a-stm32mp-2.2.r2-r0/tf-a-stm32mp-2.2.r2/../build/trusted/bl32/tzc400.o
                0x000000002fff21fc                tzc400_it_handler
 .text.udelay   0x000000002fff22b8       0x5c /home/ming/tf-a-stm32mp-2.2.r2-r0/tf-a-stm32mp-2.2.r2/../build/trusted/bl32/delay_timer.o
                0x000000002fff22b8                udelay
 .text.mdelay   0x000000002fff2314        0xa /home/ming/tf-a-stm32mp-2.2.r2-r0/tf-a-stm32mp-2.2.r2/../build/trusted/bl32/delay_timer.o
                0x000000002fff2314                mdelay
 *fill*         0x000000002fff231e        0x2 
 .text.timer_init
                0x000000002fff2320       0x28 /home/ming/tf-a-stm32mp-2.2.r2-r0/tf-a-stm32mp-2.2.r2/../build/trusted/bl32/delay_timer.o
                0x000000002fff2320                timer_init
 .text.get_timer_value
                0x000000002fff2348        0x8 /home/ming/tf-a-stm32mp-2.2.r2-r0/tf-a-stm32mp-2.2.r2/../build/trusted/bl32/generic_delay_timer.o
 .text.generic_delay_timer_init_args
                0x000000002fff2350       0x18 /home/ming/tf-a-stm32mp-2.2.r2-r0/tf-a-stm32mp-2.2.r2/../build/trusted/bl32/generic_delay_timer.o
                0x000000002fff2350                generic_delay_timer_init_args
 .text.generic_delay_timer_init
                0x000000002fff2368       0x48 /home/ming/tf-a-stm32mp-2.2.r2-r0/tf-a-stm32mp-2.2.r2/../build/trusted/bl32/generic_delay_timer.o
                0x000000002fff2368                generic_delay_timer_init
 .text.fdt32_to_cpu
                0x000000002fff23b0        0x4 /home/ming/tf-a-stm32mp-2.2.r2-r0/tf-a-stm32mp-2.2.r2/../build/trusted/bl32/bsec2.o
 .text.bsec_lock
                0x000000002fff23b4       0x18 /home/ming/tf-a-stm32mp-2.2.r2-r0/tf-a-stm32mp-2.2.r2/../build/trusted/bl32/bsec2.o
 .text.bsec_unlock
                0x000000002fff23cc       0x18 /home/ming/tf-a-stm32mp-2.2.r2-r0/tf-a-stm32mp-2.2.r2/../build/trusted/bl32/bsec2.o
 .text.otp_bank_offset
                0x000000002fff23e4       0x18 /home/ming/tf-a-stm32mp-2.2.r2-r0/tf-a-stm32mp-2.2.r2/../build/trusted/bl32/bsec2.o
 .text.bsec_check_error
                0x000000002fff23fc       0x34 /home/ming/tf-a-stm32mp-2.2.r2-r0/tf-a-stm32mp-2.2.r2/../build/trusted/bl32/bsec2.o
 .text.bsec_find_otp_name_in_dt
                0x000000002fff2430       0xd0 /home/ming/tf-a-stm32mp-2.2.r2-r0/tf-a-stm32mp-2.2.r2/../build/trusted/bl32/bsec2.o
                0x000000002fff2430                bsec_find_otp_name_in_dt
 .text.bsec_read_otp
                0x000000002fff2500       0x20 /home/ming/tf-a-stm32mp-2.2.r2-r0/tf-a-stm32mp-2.2.r2/../build/trusted/bl32/bsec2.o
                0x000000002fff2500                bsec_read_otp
 .text.bsec_read_debug_conf
                0x000000002fff2520        0xc /home/ming/tf-a-stm32mp-2.2.r2-r0/tf-a-stm32mp-2.2.r2/../build/trusted/bl32/bsec2.o
                0x000000002fff2520                bsec_read_debug_conf
 .text.bsec_get_status
                0x000000002fff252c        0xc /home/ming/tf-a-stm32mp-2.2.r2-r0/tf-a-stm32mp-2.2.r2/../build/trusted/bl32/bsec2.o
                0x000000002fff252c                bsec_get_status
 .text.bsec_power_safmem
                0x000000002fff2538       0x60 /home/ming/tf-a-stm32mp-2.2.r2-r0/tf-a-stm32mp-2.2.r2/../build/trusted/bl32/bsec2.o
 .text.bsec_permanent_lock_otp
                0x000000002fff2598       0x90 /home/ming/tf-a-stm32mp-2.2.r2-r0/tf-a-stm32mp-2.2.r2/../build/trusted/bl32/bsec2.o
                0x000000002fff2598                bsec_permanent_lock_otp
 .text.bsec_get_version
                0x000000002fff2628       0x10 /home/ming/tf-a-stm32mp-2.2.r2-r0/tf-a-stm32mp-2.2.r2/../build/trusted/bl32/bsec2.o
                0x000000002fff2628                bsec_get_version
 .text.bsec_get_id
                0x000000002fff2638       0x10 /home/ming/tf-a-stm32mp-2.2.r2-r0/tf-a-stm32mp-2.2.r2/../build/trusted/bl32/bsec2.o
                0x000000002fff2638                bsec_get_id
 .text.bsec_read_sr_lock
                0x000000002fff2648       0x38 /home/ming/tf-a-stm32mp-2.2.r2-r0/tf-a-stm32mp-2.2.r2/../build/trusted/bl32/bsec2.o
                0x000000002fff2648                bsec_read_sr_lock
 .text.bsec_shadow_register
                0x000000002fff2680       0x7c /home/ming/tf-a-stm32mp-2.2.r2-r0/tf-a-stm32mp-2.2.r2/../build/trusted/bl32/bsec2.o
                0x000000002fff2680                bsec_shadow_register
 .text.bsec_probe
                0x000000002fff26fc      0x11c /home/ming/tf-a-stm32mp-2.2.r2-r0/tf-a-stm32mp-2.2.r2/../build/trusted/bl32/bsec2.o
                0x000000002fff26fc                bsec_probe
 .text.bsec_read_sw_lock
                0x000000002fff2818       0x38 /home/ming/tf-a-stm32mp-2.2.r2-r0/tf-a-stm32mp-2.2.r2/../build/trusted/bl32/bsec2.o
                0x000000002fff2818                bsec_read_sw_lock
 .text.bsec_write_otp
                0x000000002fff2850       0x44 /home/ming/tf-a-stm32mp-2.2.r2-r0/tf-a-stm32mp-2.2.r2/../build/trusted/bl32/bsec2.o
                0x000000002fff2850                bsec_write_otp
 .text.bsec_read_sp_lock
                0x000000002fff2894       0x38 /home/ming/tf-a-stm32mp-2.2.r2-r0/tf-a-stm32mp-2.2.r2/../build/trusted/bl32/bsec2.o
                0x000000002fff2894                bsec_read_sp_lock
 .text.bsec_read_permanent_lock
                0x000000002fff28cc       0x38 /home/ming/tf-a-stm32mp-2.2.r2-r0/tf-a-stm32mp-2.2.r2/../build/trusted/bl32/bsec2.o
                0x000000002fff28cc                bsec_read_permanent_lock
 .text.bsec_program_otp
                0x000000002fff2904       0xdc /home/ming/tf-a-stm32mp-2.2.r2-r0/tf-a-stm32mp-2.2.r2/../build/trusted/bl32/bsec2.o
                0x000000002fff2904                bsec_program_otp
 .text.bsec_check_nsec_access_rights
                0x000000002fff29e0       0x34 /home/ming/tf-a-stm32mp-2.2.r2-r0/tf-a-stm32mp-2.2.r2/../build/trusted/bl32/bsec2.o
                0x000000002fff29e0                bsec_check_nsec_access_rights
 .text.fdt_osc_read_freq
                0x000000002fff2a14       0xa0 /home/ming/tf-a-stm32mp-2.2.r2-r0/tf-a-stm32mp-2.2.r2/../build/trusted/bl32/stm32mp_clkfunc.o
                0x000000002fff2a14                fdt_osc_read_freq
 .text.fdt_get_rcc_node
                0x000000002fff2ab4        0xc /home/ming/tf-a-stm32mp-2.2.r2-r0/tf-a-stm32mp-2.2.r2/../build/trusted/bl32/stm32mp_clkfunc.o
                0x000000002fff2ab4                fdt_get_rcc_node
 .text.fdt_rcc_read_uint32_default
                0x000000002fff2ac0       0x1e /home/ming/tf-a-stm32mp-2.2.r2-r0/tf-a-stm32mp-2.2.r2/../build/trusted/bl32/stm32mp_clkfunc.o
                0x000000002fff2ac0                fdt_rcc_read_uint32_default
 .text.fdt_rcc_read_prop
                0x000000002fff2ade       0x30 /home/ming/tf-a-stm32mp-2.2.r2-r0/tf-a-stm32mp-2.2.r2/../build/trusted/bl32/stm32mp_clkfunc.o
                0x000000002fff2ade                fdt_rcc_read_prop
 .text.fdt_rcc_enable_it
                0x000000002fff2b0e       0x1c /home/ming/tf-a-stm32mp-2.2.r2-r0/tf-a-stm32mp-2.2.r2/../build/trusted/bl32/stm32mp_clkfunc.o
                0x000000002fff2b0e                fdt_rcc_enable_it
 *fill*         0x000000002fff2b2a        0x2 
 .text.fdt_get_clock_id
                0x000000002fff2b2c       0x48 /home/ming/tf-a-stm32mp-2.2.r2-r0/tf-a-stm32mp-2.2.r2/../build/trusted/bl32/stm32mp_clkfunc.o
                0x000000002fff2b2c                fdt_get_clock_id
 .text.fdt_get_clock_id_by_name
                0x000000002fff2b74       0x70 /home/ming/tf-a-stm32mp-2.2.r2-r0/tf-a-stm32mp-2.2.r2/../build/trusted/bl32/stm32mp_clkfunc.o
                0x000000002fff2b74                fdt_get_clock_id_by_name
 .text.stm32mp_stgen_get_counter
                0x000000002fff2be4       0x10 /home/ming/tf-a-stm32mp-2.2.r2-r0/tf-a-stm32mp-2.2.r2/../build/trusted/bl32/stm32mp_clkfunc.o
                0x000000002fff2be4                stm32mp_stgen_get_counter
 .text.stm32mp_stgen_restore_counter
                0x000000002fff2bf4       0x48 /home/ming/tf-a-stm32mp-2.2.r2-r0/tf-a-stm32mp-2.2.r2/../build/trusted/bl32/stm32mp_clkfunc.o
                0x000000002fff2bf4                stm32mp_stgen_restore_counter
 .text.stm32mp1_read_pll_freq
                0x000000002fff2c3c       0xbc /home/ming/tf-a-stm32mp-2.2.r2-r0/tf-a-stm32mp-2.2.r2/../build/trusted/bl32/stm32mp1_clk.o
 .text.get_clock_rate
                0x000000002fff2cf8      0x198 /home/ming/tf-a-stm32mp-2.2.r2-r0/tf-a-stm32mp-2.2.r2/../build/trusted/bl32/stm32mp1_clk.o
 .text.stm32mp1_pll_compute_pllxcfgr1
                0x000000002fff2e90       0x8c /home/ming/tf-a-stm32mp-2.2.r2-r0/tf-a-stm32mp-2.2.r2/../build/trusted/bl32/stm32mp1_clk.o
 .text.stm32mp1_pll_start
                0x000000002fff2f1c       0x24 /home/ming/tf-a-stm32mp-2.2.r2-r0/tf-a-stm32mp-2.2.r2/../build/trusted/bl32/stm32mp1_clk.o
 .text.stm32mp1_clk_lock
                0x000000002fff2f40       0x16 /home/ming/tf-a-stm32mp-2.2.r2-r0/tf-a-stm32mp-2.2.r2/../build/trusted/bl32/stm32mp1_clk.o
 .text.stm32mp1_clk_unlock
                0x000000002fff2f56       0x16 /home/ming/tf-a-stm32mp-2.2.r2-r0/tf-a-stm32mp-2.2.r2/../build/trusted/bl32/stm32mp1_clk.o
 .text.stm32mp1_pll_stop
                0x000000002fff2f6c       0x80 /home/ming/tf-a-stm32mp-2.2.r2-r0/tf-a-stm32mp-2.2.r2/../build/trusted/bl32/stm32mp1_clk.o
 .text.__clk_enable
                0x000000002fff2fec       0x22 /home/ming/tf-a-stm32mp-2.2.r2-r0/tf-a-stm32mp-2.2.r2/../build/trusted/bl32/stm32mp1_clk.o
 .text.__clk_disable
                0x000000002fff300e       0x24 /home/ming/tf-a-stm32mp-2.2.r2-r0/tf-a-stm32mp-2.2.r2/../build/trusted/bl32/stm32mp1_clk.o
 .text.clock_is_always_on
                0x000000002fff3032       0x1c /home/ming/tf-a-stm32mp-2.2.r2-r0/tf-a-stm32mp-2.2.r2/../build/trusted/bl32/stm32mp1_clk.o
 *fill*         0x000000002fff304e        0x2 
 .text.stm32mp1_clk_get_gated_id
                0x000000002fff3050       0x38 /home/ming/tf-a-stm32mp-2.2.r2-r0/tf-a-stm32mp-2.2.r2/../build/trusted/bl32/stm32mp1_clk.o
 .text.stm32mp1_clk_get_parent
                0x000000002fff3088       0x7c /home/ming/tf-a-stm32mp-2.2.r2-r0/tf-a-stm32mp-2.2.r2/../build/trusted/bl32/stm32mp1_clk.o
 .text.__stm32mp1_clk_enable
                0x000000002fff3104       0x7c /home/ming/tf-a-stm32mp-2.2.r2-r0/tf-a-stm32mp-2.2.r2/../build/trusted/bl32/stm32mp1_clk.o
 .text.__stm32mp1_clk_disable
                0x000000002fff3180       0x78 /home/ming/tf-a-stm32mp-2.2.r2-r0/tf-a-stm32mp-2.2.r2/../build/trusted/bl32/stm32mp1_clk.o
 .text.stm32mp1_set_clkdiv
                0x000000002fff31f8       0x6c /home/ming/tf-a-stm32mp-2.2.r2-r0/tf-a-stm32mp-2.2.r2/../build/trusted/bl32/stm32mp1_clk.o
 .text.stm32mp1_pll_output
                0x000000002fff3264       0x80 /home/ming/tf-a-stm32mp-2.2.r2-r0/tf-a-stm32mp-2.2.r2/../build/trusted/bl32/stm32mp1_clk.o
 .text.stm32mp1_set_clksrc
                0x000000002fff32e4       0x78 /home/ming/tf-a-stm32mp-2.2.r2-r0/tf-a-stm32mp-2.2.r2/../build/trusted/bl32/stm32mp1_clk.o
 .text.stm32mp1_pll_config_output
                0x000000002fff335c       0x34 /home/ming/tf-a-stm32mp-2.2.r2-r0/tf-a-stm32mp-2.2.r2/../build/trusted/bl32/stm32mp1_clk.o
 .text.stm32mp1_pll_config
                0x000000002fff3390       0x50 /home/ming/tf-a-stm32mp-2.2.r2-r0/tf-a-stm32mp-2.2.r2/../build/trusted/bl32/stm32mp1_clk.o
 .text.stm32mp1_pll1_config_from_opp_khz
                0x000000002fff33e0      0x14c /home/ming/tf-a-stm32mp-2.2.r2-r0/tf-a-stm32mp-2.2.r2/../build/trusted/bl32/stm32mp1_clk.o
 .text.stm32mp1_rcc_is_secure
                0x000000002fff352c        0xe /home/ming/tf-a-stm32mp-2.2.r2-r0/tf-a-stm32mp-2.2.r2/../build/trusted/bl32/stm32mp1_clk.o
                0x000000002fff352c                stm32mp1_rcc_is_secure
 .text.stm32mp1_rcc_is_mckprot
                0x000000002fff353a       0x14 /home/ming/tf-a-stm32mp-2.2.r2-r0/tf-a-stm32mp-2.2.r2/../build/trusted/bl32/stm32mp1_clk.o
                0x000000002fff353a                stm32mp1_rcc_is_mckprot
 *fill*         0x000000002fff354e        0x2 
 .text.stm32mp1_clk_rcc_regs_lock
                0x000000002fff3550        0xc /home/ming/tf-a-stm32mp-2.2.r2-r0/tf-a-stm32mp-2.2.r2/../build/trusted/bl32/stm32mp1_clk.o
                0x000000002fff3550                stm32mp1_clk_rcc_regs_lock
 .text.stm32mp1_clk_rcc_regs_unlock
                0x000000002fff355c        0xc /home/ming/tf-a-stm32mp-2.2.r2-r0/tf-a-stm32mp-2.2.r2/../build/trusted/bl32/stm32mp1_clk.o
                0x000000002fff355c                stm32mp1_clk_rcc_regs_unlock
 .text.stm32mp_clk_enable
                0x000000002fff3568        0x6 /home/ming/tf-a-stm32mp-2.2.r2-r0/tf-a-stm32mp-2.2.r2/../build/trusted/bl32/stm32mp1_clk.o
                0x000000002fff3568                stm32mp_clk_enable
 .text.stm32mp_clk_disable
                0x000000002fff356e        0x6 /home/ming/tf-a-stm32mp-2.2.r2-r0/tf-a-stm32mp-2.2.r2/../build/trusted/bl32/stm32mp1_clk.o
                0x000000002fff356e                stm32mp_clk_disable
 .text.stm32mp1_clk_force_enable
                0x000000002fff3574        0x6 /home/ming/tf-a-stm32mp-2.2.r2-r0/tf-a-stm32mp-2.2.r2/../build/trusted/bl32/stm32mp1_clk.o
                0x000000002fff3574                stm32mp1_clk_force_enable
 .text.stm32mp1_clk_force_disable
                0x000000002fff357a        0x6 /home/ming/tf-a-stm32mp-2.2.r2-r0/tf-a-stm32mp-2.2.r2/../build/trusted/bl32/stm32mp1_clk.o
                0x000000002fff357a                stm32mp1_clk_force_disable
 .text.stm32mp_clk_is_enabled
                0x000000002fff3580       0x40 /home/ming/tf-a-stm32mp-2.2.r2-r0/tf-a-stm32mp-2.2.r2/../build/trusted/bl32/stm32mp1_clk.o
                0x000000002fff3580                stm32mp_clk_is_enabled
 .text.stm32mp_clk_get_rate
                0x000000002fff35c0       0x16 /home/ming/tf-a-stm32mp-2.2.r2-r0/tf-a-stm32mp-2.2.r2/../build/trusted/bl32/stm32mp1_clk.o
                0x000000002fff35c0                stm32mp_clk_get_rate
 *fill*         0x000000002fff35d6        0x2 
 .text.clk_get_pll1_settings.part.5
                0x000000002fff35d8      0x258 /home/ming/tf-a-stm32mp-2.2.r2-r0/tf-a-stm32mp-2.2.r2/../build/trusted/bl32/stm32mp1_clk.o
 .text.stm32mp_clk_timer_get_rate
                0x000000002fff3830       0x3c /home/ming/tf-a-stm32mp-2.2.r2-r0/tf-a-stm32mp-2.2.r2/../build/trusted/bl32/stm32mp1_clk.o
                0x000000002fff3830                stm32mp_clk_timer_get_rate
 .text.stm32mp1_rtc_get_read_twice
                0x000000002fff386c       0x5e /home/ming/tf-a-stm32mp-2.2.r2-r0/tf-a-stm32mp-2.2.r2/../build/trusted/bl32/stm32mp1_clk.o
                0x000000002fff386c                stm32mp1_rtc_get_read_twice
 *fill*         0x000000002fff38ca        0x2 
 .text.stm32mp1_round_opp_khz
                0x000000002fff38cc       0x38 /home/ming/tf-a-stm32mp-2.2.r2-r0/tf-a-stm32mp-2.2.r2/../build/trusted/bl32/stm32mp1_clk.o
                0x000000002fff38cc                stm32mp1_round_opp_khz
 .text.stm32mp1_set_opp_khz
                0x000000002fff3904       0x70 /home/ming/tf-a-stm32mp-2.2.r2-r0/tf-a-stm32mp-2.2.r2/../build/trusted/bl32/stm32mp1_clk.o
                0x000000002fff3904                stm32mp1_set_opp_khz
 .text.stm32mp1_clk_compute_all_pll1_settings
                0x000000002fff3974      0x138 /home/ming/tf-a-stm32mp-2.2.r2-r0/tf-a-stm32mp-2.2.r2/../build/trusted/bl32/stm32mp1_clk.o
                0x000000002fff3974                stm32mp1_clk_compute_all_pll1_settings
 .text.stm32mp1_clk_lp_save_opp_pll1_settings
                0x000000002fff3aac       0x2c /home/ming/tf-a-stm32mp-2.2.r2-r0/tf-a-stm32mp-2.2.r2/../build/trusted/bl32/stm32mp1_clk.o
                0x000000002fff3aac                stm32mp1_clk_lp_save_opp_pll1_settings
 .text.stm32mp1_clk_lp_load_opp_pll1_settings
                0x000000002fff3ad8       0x20 /home/ming/tf-a-stm32mp-2.2.r2-r0/tf-a-stm32mp-2.2.r2/../build/trusted/bl32/stm32mp1_clk.o
                0x000000002fff3ad8                stm32mp1_clk_lp_load_opp_pll1_settings
 .text.stm32mp1_register_clock_parents_secure
                0x000000002fff3af8      0x120 /home/ming/tf-a-stm32mp-2.2.r2-r0/tf-a-stm32mp-2.2.r2/../build/trusted/bl32/stm32mp1_clk.o
                0x000000002fff3af8                stm32mp1_register_clock_parents_secure
 .text.save_clock_pm_context
                0x000000002fff3c18       0x50 /home/ming/tf-a-stm32mp-2.2.r2-r0/tf-a-stm32mp-2.2.r2/../build/trusted/bl32/stm32mp1_clk.o
                0x000000002fff3c18                save_clock_pm_context
 .text.restore_clock_pm_context
                0x000000002fff3c68       0x50 /home/ming/tf-a-stm32mp-2.2.r2-r0/tf-a-stm32mp-2.2.r2/../build/trusted/bl32/stm32mp1_clk.o
                0x000000002fff3c68                restore_clock_pm_context
 .text.stm32mp1_clock_suspend
                0x000000002fff3cb8       0x8c /home/ming/tf-a-stm32mp-2.2.r2-r0/tf-a-stm32mp-2.2.r2/../build/trusted/bl32/stm32mp1_clk.o
                0x000000002fff3cb8                stm32mp1_clock_suspend
 .text.stm32mp1_clock_resume
                0x000000002fff3d44       0xd4 /home/ming/tf-a-stm32mp-2.2.r2-r0/tf-a-stm32mp-2.2.r2/../build/trusted/bl32/stm32mp1_clk.o
                0x000000002fff3d44                stm32mp1_clock_resume
 .text.stm32mp1_clock_stopmode_save
                0x000000002fff3e18       0x4c /home/ming/tf-a-stm32mp-2.2.r2-r0/tf-a-stm32mp-2.2.r2/../build/trusted/bl32/stm32mp1_clk.o
                0x000000002fff3e18                stm32mp1_clock_stopmode_save
 .text.stm32mp1_clock_stopmode_resume
                0x000000002fff3e64       0x98 /home/ming/tf-a-stm32mp-2.2.r2-r0/tf-a-stm32mp-2.2.r2/../build/trusted/bl32/stm32mp1_clk.o
                0x000000002fff3e64                stm32mp1_clock_stopmode_resume
 .text.stm32mp1_dump_clocks_state
                0x000000002fff3efc        0x2 /home/ming/tf-a-stm32mp-2.2.r2-r0/tf-a-stm32mp-2.2.r2/../build/trusted/bl32/stm32mp1_clk.o
                0x000000002fff3efc                stm32mp1_dump_clocks_state
 *fill*         0x000000002fff3efe        0x2 
 .text.stm32mp1_clk_probe
                0x000000002fff3f00       0xc0 /home/ming/tf-a-stm32mp-2.2.r2-r0/tf-a-stm32mp-2.2.r2/../build/trusted/bl32/stm32mp1_clk.o
                0x000000002fff3f00                stm32mp1_clk_probe
 .text.do_sw_handshake
                0x000000002fff3fc0       0x14 /home/ming/tf-a-stm32mp-2.2.r2-r0/tf-a-stm32mp-2.2.r2/../build/trusted/bl32/stm32mp1_ddr_helpers.o
 .text.do_sw_ack
                0x000000002fff3fd4       0x5c /home/ming/tf-a-stm32mp-2.2.r2-r0/tf-a-stm32mp-2.2.r2/../build/trusted/bl32/stm32mp1_ddr_helpers.o
 .text.ddr_enable_clock
                0x000000002fff4030       0x22 /home/ming/tf-a-stm32mp-2.2.r2-r0/tf-a-stm32mp-2.2.r2/../build/trusted/bl32/stm32mp1_ddr_helpers.o
                0x000000002fff4030                ddr_enable_clock
 *fill*         0x000000002fff4052        0x2 
 .text.ddr_sw_self_refresh_exit
                0x000000002fff4054      0x1f4 /home/ming/tf-a-stm32mp-2.2.r2-r0/tf-a-stm32mp-2.2.r2/../build/trusted/bl32/stm32mp1_ddr_helpers.o
                0x000000002fff4054                ddr_sw_self_refresh_exit
 .text.ddr_standby_sr_entry
                0x000000002fff4248      0x238 /home/ming/tf-a-stm32mp-2.2.r2-r0/tf-a-stm32mp-2.2.r2/../build/trusted/bl32/stm32mp1_ddr_helpers.o
                0x000000002fff4248                ddr_standby_sr_entry
 .text.ddr_read_sr_mode
                0x000000002fff4480       0x18 /home/ming/tf-a-stm32mp-2.2.r2-r0/tf-a-stm32mp-2.2.r2/../build/trusted/bl32/stm32mp1_ddr_helpers.o
                0x000000002fff4480                ddr_read_sr_mode
 .text.ddr_set_sr_mode
                0x000000002fff4498      0x1cc /home/ming/tf-a-stm32mp-2.2.r2-r0/tf-a-stm32mp-2.2.r2/../build/trusted/bl32/stm32mp1_ddr_helpers.o
                0x000000002fff4498                ddr_set_sr_mode
 .text.ddr_save_sr_mode
                0x000000002fff4664       0x10 /home/ming/tf-a-stm32mp-2.2.r2-r0/tf-a-stm32mp-2.2.r2/../build/trusted/bl32/stm32mp1_ddr_helpers.o
                0x000000002fff4664                ddr_save_sr_mode
 .text.ddr_restore_sr_mode
                0x000000002fff4674        0xc /home/ming/tf-a-stm32mp-2.2.r2-r0/tf-a-stm32mp-2.2.r2/../build/trusted/bl32/stm32mp1_ddr_helpers.o
                0x000000002fff4674                ddr_restore_sr_mode
 .text.fdt32_to_cpu
                0x000000002fff4680        0x4 /home/ming/tf-a-stm32mp-2.2.r2-r0/tf-a-stm32mp-2.2.r2/../build/trusted/bl32/stm32_gpio.o
 .text.set_gpio
                0x000000002fff4684       0xfc /home/ming/tf-a-stm32mp-2.2.r2-r0/tf-a-stm32mp-2.2.r2/../build/trusted/bl32/stm32_gpio.o
                0x000000002fff4684                set_gpio
 .text.dt_set_pinctrl_config
                0x000000002fff4780      0x204 /home/ming/tf-a-stm32mp-2.2.r2-r0/tf-a-stm32mp-2.2.r2/../build/trusted/bl32/stm32_gpio.o
                0x000000002fff4780                dt_set_pinctrl_config
 .text.set_gpio_secure_cfg
                0x000000002fff4984       0x5c /home/ming/tf-a-stm32mp-2.2.r2-r0/tf-a-stm32mp-2.2.r2/../build/trusted/bl32/stm32_gpio.o
                0x000000002fff4984                set_gpio_secure_cfg
 .text.i2c_transfer_config.isra.1
                0x000000002fff49e0       0x2c /home/ming/tf-a-stm32mp-2.2.r2-r0/tf-a-stm32mp-2.2.r2/../build/trusted/bl32/stm32_i2c.o
 .text.i2c_wait_flag
                0x000000002fff4a0c       0x44 /home/ming/tf-a-stm32mp-2.2.r2-r0/tf-a-stm32mp-2.2.r2/../build/trusted/bl32/stm32_i2c.o
 .text.i2c_ack_failed
                0x000000002fff4a50       0x90 /home/ming/tf-a-stm32mp-2.2.r2-r0/tf-a-stm32mp-2.2.r2/../build/trusted/bl32/stm32_i2c.o
 .text.i2c_wait_txis
                0x000000002fff4ae0       0x42 /home/ming/tf-a-stm32mp-2.2.r2-r0/tf-a-stm32mp-2.2.r2/../build/trusted/bl32/stm32_i2c.o
 .text.i2c_wait_stop
                0x000000002fff4b22       0x42 /home/ming/tf-a-stm32mp-2.2.r2-r0/tf-a-stm32mp-2.2.r2/../build/trusted/bl32/stm32_i2c.o
 .text.i2c_write
                0x000000002fff4b64      0x214 /home/ming/tf-a-stm32mp-2.2.r2-r0/tf-a-stm32mp-2.2.r2/../build/trusted/bl32/stm32_i2c.o
 .text.i2c_read.isra.2
                0x000000002fff4d78      0x1ec /home/ming/tf-a-stm32mp-2.2.r2-r0/tf-a-stm32mp-2.2.r2/../build/trusted/bl32/stm32_i2c.o
 .text.stm32_i2c_get_setup_from_fdt
                0x000000002fff4f64       0x60 /home/ming/tf-a-stm32mp-2.2.r2-r0/tf-a-stm32mp-2.2.r2/../build/trusted/bl32/stm32_i2c.o
                0x000000002fff4f64                stm32_i2c_get_setup_from_fdt
 .text.stm32_i2c_init
                0x000000002fff4fc4      0x460 /home/ming/tf-a-stm32mp-2.2.r2-r0/tf-a-stm32mp-2.2.r2/../build/trusted/bl32/stm32_i2c.o
                0x000000002fff4fc4                stm32_i2c_init
 .text.stm32_i2c_mem_write
                0x000000002fff5424       0x1c /home/ming/tf-a-stm32mp-2.2.r2-r0/tf-a-stm32mp-2.2.r2/../build/trusted/bl32/stm32_i2c.o
                0x000000002fff5424                stm32_i2c_mem_write
 .text.stm32_i2c_mem_read
                0x000000002fff5440       0x12 /home/ming/tf-a-stm32mp-2.2.r2-r0/tf-a-stm32mp-2.2.r2/../build/trusted/bl32/stm32_i2c.o
                0x000000002fff5440                stm32_i2c_mem_read
 *fill*         0x000000002fff5452        0x2 
 .text.stm32_i2c_is_device_ready
                0x000000002fff5454      0x15c /home/ming/tf-a-stm32mp-2.2.r2-r0/tf-a-stm32mp-2.2.r2/../build/trusted/bl32/stm32_i2c.o
                0x000000002fff5454                stm32_i2c_is_device_ready
 .text.stm32_iwdg_refresh
                0x000000002fff55b0       0x40 /home/ming/tf-a-stm32mp-2.2.r2-r0/tf-a-stm32mp-2.2.r2/../build/trusted/bl32/stm32_iwdg.o
                0x000000002fff55b0                stm32_iwdg_refresh
 .text.stm32_iwdg_it_handler
                0x000000002fff55f0       0x58 /home/ming/tf-a-stm32mp-2.2.r2-r0/tf-a-stm32mp-2.2.r2/../build/trusted/bl32/stm32_iwdg.o
                0x000000002fff55f0                stm32_iwdg_it_handler
 .text.stm32_iwdg_init
                0x000000002fff5648      0x1f4 /home/ming/tf-a-stm32mp-2.2.r2-r0/tf-a-stm32mp-2.2.r2/../build/trusted/bl32/stm32_iwdg.o
                0x000000002fff5648                stm32_iwdg_init
 .text.fdt32_to_cpu
                0x000000002fff583c        0x4 /home/ming/tf-a-stm32mp-2.2.r2-r0/tf-a-stm32mp-2.2.r2/../build/trusted/bl32/stm32mp_pmic.o
 .text.dt_get_pmic_node
                0x000000002fff5840       0x20 /home/ming/tf-a-stm32mp-2.2.r2-r0/tf-a-stm32mp-2.2.r2/../build/trusted/bl32/stm32mp_pmic.o
 .text.dt_pmic_get_regulator_voltage
                0x000000002fff5860       0x60 /home/ming/tf-a-stm32mp-2.2.r2-r0/tf-a-stm32mp-2.2.r2/../build/trusted/bl32/stm32mp_pmic.o
 .text.pmic_operate
                0x000000002fff58c0      0x244 /home/ming/tf-a-stm32mp-2.2.r2-r0/tf-a-stm32mp-2.2.r2/../build/trusted/bl32/stm32mp_pmic.o
 .text.dt_pmic_status
                0x000000002fff5b04       0x28 /home/ming/tf-a-stm32mp-2.2.r2-r0/tf-a-stm32mp-2.2.r2/../build/trusted/bl32/stm32mp_pmic.o
                0x000000002fff5b04                dt_pmic_status
 .text.pmic_configure_boot_on_regulators
                0x000000002fff5b2c        0xa /home/ming/tf-a-stm32mp-2.2.r2-r0/tf-a-stm32mp-2.2.r2/../build/trusted/bl32/stm32mp_pmic.o
                0x000000002fff5b2c                pmic_configure_boot_on_regulators
 .text.pmic_set_lp_config
                0x000000002fff5b36        0xa /home/ming/tf-a-stm32mp-2.2.r2-r0/tf-a-stm32mp-2.2.r2/../build/trusted/bl32/stm32mp_pmic.o
                0x000000002fff5b36                pmic_set_lp_config
 .text.dt_pmic_find_supply
                0x000000002fff5b40       0x7c /home/ming/tf-a-stm32mp-2.2.r2-r0/tf-a-stm32mp-2.2.r2/../build/trusted/bl32/stm32mp_pmic.o
                0x000000002fff5b40                dt_pmic_find_supply
 .text.initialize_pmic_i2c
                0x000000002fff5bbc      0x108 /home/ming/tf-a-stm32mp-2.2.r2-r0/tf-a-stm32mp-2.2.r2/../build/trusted/bl32/stm32mp_pmic.o
                0x000000002fff5bbc                initialize_pmic_i2c
 .text.initialize_pmic
                0x000000002fff5cc4       0x34 /home/ming/tf-a-stm32mp-2.2.r2-r0/tf-a-stm32mp-2.2.r2/../build/trusted/bl32/stm32mp_pmic.o
                0x000000002fff5cc4                initialize_pmic
 .text.get_regulator_data
                0x000000002fff5cf8       0x38 /home/ming/tf-a-stm32mp-2.2.r2-r0/tf-a-stm32mp-2.2.r2/../build/trusted/bl32/stpmic1.o
 .text.voltage_to_index
                0x000000002fff5d30       0x2a /home/ming/tf-a-stm32mp-2.2.r2-r0/tf-a-stm32mp-2.2.r2/../build/trusted/bl32/stpmic1.o
 *fill*         0x000000002fff5d5a        0x2 
 .text.stpmic1_register_read
                0x000000002fff5d5c       0x28 /home/ming/tf-a-stm32mp-2.2.r2-r0/tf-a-stm32mp-2.2.r2/../build/trusted/bl32/stpmic1.o
                0x000000002fff5d5c                stpmic1_register_read
 .text.stpmic1_is_regulator_enabled
                0x000000002fff5d84       0x28 /home/ming/tf-a-stm32mp-2.2.r2-r0/tf-a-stm32mp-2.2.r2/../build/trusted/bl32/stpmic1.o
                0x000000002fff5d84                stpmic1_is_regulator_enabled
 .text.stpmic1_regulator_voltage_get
                0x000000002fff5dac       0x70 /home/ming/tf-a-stm32mp-2.2.r2-r0/tf-a-stm32mp-2.2.r2/../build/trusted/bl32/stpmic1.o
                0x000000002fff5dac                stpmic1_regulator_voltage_get
 .text.stpmic1_register_write
                0x000000002fff5e1c       0x58 /home/ming/tf-a-stm32mp-2.2.r2-r0/tf-a-stm32mp-2.2.r2/../build/trusted/bl32/stpmic1.o
                0x000000002fff5e1c                stpmic1_register_write
 .text.stpmic1_lp_copy_reg
                0x000000002fff5e74       0x26 /home/ming/tf-a-stm32mp-2.2.r2-r0/tf-a-stm32mp-2.2.r2/../build/trusted/bl32/stpmic1.o
                0x000000002fff5e74                stpmic1_lp_copy_reg
 .text.stpmic1_register_update
                0x000000002fff5e9a       0x2c /home/ming/tf-a-stm32mp-2.2.r2-r0/tf-a-stm32mp-2.2.r2/../build/trusted/bl32/stpmic1.o
                0x000000002fff5e9a                stpmic1_register_update
 .text.stpmic1_powerctrl_on
                0x000000002fff5ec6        0xa /home/ming/tf-a-stm32mp-2.2.r2-r0/tf-a-stm32mp-2.2.r2/../build/trusted/bl32/stpmic1.o
                0x000000002fff5ec6                stpmic1_powerctrl_on
 .text.stpmic1_switch_off
                0x000000002fff5ed0        0xa /home/ming/tf-a-stm32mp-2.2.r2-r0/tf-a-stm32mp-2.2.r2/../build/trusted/bl32/stpmic1.o
                0x000000002fff5ed0                stpmic1_switch_off
 .text.stpmic1_regulator_enable
                0x000000002fff5eda       0x14 /home/ming/tf-a-stm32mp-2.2.r2-r0/tf-a-stm32mp-2.2.r2/../build/trusted/bl32/stpmic1.o
                0x000000002fff5eda                stpmic1_regulator_enable
 *fill*         0x000000002fff5eee        0x2 
 .text.stpmic1_regulator_voltage_set
                0x000000002fff5ef0       0x5c /home/ming/tf-a-stm32mp-2.2.r2-r0/tf-a-stm32mp-2.2.r2/../build/trusted/bl32/stpmic1.o
                0x000000002fff5ef0                stpmic1_regulator_voltage_set
 .text.stpmic1_regulator_pull_down_set
                0x000000002fff5f4c       0x24 /home/ming/tf-a-stm32mp-2.2.r2-r0/tf-a-stm32mp-2.2.r2/../build/trusted/bl32/stpmic1.o
                0x000000002fff5f4c                stpmic1_regulator_pull_down_set
 .text.stpmic1_regulator_mask_reset_set
                0x000000002fff5f70       0x1a /home/ming/tf-a-stm32mp-2.2.r2-r0/tf-a-stm32mp-2.2.r2/../build/trusted/bl32/stpmic1.o
                0x000000002fff5f70                stpmic1_regulator_mask_reset_set
 .text.stpmic1_lp_reg_on_off
                0x000000002fff5f8a       0x16 /home/ming/tf-a-stm32mp-2.2.r2-r0/tf-a-stm32mp-2.2.r2/../build/trusted/bl32/stpmic1.o
                0x000000002fff5f8a                stpmic1_lp_reg_on_off
 .text.stpmic1_lp_set_mode
                0x000000002fff5fa0       0x1a /home/ming/tf-a-stm32mp-2.2.r2-r0/tf-a-stm32mp-2.2.r2/../build/trusted/bl32/stpmic1.o
                0x000000002fff5fa0                stpmic1_lp_set_mode
 *fill*         0x000000002fff5fba        0x2 
 .text.stpmic1_lp_set_voltage
                0x000000002fff5fbc       0x5c /home/ming/tf-a-stm32mp-2.2.r2-r0/tf-a-stm32mp-2.2.r2/../build/trusted/bl32/stpmic1.o
                0x000000002fff5fbc                stpmic1_lp_set_voltage
 .text.stpmic1_bind_i2c
                0x000000002fff6018       0x14 /home/ming/tf-a-stm32mp-2.2.r2-r0/tf-a-stm32mp-2.2.r2/../build/trusted/bl32/stpmic1.o
                0x000000002fff6018                stpmic1_bind_i2c
 .text.stm32mp_reset_assert_to
                0x000000002fff602c       0x70 /home/ming/tf-a-stm32mp-2.2.r2-r0/tf-a-stm32mp-2.2.r2/../build/trusted/bl32/stm32mp1_reset.o
                0x000000002fff602c                stm32mp_reset_assert_to
 .text.stm32mp_reset_deassert_to
                0x000000002fff609c       0x74 /home/ming/tf-a-stm32mp-2.2.r2-r0/tf-a-stm32mp-2.2.r2/../build/trusted/bl32/stm32mp1_reset.o
                0x000000002fff609c                stm32mp_reset_deassert_to
 .text.stm32mp_reset_assert_deassert_to_mcu
                0x000000002fff6110       0x1e /home/ming/tf-a-stm32mp-2.2.r2-r0/tf-a-stm32mp-2.2.r2/../build/trusted/bl32/stm32mp1_reset.o
                0x000000002fff6110                stm32mp_reset_assert_deassert_to_mcu
 .text.fdt32_to_cpu
                0x000000002fff612e        0x4 /home/ming/tf-a-stm32mp-2.2.r2-r0/tf-a-stm32mp-2.2.r2/../build/trusted/bl32/stm32mp_dt.o
 *fill*         0x000000002fff6132        0x2 
 .text.fdt_get_node_parent_address_cells
                0x000000002fff6134       0x24 /home/ming/tf-a-stm32mp-2.2.r2-r0/tf-a-stm32mp-2.2.r2/../build/trusted/bl32/stm32mp_dt.o
 .text.dt_get_stdout_node_offset
                0x000000002fff6158       0x7c /home/ming/tf-a-stm32mp-2.2.r2-r0/tf-a-stm32mp-2.2.r2/../build/trusted/bl32/stm32mp_dt.o
 .text.dt_get_opp_freqvolt_from_subnode
                0x000000002fff61d4       0xd0 /home/ming/tf-a-stm32mp-2.2.r2-r0/tf-a-stm32mp-2.2.r2/../build/trusted/bl32/stm32mp_dt.o
 .text.dt_open_and_check
                0x000000002fff62a4       0x1c /home/ming/tf-a-stm32mp-2.2.r2-r0/tf-a-stm32mp-2.2.r2/../build/trusted/bl32/stm32mp_dt.o
                0x000000002fff62a4                dt_open_and_check
 .text.fdt_get_address
                0x000000002fff62c0       0x18 /home/ming/tf-a-stm32mp-2.2.r2-r0/tf-a-stm32mp-2.2.r2/../build/trusted/bl32/stm32mp_dt.o
                0x000000002fff62c0                fdt_get_address
 .text.fdt_get_status
                0x000000002fff62d8       0x64 /home/ming/tf-a-stm32mp-2.2.r2-r0/tf-a-stm32mp-2.2.r2/../build/trusted/bl32/stm32mp_dt.o
                0x000000002fff62d8                fdt_get_status
 .text.fdt_get_interrupt
                0x000000002fff633c       0x5c /home/ming/tf-a-stm32mp-2.2.r2-r0/tf-a-stm32mp-2.2.r2/../build/trusted/bl32/stm32mp_dt.o
                0x000000002fff633c                fdt_get_interrupt
 .text.fdt_read_uint32_default
                0x000000002fff6398       0x28 /home/ming/tf-a-stm32mp-2.2.r2-r0/tf-a-stm32mp-2.2.r2/../build/trusted/bl32/stm32mp_dt.o
                0x000000002fff6398                fdt_read_uint32_default
 .text.fdt_read_uint32_array
                0x000000002fff63c0       0x48 /home/ming/tf-a-stm32mp-2.2.r2-r0/tf-a-stm32mp-2.2.r2/../build/trusted/bl32/stm32mp_dt.o
                0x000000002fff63c0                fdt_read_uint32_array
 .text.dt_fill_device_info
                0x000000002fff6408       0x8c /home/ming/tf-a-stm32mp-2.2.r2-r0/tf-a-stm32mp-2.2.r2/../build/trusted/bl32/stm32mp_dt.o
                0x000000002fff6408                dt_fill_device_info
 .text.dt_get_node
                0x000000002fff6494       0x24 /home/ming/tf-a-stm32mp-2.2.r2-r0/tf-a-stm32mp-2.2.r2/../build/trusted/bl32/stm32mp_dt.o
                0x000000002fff6494                dt_get_node
 .text.dt_get_stdout_uart_info
                0x000000002fff64b8       0x1e /home/ming/tf-a-stm32mp-2.2.r2-r0/tf-a-stm32mp-2.2.r2/../build/trusted/bl32/stm32mp_dt.o
                0x000000002fff64b8                dt_get_stdout_uart_info
 *fill*         0x000000002fff64d6        0x2 
 .text.dt_get_node_by_compatible
                0x000000002fff64d8       0x28 /home/ming/tf-a-stm32mp-2.2.r2-r0/tf-a-stm32mp-2.2.r2/../build/trusted/bl32/stm32mp_dt.o
                0x000000002fff64d8                dt_get_node_by_compatible
 .text.dt_get_ddr_size
                0x000000002fff6500       0x24 /home/ming/tf-a-stm32mp-2.2.r2-r0/tf-a-stm32mp-2.2.r2/../build/trusted/bl32/stm32mp_dt.o
                0x000000002fff6500                dt_get_ddr_size
 .text.dt_get_all_opp_freqvolt
                0x000000002fff6524       0x94 /home/ming/tf-a-stm32mp-2.2.r2-r0/tf-a-stm32mp-2.2.r2/../build/trusted/bl32/stm32mp_dt.o
                0x000000002fff6524                dt_get_all_opp_freqvolt
 .text.dt_get_cpu_regulator_name
                0x000000002fff65b8       0x50 /home/ming/tf-a-stm32mp-2.2.r2-r0/tf-a-stm32mp-2.2.r2/../build/trusted/bl32/stm32mp_dt.o
                0x000000002fff65b8                dt_get_cpu_regulator_name
 .text.fdt_get_gpio_bank_pinctrl_node
                0x000000002fff6608       0x30 /home/ming/tf-a-stm32mp-2.2.r2-r0/tf-a-stm32mp-2.2.r2/../build/trusted/bl32/stm32mp_dt.o
                0x000000002fff6608                fdt_get_gpio_bank_pinctrl_node
 .text.fdt_get_gpioz_nbpins_from_dt
                0x000000002fff6638       0x9c /home/ming/tf-a-stm32mp-2.2.r2-r0/tf-a-stm32mp-2.2.r2/../build/trusted/bl32/stm32mp_dt.o
                0x000000002fff6638                fdt_get_gpioz_nbpins_from_dt
 .text.stm32mp_lock_shregs
                0x000000002fff66d4       0x18 /home/ming/tf-a-stm32mp-2.2.r2-r0/tf-a-stm32mp-2.2.r2/../build/trusted/bl32/stm32mp_shres_helpers.o
                0x000000002fff66d4                stm32mp_lock_shregs
 .text.stm32mp_unlock_shregs
                0x000000002fff66ec       0x18 /home/ming/tf-a-stm32mp-2.2.r2-r0/tf-a-stm32mp-2.2.r2/../build/trusted/bl32/stm32mp_shres_helpers.o
                0x000000002fff66ec                stm32mp_unlock_shregs
 .text.stm32mp_mmio_clrsetbits_32_shregs
                0x000000002fff6704       0x1e /home/ming/tf-a-stm32mp-2.2.r2-r0/tf-a-stm32mp-2.2.r2/../build/trusted/bl32/stm32mp_shres_helpers.o
                0x000000002fff6704                stm32mp_mmio_clrsetbits_32_shregs
 .text.stm32mp_mmio_clrbits_32_shregs
                0x000000002fff6722       0x1a /home/ming/tf-a-stm32mp-2.2.r2-r0/tf-a-stm32mp-2.2.r2/../build/trusted/bl32/stm32mp_shres_helpers.o
                0x000000002fff6722                stm32mp_mmio_clrbits_32_shregs
 .text.stm32mp_mmio_setbits_32_shregs
                0x000000002fff673c       0x18 /home/ming/tf-a-stm32mp-2.2.r2-r0/tf-a-stm32mp-2.2.r2/../build/trusted/bl32/stm32mp_shres_helpers.o
                0x000000002fff673c                stm32mp_mmio_setbits_32_shregs
 .text.stm32_clean_context
                0x000000002fff6754       0x1e /home/ming/tf-a-stm32mp-2.2.r2-r0/tf-a-stm32mp-2.2.r2/../build/trusted/bl32/stm32mp1_context.o
                0x000000002fff6754                stm32_clean_context
 .text.stm32mp1_pm_save_clock_cfg
                0x000000002fff6772       0x38 /home/ming/tf-a-stm32mp-2.2.r2-r0/tf-a-stm32mp-2.2.r2/../build/trusted/bl32/stm32mp1_context.o
                0x000000002fff6772                stm32mp1_pm_save_clock_cfg
 .text.stm32mp1_pm_restore_clock_cfg
                0x000000002fff67aa       0x38 /home/ming/tf-a-stm32mp-2.2.r2-r0/tf-a-stm32mp-2.2.r2/../build/trusted/bl32/stm32mp1_context.o
                0x000000002fff67aa                stm32mp1_pm_restore_clock_cfg
 *fill*         0x000000002fff67e2        0x2 
 .text.stm32_save_context
                0x000000002fff67e4       0x84 /home/ming/tf-a-stm32mp-2.2.r2-r0/tf-a-stm32mp-2.2.r2/../build/trusted/bl32/stm32mp1_context.o
                0x000000002fff67e4                stm32_save_context
 .text.stm32_restore_context
                0x000000002fff6868       0x84 /home/ming/tf-a-stm32mp-2.2.r2-r0/tf-a-stm32mp-2.2.r2/../build/trusted/bl32/stm32mp1_context.o
                0x000000002fff6868                stm32_restore_context
 .text.stm32_are_pll1_settings_valid_in_context
                0x000000002fff68ec       0x2c /home/ming/tf-a-stm32mp-2.2.r2-r0/tf-a-stm32mp-2.2.r2/../build/trusted/bl32/stm32mp1_context.o
                0x000000002fff68ec                stm32_are_pll1_settings_valid_in_context
 .text.stm32_save_ddr_training_area
                0x000000002fff6918       0x64 /home/ming/tf-a-stm32mp-2.2.r2-r0/tf-a-stm32mp-2.2.r2/../build/trusted/bl32/stm32mp1_context.o
                0x000000002fff6918                stm32_save_ddr_training_area
 .text.stm32mp1_dbgmcu_init
                0x000000002fff697c       0x2c /home/ming/tf-a-stm32mp-2.2.r2-r0/tf-a-stm32mp-2.2.r2/../build/trusted/bl32/stm32mp1_dbgmcu.o
 .text.stm32mp1_dbgmcu_get_chip_dev_id
                0x000000002fff69a8       0x30 /home/ming/tf-a-stm32mp-2.2.r2-r0/tf-a-stm32mp-2.2.r2/../build/trusted/bl32/stm32mp1_dbgmcu.o
                0x000000002fff69a8                stm32mp1_dbgmcu_get_chip_dev_id
 .text.stm32mp1_security_setup
                0x000000002fff69d8       0x58 /home/ming/tf-a-stm32mp-2.2.r2-r0/tf-a-stm32mp-2.2.r2/../build/trusted/bl32/stm32mp1_security.o
                0x000000002fff69d8                stm32mp1_security_setup
 .text.stm32mp1_syscfg_enable_io_compensation
                0x000000002fff6a30       0x68 /home/ming/tf-a-stm32mp-2.2.r2-r0/tf-a-stm32mp-2.2.r2/../build/trusted/bl32/stm32mp1_syscfg.o
                0x000000002fff6a30                stm32mp1_syscfg_enable_io_compensation
 .text.stm32mp1_syscfg_disable_io_compensation
                0x000000002fff6a98       0x34 /home/ming/tf-a-stm32mp-2.2.r2-r0/tf-a-stm32mp-2.2.r2/../build/trusted/bl32/stm32mp1_syscfg.o
                0x000000002fff6a98                stm32mp1_syscfg_disable_io_compensation
 .text.asm._cpu_data
                0x000000002fff6acc       0x10 /home/ming/tf-a-stm32mp-2.2.r2-r0/tf-a-stm32mp-2.2.r2/../build/trusted/bl32/cpu_data.o
                0x000000002fff6acc                _cpu_data
 .text.asm._cpu_data_by_index
                0x000000002fff6adc       0x18 /home/ming/tf-a-stm32mp-2.2.r2-r0/tf-a-stm32mp-2.2.r2/../build/trusted/bl32/cpu_data.o
                0x000000002fff6adc                _cpu_data_by_index
 .text.asm.reset_handler
                0x000000002fff6af4       0x38 /home/ming/tf-a-stm32mp-2.2.r2-r0/tf-a-stm32mp-2.2.r2/../build/trusted/bl32/cpu_helpers.o
                0x000000002fff6af4                reset_handler
 .text.asm.prepare_cpu_pwr_dwn
                0x000000002fff6b2c       0x44 /home/ming/tf-a-stm32mp-2.2.r2-r0/tf-a-stm32mp-2.2.r2/../build/trusted/bl32/cpu_helpers.o
                0x000000002fff6b2c                prepare_cpu_pwr_dwn
 .text.asm.init_cpu_ops
                0x000000002fff6b70       0x3c /home/ming/tf-a-stm32mp-2.2.r2-r0/tf-a-stm32mp-2.2.r2/../build/trusted/bl32/cpu_helpers.o
                0x000000002fff6b70                init_cpu_ops
 .text.asm.get_cpu_ops_ptr
                0x000000002fff6bac       0x44 /home/ming/tf-a-stm32mp-2.2.r2-r0/tf-a-stm32mp-2.2.r2/../build/trusted/bl32/cpu_helpers.o
                0x000000002fff6bac                get_cpu_ops_ptr
 .text.asm.print_errata_status
                0x000000002fff6bf0       0x34 /home/ming/tf-a-stm32mp-2.2.r2-r0/tf-a-stm32mp-2.2.r2/../build/trusted/bl32/cpu_helpers.o
                0x000000002fff6bf0                print_errata_status
 .text.asm.spin_lock
                0x000000002fff6c24       0x24 /home/ming/tf-a-stm32mp-2.2.r2-r0/tf-a-stm32mp-2.2.r2/../build/trusted/bl32/spinlock.o
                0x000000002fff6c24                spin_lock
 .text.asm.spin_unlock
                0x000000002fff6c48       0x18 /home/ming/tf-a-stm32mp-2.2.r2-r0/tf-a-stm32mp-2.2.r2/../build/trusted/bl32/spinlock.o
                0x000000002fff6c48                spin_unlock
 .text.asm.psci_do_pwrdown_cache_maintenance
                0x000000002fff6c60       0x18 /home/ming/tf-a-stm32mp-2.2.r2-r0/tf-a-stm32mp-2.2.r2/../build/trusted/bl32/psci_helpers.o
                0x000000002fff6c60                psci_do_pwrdown_cache_maintenance
 .text.asm.psci_do_pwrup_cache_maintenance
                0x000000002fff6c78       0x30 /home/ming/tf-a-stm32mp-2.2.r2-r0/tf-a-stm32mp-2.2.r2/../build/trusted/bl32/psci_helpers.o
                0x000000002fff6c78                psci_do_pwrup_cache_maintenance
 .text.asm.do_stack_maintenance
                0x000000002fff6ca8       0x3c /home/ming/tf-a-stm32mp-2.2.r2-r0/tf-a-stm32mp-2.2.r2/../build/trusted/bl32/psci_helpers.o
 .text.asm.psci_power_down_wfi
                0x000000002fff6ce4       0x10 /home/ming/tf-a-stm32mp-2.2.r2-r0/tf-a-stm32mp-2.2.r2/../build/trusted/bl32/psci_helpers.o
                0x000000002fff6ce4                psci_power_down_wfi
 .text.asm.plat_get_my_stack
                0x000000002fff6cf4       0x1c /home/ming/tf-a-stm32mp-2.2.r2-r0/tf-a-stm32mp-2.2.r2/../build/trusted/bl32/platform_mp_stack.o
                0x000000002fff6cf4                plat_get_my_stack
 .text.asm.plat_set_my_stack
                0x000000002fff6d10       0x20 /home/ming/tf-a-stm32mp-2.2.r2-r0/tf-a-stm32mp-2.2.r2/../build/trusted/bl32/platform_mp_stack.o
                0x000000002fff6d10                plat_set_my_stack
 .text.asm.do_panic
                0x000000002fff6d30       0x3c /home/ming/tf-a-stm32mp-2.2.r2-r0/tf-a-stm32mp-2.2.r2/../build/trusted/bl32/debug.o
                0x000000002fff6d30                do_panic
 .text.asm.report_undef_inst
                0x000000002fff6d6c       0x10 /home/ming/tf-a-stm32mp-2.2.r2-r0/tf-a-stm32mp-2.2.r2/../build/trusted/bl32/debug.o
                0x000000002fff6d6c                report_undef_inst
 .text.asm.report_prefetch_abort
                0x000000002fff6d7c       0x10 /home/ming/tf-a-stm32mp-2.2.r2-r0/tf-a-stm32mp-2.2.r2/../build/trusted/bl32/debug.o
                0x000000002fff6d7c                report_prefetch_abort
 .text.asm.report_data_abort
                0x000000002fff6d8c       0x10 /home/ming/tf-a-stm32mp-2.2.r2-r0/tf-a-stm32mp-2.2.r2/../build/trusted/bl32/debug.o
                0x000000002fff6d8c                report_data_abort
 .text.asm.asm_assert
                0x000000002fff6d9c       0x7c /home/ming/tf-a-stm32mp-2.2.r2-r0/tf-a-stm32mp-2.2.r2/../build/trusted/bl32/debug.o
                0x000000002fff6d9c                asm_assert
 .text.asm.asm_print_str
                0x000000002fff6e18       0x1c /home/ming/tf-a-stm32mp-2.2.r2-r0/tf-a-stm32mp-2.2.r2/../build/trusted/bl32/debug.o
                0x000000002fff6e18                asm_print_str
 .text.asm.asm_print_hex
                0x000000002fff6e34       0x34 /home/ming/tf-a-stm32mp-2.2.r2-r0/tf-a-stm32mp-2.2.r2/../build/trusted/bl32/debug.o
                0x000000002fff6e34                asm_print_hex
 .text.asm.flush_dcache_range
                0x000000002fff6e68       0x3c /home/ming/tf-a-stm32mp-2.2.r2-r0/tf-a-stm32mp-2.2.r2/../build/trusted/bl32/cache_helpers.o
                0x000000002fff6e68                flush_dcache_range
 .text.asm.clean_dcache_range
                0x000000002fff6ea4       0x3c /home/ming/tf-a-stm32mp-2.2.r2-r0/tf-a-stm32mp-2.2.r2/../build/trusted/bl32/cache_helpers.o
                0x000000002fff6ea4                clean_dcache_range
 .text.asm.inv_dcache_range
                0x000000002fff6ee0       0x3c /home/ming/tf-a-stm32mp-2.2.r2-r0/tf-a-stm32mp-2.2.r2/../build/trusted/bl32/cache_helpers.o
                0x000000002fff6ee0                inv_dcache_range
 .text.asm.do_dcsw_op
                0x000000002fff6f1c       0x9c /home/ming/tf-a-stm32mp-2.2.r2-r0/tf-a-stm32mp-2.2.r2/../build/trusted/bl32/cache_helpers.o
 .text.asm.dcsw_op_all
                0x000000002fff6fb8       0x14 /home/ming/tf-a-stm32mp-2.2.r2-r0/tf-a-stm32mp-2.2.r2/../build/trusted/bl32/cache_helpers.o
                0x000000002fff6fb8                dcsw_op_all
 .text.asm.dcsw_op_level1
                0x000000002fff6fcc       0x10 /home/ming/tf-a-stm32mp-2.2.r2-r0/tf-a-stm32mp-2.2.r2/../build/trusted/bl32/cache_helpers.o
                0x000000002fff6fcc                dcsw_op_level1
 .text.asm.zeromem
                0x000000002fff6fdc       0x64 /home/ming/tf-a-stm32mp-2.2.r2-r0/tf-a-stm32mp-2.2.r2/../build/trusted/bl32/misc_helpers.o
                0x000000002fff6fdc                zeromem
                0x000000002fff6fdc                zero_normalmem
 .text.asm.disable_mmu_secure
                0x000000002fff7040       0x1c /home/ming/tf-a-stm32mp-2.2.r2-r0/tf-a-stm32mp-2.2.r2/../build/trusted/bl32/misc_helpers.o
                0x000000002fff7040                disable_mmu_secure
 .text.asm.disable_mmu_icache_secure
                0x000000002fff705c        0xc /home/ming/tf-a-stm32mp-2.2.r2-r0/tf-a-stm32mp-2.2.r2/../build/trusted/bl32/misc_helpers.o
                0x000000002fff705c                disable_mmu_icache_secure
 .text.asm.plat_disable_acp
                0x000000002fff7068        0x4 /home/ming/tf-a-stm32mp-2.2.r2-r0/tf-a-stm32mp-2.2.r2/../build/trusted/bl32/platform_helpers.o
                0x000000002fff7068                plat_disable_acp
 .text          0x000000002fff706c       0x24 /home/ming/tf-a-stm32mp-2.2.r2-r0/tf-a-stm32mp-2.2.r2/../build/trusted/bl32/aeabi_uldivmod.o
                0x000000002fff706c                __aeabi_uldivmod
 .text.asm.console_stm32_core_init
                0x000000002fff7090       0x18 /home/ming/tf-a-stm32mp-2.2.r2-r0/tf-a-stm32mp-2.2.r2/../build/trusted/bl32/stm32_console.o
                0x000000002fff7090                console_stm32_core_init
 .text.asm.console_stm32_register
                0x000000002fff70a8       0x58 /home/ming/tf-a-stm32mp-2.2.r2-r0/tf-a-stm32mp-2.2.r2/../build/trusted/bl32/stm32_console.o
                0x000000002fff70a8                console_stm32_register
 .text.asm.console_stm32_core_putc
                0x000000002fff7100       0x48 /home/ming/tf-a-stm32mp-2.2.r2-r0/tf-a-stm32mp-2.2.r2/../build/trusted/bl32/stm32_console.o
                0x000000002fff7100                console_stm32_core_putc
 .text.asm.console_stm32_putc
                0x000000002fff7148       0x20 /home/ming/tf-a-stm32mp-2.2.r2-r0/tf-a-stm32mp-2.2.r2/../build/trusted/bl32/stm32_console.o
                0x000000002fff7148                console_stm32_putc
 .text.asm.console_stm32_core_flush
                0x000000002fff7168       0x30 /home/ming/tf-a-stm32mp-2.2.r2-r0/tf-a-stm32mp-2.2.r2/../build/trusted/bl32/stm32_console.o
                0x000000002fff7168                console_stm32_core_flush
 .text.asm.console_stm32_flush
                0x000000002fff7198       0x20 /home/ming/tf-a-stm32mp-2.2.r2-r0/tf-a-stm32mp-2.2.r2/../build/trusted/bl32/stm32_console.o
                0x000000002fff7198                console_stm32_flush
 .text.asm.enable_mmu_direct_svc_mon
                0x000000002fff71b8       0x80 /home/ming/tf-a-stm32mp-2.2.r2-r0/tf-a-stm32mp-2.2.r2/../build/trusted/bl32/enable_mmu.o
                0x000000002fff71b8                enable_mmu_direct_svc_mon
 .text.asm.cortex_a7_disable_smp
                0x000000002fff7238       0x18 /home/ming/tf-a-stm32mp-2.2.r2-r0/tf-a-stm32mp-2.2.r2/../build/trusted/bl32/cortex_a7.o
 .text.asm.cortex_a7_enable_smp
                0x000000002fff7250       0x14 /home/ming/tf-a-stm32mp-2.2.r2-r0/tf-a-stm32mp-2.2.r2/../build/trusted/bl32/cortex_a7.o
 .text.asm.cortex_a7_reset_func
                0x000000002fff7264        0x4 /home/ming/tf-a-stm32mp-2.2.r2-r0/tf-a-stm32mp-2.2.r2/../build/trusted/bl32/cortex_a7.o
 .text.asm.cortex_a7_core_pwr_dwn
                0x000000002fff7268       0x30 /home/ming/tf-a-stm32mp-2.2.r2-r0/tf-a-stm32mp-2.2.r2/../build/trusted/bl32/cortex_a7.o
 .text.asm.cortex_a7_cluster_pwr_dwn
                0x000000002fff7298       0x34 /home/ming/tf-a-stm32mp-2.2.r2-r0/tf-a-stm32mp-2.2.r2/../build/trusted/bl32/cortex_a7.o
 .text.asm.cortex_a7_errata_report
                0x000000002fff72cc        0x4 /home/ming/tf-a-stm32mp-2.2.r2-r0/tf-a-stm32mp-2.2.r2/../build/trusted/bl32/cortex_a7.o
 .text.asm.plat_report_exception
                0x000000002fff72d0       0x7c /home/ming/tf-a-stm32mp-2.2.r2-r0/tf-a-stm32mp-2.2.r2/../build/trusted/bl32/stm32mp1_helper.o
                0x000000002fff72d0                plat_report_exception
 .text.asm.plat_report_undef_inst
                0x000000002fff734c       0x30 /home/ming/tf-a-stm32mp-2.2.r2-r0/tf-a-stm32mp-2.2.r2/../build/trusted/bl32/stm32mp1_helper.o
                0x000000002fff734c                plat_report_undef_inst
 .text.asm.plat_report_prefetch_abort
                0x000000002fff737c       0x58 /home/ming/tf-a-stm32mp-2.2.r2-r0/tf-a-stm32mp-2.2.r2/../build/trusted/bl32/stm32mp1_helper.o
                0x000000002fff737c                plat_report_prefetch_abort
 .text.asm.plat_report_data_abort
                0x000000002fff73d4       0x58 /home/ming/tf-a-stm32mp-2.2.r2-r0/tf-a-stm32mp-2.2.r2/../build/trusted/bl32/stm32mp1_helper.o
                0x000000002fff73d4                plat_report_data_abort
 .text.asm.plat_reset_handler
                0x000000002fff742c        0x4 /home/ming/tf-a-stm32mp-2.2.r2-r0/tf-a-stm32mp-2.2.r2/../build/trusted/bl32/stm32mp1_helper.o
                0x000000002fff742c                plat_reset_handler
 .text.asm.plat_stm32mp1_get_core_pos
                0x000000002fff7430       0x10 /home/ming/tf-a-stm32mp-2.2.r2-r0/tf-a-stm32mp-2.2.r2/../build/trusted/bl32/stm32mp1_helper.o
 .text.asm.plat_my_core_pos
                0x000000002fff7440        0x8 /home/ming/tf-a-stm32mp-2.2.r2-r0/tf-a-stm32mp-2.2.r2/../build/trusted/bl32/stm32mp1_helper.o
                0x000000002fff7440                plat_my_core_pos
 .text.asm.plat_crash_console_init
                0x000000002fff7448       0x98 /home/ming/tf-a-stm32mp-2.2.r2-r0/tf-a-stm32mp-2.2.r2/../build/trusted/bl32/stm32mp1_helper.o
                0x000000002fff7448                plat_crash_console_init
 .text.asm.plat_crash_console_flush
                0x000000002fff74e0        0xc /home/ming/tf-a-stm32mp-2.2.r2-r0/tf-a-stm32mp-2.2.r2/../build/trusted/bl32/stm32mp1_helper.o
                0x000000002fff74e0                plat_crash_console_flush
 .text.asm.plat_crash_console_putc
                0x000000002fff74ec        0xc /home/ming/tf-a-stm32mp-2.2.r2-r0/tf-a-stm32mp-2.2.r2/../build/trusted/bl32/stm32mp1_helper.o
                0x000000002fff74ec                plat_crash_console_putc
 .text.asm.plat_panic_handler
                0x000000002fff74f8       0x14 /home/ming/tf-a-stm32mp-2.2.r2-r0/tf-a-stm32mp-2.2.r2/../build/trusted/bl32/stm32mp1_helper.o
                0x000000002fff74f8                plat_panic_handler
 .text.asm.wfi_svc_int_enable
                0x000000002fff750c       0x44 /home/ming/tf-a-stm32mp-2.2.r2-r0/tf-a-stm32mp-2.2.r2/../build/trusted/bl32/stm32mp1_helper.o
                0x000000002fff750c                wfi_svc_int_enable
 .text.fdt32_to_cpu
                0x000000002fff7550        0x4 /home/ming/tf-a-stm32mp-2.2.r2-r0/tf-a-stm32mp-2.2.r2/../build/trusted/lib/libfdt.a(fdt.o)
 .text.fdt_check_header
                0x000000002fff7554       0x58 /home/ming/tf-a-stm32mp-2.2.r2-r0/tf-a-stm32mp-2.2.r2/../build/trusted/lib/libfdt.a(fdt.o)
                0x000000002fff7554                fdt_check_header
 .text.fdt_offset_ptr
                0x000000002fff75ac       0x3c /home/ming/tf-a-stm32mp-2.2.r2-r0/tf-a-stm32mp-2.2.r2/../build/trusted/lib/libfdt.a(fdt.o)
                0x000000002fff75ac                fdt_offset_ptr
 .text.fdt_next_tag
                0x000000002fff75e8       0xcc /home/ming/tf-a-stm32mp-2.2.r2-r0/tf-a-stm32mp-2.2.r2/../build/trusted/lib/libfdt.a(fdt.o)
                0x000000002fff75e8                fdt_next_tag
 .text.fdt_check_node_offset_
                0x000000002fff76b4       0x24 /home/ming/tf-a-stm32mp-2.2.r2-r0/tf-a-stm32mp-2.2.r2/../build/trusted/lib/libfdt.a(fdt.o)
                0x000000002fff76b4                fdt_check_node_offset_
 .text.fdt_check_prop_offset_
                0x000000002fff76d8       0x24 /home/ming/tf-a-stm32mp-2.2.r2-r0/tf-a-stm32mp-2.2.r2/../build/trusted/lib/libfdt.a(fdt.o)
                0x000000002fff76d8                fdt_check_prop_offset_
 .text.fdt_next_node
                0x000000002fff76fc       0x6e /home/ming/tf-a-stm32mp-2.2.r2-r0/tf-a-stm32mp-2.2.r2/../build/trusted/lib/libfdt.a(fdt.o)
                0x000000002fff76fc                fdt_next_node
 .text.fdt_first_subnode
                0x000000002fff776a       0x28 /home/ming/tf-a-stm32mp-2.2.r2-r0/tf-a-stm32mp-2.2.r2/../build/trusted/lib/libfdt.a(fdt.o)
                0x000000002fff776a                fdt_first_subnode
 .text.fdt_next_subnode
                0x000000002fff7792       0x2e /home/ming/tf-a-stm32mp-2.2.r2-r0/tf-a-stm32mp-2.2.r2/../build/trusted/lib/libfdt.a(fdt.o)
                0x000000002fff7792                fdt_next_subnode
 .text.fdt_address_cells
                0x000000002fff77c0       0x48 /home/ming/tf-a-stm32mp-2.2.r2-r0/tf-a-stm32mp-2.2.r2/../build/trusted/lib/libfdt.a(fdt_addresses.o)
                0x000000002fff77c0                fdt_address_cells
 .text.fdt32_to_cpu
                0x000000002fff7808        0x4 /home/ming/tf-a-stm32mp-2.2.r2-r0/tf-a-stm32mp-2.2.r2/../build/trusted/lib/libfdt.a(fdt_ro.o)
 .text.nextprop_
                0x000000002fff780c       0x32 /home/ming/tf-a-stm32mp-2.2.r2-r0/tf-a-stm32mp-2.2.r2/../build/trusted/lib/libfdt.a(fdt_ro.o)
 .text.fdt_get_property_by_offset_
                0x000000002fff783e       0x36 /home/ming/tf-a-stm32mp-2.2.r2-r0/tf-a-stm32mp-2.2.r2/../build/trusted/lib/libfdt.a(fdt_ro.o)
 .text.fdt_string
                0x000000002fff7874       0x10 /home/ming/tf-a-stm32mp-2.2.r2-r0/tf-a-stm32mp-2.2.r2/../build/trusted/lib/libfdt.a(fdt_ro.o)
                0x000000002fff7874                fdt_string
 .text.fdt_get_name
                0x000000002fff7884       0x60 /home/ming/tf-a-stm32mp-2.2.r2-r0/tf-a-stm32mp-2.2.r2/../build/trusted/lib/libfdt.a(fdt_ro.o)
                0x000000002fff7884                fdt_get_name
 .text.fdt_subnode_offset_namelen
                0x000000002fff78e4       0x84 /home/ming/tf-a-stm32mp-2.2.r2-r0/tf-a-stm32mp-2.2.r2/../build/trusted/lib/libfdt.a(fdt_ro.o)
                0x000000002fff78e4                fdt_subnode_offset_namelen
 .text.fdt_subnode_offset
                0x000000002fff7968       0x1e /home/ming/tf-a-stm32mp-2.2.r2-r0/tf-a-stm32mp-2.2.r2/../build/trusted/lib/libfdt.a(fdt_ro.o)
                0x000000002fff7968                fdt_subnode_offset
 .text.fdt_first_property_offset
                0x000000002fff7986       0x18 /home/ming/tf-a-stm32mp-2.2.r2-r0/tf-a-stm32mp-2.2.r2/../build/trusted/lib/libfdt.a(fdt_ro.o)
                0x000000002fff7986                fdt_first_property_offset
 .text.fdt_next_property_offset
                0x000000002fff799e       0x18 /home/ming/tf-a-stm32mp-2.2.r2-r0/tf-a-stm32mp-2.2.r2/../build/trusted/lib/libfdt.a(fdt_ro.o)
                0x000000002fff799e                fdt_next_property_offset
 .text.fdt_get_property_namelen_
                0x000000002fff79b6       0x78 /home/ming/tf-a-stm32mp-2.2.r2-r0/tf-a-stm32mp-2.2.r2/../build/trusted/lib/libfdt.a(fdt_ro.o)
 .text.fdt_getprop_namelen
                0x000000002fff7a2e       0x40 /home/ming/tf-a-stm32mp-2.2.r2-r0/tf-a-stm32mp-2.2.r2/../build/trusted/lib/libfdt.a(fdt_ro.o)
                0x000000002fff7a2e                fdt_getprop_namelen
 .text.fdt_getprop
                0x000000002fff7a6e       0x22 /home/ming/tf-a-stm32mp-2.2.r2-r0/tf-a-stm32mp-2.2.r2/../build/trusted/lib/libfdt.a(fdt_ro.o)
                0x000000002fff7a6e                fdt_getprop
 .text.fdt_get_phandle
                0x000000002fff7a90       0x44 /home/ming/tf-a-stm32mp-2.2.r2-r0/tf-a-stm32mp-2.2.r2/../build/trusted/lib/libfdt.a(fdt_ro.o)
                0x000000002fff7a90                fdt_get_phandle
 .text.fdt_get_alias_namelen
                0x000000002fff7ad4       0x2c /home/ming/tf-a-stm32mp-2.2.r2-r0/tf-a-stm32mp-2.2.r2/../build/trusted/lib/libfdt.a(fdt_ro.o)
                0x000000002fff7ad4                fdt_get_alias_namelen
 .text.fdt_path_offset_namelen
                0x000000002fff7b00       0x88 /home/ming/tf-a-stm32mp-2.2.r2-r0/tf-a-stm32mp-2.2.r2/../build/trusted/lib/libfdt.a(fdt_ro.o)
                0x000000002fff7b00                fdt_path_offset_namelen
 .text.fdt_path_offset
                0x000000002fff7b88       0x1a /home/ming/tf-a-stm32mp-2.2.r2-r0/tf-a-stm32mp-2.2.r2/../build/trusted/lib/libfdt.a(fdt_ro.o)
                0x000000002fff7b88                fdt_path_offset
 .text.fdt_supernode_atdepth_offset
                0x000000002fff7ba2       0x72 /home/ming/tf-a-stm32mp-2.2.r2-r0/tf-a-stm32mp-2.2.r2/../build/trusted/lib/libfdt.a(fdt_ro.o)
                0x000000002fff7ba2                fdt_supernode_atdepth_offset
 .text.fdt_node_depth
                0x000000002fff7c14       0x1e /home/ming/tf-a-stm32mp-2.2.r2-r0/tf-a-stm32mp-2.2.r2/../build/trusted/lib/libfdt.a(fdt_ro.o)
                0x000000002fff7c14                fdt_node_depth
 .text.fdt_parent_offset
                0x000000002fff7c32       0x20 /home/ming/tf-a-stm32mp-2.2.r2-r0/tf-a-stm32mp-2.2.r2/../build/trusted/lib/libfdt.a(fdt_ro.o)
                0x000000002fff7c32                fdt_parent_offset
 .text.fdt_node_offset_by_phandle
                0x000000002fff7c52       0x42 /home/ming/tf-a-stm32mp-2.2.r2-r0/tf-a-stm32mp-2.2.r2/../build/trusted/lib/libfdt.a(fdt_ro.o)
                0x000000002fff7c52                fdt_node_offset_by_phandle
 .text.fdt_stringlist_contains
                0x000000002fff7c94       0x46 /home/ming/tf-a-stm32mp-2.2.r2-r0/tf-a-stm32mp-2.2.r2/../build/trusted/lib/libfdt.a(fdt_ro.o)
                0x000000002fff7c94                fdt_stringlist_contains
 .text.fdt_stringlist_search
                0x000000002fff7cda       0x66 /home/ming/tf-a-stm32mp-2.2.r2-r0/tf-a-stm32mp-2.2.r2/../build/trusted/lib/libfdt.a(fdt_ro.o)
                0x000000002fff7cda                fdt_stringlist_search
 .text.fdt_node_check_compatible
                0x000000002fff7d40       0x28 /home/ming/tf-a-stm32mp-2.2.r2-r0/tf-a-stm32mp-2.2.r2/../build/trusted/lib/libfdt.a(fdt_ro.o)
                0x000000002fff7d40                fdt_node_check_compatible
 .text.fdt_node_offset_by_compatible
                0x000000002fff7d68       0x40 /home/ming/tf-a-stm32mp-2.2.r2-r0/tf-a-stm32mp-2.2.r2/../build/trusted/lib/libfdt.a(fdt_ro.o)
                0x000000002fff7d68                fdt_node_offset_by_compatible
 .text.__assert
                0x000000002fff7da8       0x18 /home/ming/tf-a-stm32mp-2.2.r2-r0/tf-a-stm32mp-2.2.r2/../build/trusted/lib/libc.a(assert.o)
                0x000000002fff7da8                __assert
 .text.memchr   0x000000002fff7dc0       0x1c /home/ming/tf-a-stm32mp-2.2.r2-r0/tf-a-stm32mp-2.2.r2/../build/trusted/lib/libc.a(memchr.o)
                0x000000002fff7dc0                memchr
 .text.memcmp   0x000000002fff7ddc       0x1c /home/ming/tf-a-stm32mp-2.2.r2-r0/tf-a-stm32mp-2.2.r2/../build/trusted/lib/libc.a(memcmp.o)
                0x000000002fff7ddc                memcmp
 .text.memcpy   0x000000002fff7df8       0x16 /home/ming/tf-a-stm32mp-2.2.r2-r0/tf-a-stm32mp-2.2.r2/../build/trusted/lib/libc.a(memcpy.o)
                0x000000002fff7df8                memcpy
 .text.memmove  0x000000002fff7e0e       0x2c /home/ming/tf-a-stm32mp-2.2.r2-r0/tf-a-stm32mp-2.2.r2/../build/trusted/lib/libc.a(memmove.o)
                0x000000002fff7e0e                memmove
 .text.memset   0x000000002fff7e3a       0x10 /home/ming/tf-a-stm32mp-2.2.r2-r0/tf-a-stm32mp-2.2.r2/../build/trusted/lib/libc.a(memset.o)
                0x000000002fff7e3a                memset
 .text.unsigned_num_print
                0x000000002fff7e4a       0x6c /home/ming/tf-a-stm32mp-2.2.r2-r0/tf-a-stm32mp-2.2.r2/../build/trusted/lib/libc.a(printf.o)
 *fill*         0x000000002fff7eb6        0x2 
 .text.vprintf  0x000000002fff7eb8      0x1b0 /home/ming/tf-a-stm32mp-2.2.r2-r0/tf-a-stm32mp-2.2.r2/../build/trusted/lib/libc.a(printf.o)
                0x000000002fff7eb8                vprintf
 .text.printf   0x000000002fff8068       0x1a /home/ming/tf-a-stm32mp-2.2.r2-r0/tf-a-stm32mp-2.2.r2/../build/trusted/lib/libc.a(printf.o)
                0x000000002fff8068                printf
 .text.putchar  0x000000002fff8082       0x16 /home/ming/tf-a-stm32mp-2.2.r2-r0/tf-a-stm32mp-2.2.r2/../build/trusted/lib/libc.a(putchar.o)
                0x000000002fff8082                putchar
 .text.strchr   0x000000002fff8098       0x16 /home/ming/tf-a-stm32mp-2.2.r2-r0/tf-a-stm32mp-2.2.r2/../build/trusted/lib/libc.a(strchr.o)
                0x000000002fff8098                strchr
 .text.strcmp   0x000000002fff80ae       0x18 /home/ming/tf-a-stm32mp-2.2.r2-r0/tf-a-stm32mp-2.2.r2/../build/trusted/lib/libc.a(strcmp.o)
                0x000000002fff80ae                strcmp
 .text.strlcpy  0x000000002fff80c6       0x36 /home/ming/tf-a-stm32mp-2.2.r2-r0/tf-a-stm32mp-2.2.r2/../build/trusted/lib/libc.a(strlcpy.o)
                0x000000002fff80c6                strlcpy
 .text.strlen   0x000000002fff80fc       0x10 /home/ming/tf-a-stm32mp-2.2.r2-r0/tf-a-stm32mp-2.2.r2/../build/trusted/lib/libc.a(strlen.o)
                0x000000002fff80fc                strlen
 .text.strncmp  0x000000002fff810c       0x28 /home/ming/tf-a-stm32mp-2.2.r2-r0/tf-a-stm32mp-2.2.r2/../build/trusted/lib/libc.a(strncmp.o)
                0x000000002fff810c                strncmp
 .text.strnlen  0x000000002fff8134       0x14 /home/ming/tf-a-stm32mp-2.2.r2-r0/tf-a-stm32mp-2.2.r2/../build/trusted/lib/libc.a(strnlen.o)
                0x000000002fff8134                strnlen
 .text.strrchr  0x000000002fff8148       0x1a /home/ming/tf-a-stm32mp-2.2.r2-r0/tf-a-stm32mp-2.2.r2/../build/trusted/lib/libc.a(strrchr.o)
                0x000000002fff8148                strrchr
 *(.rodata*)
 .rodata.build_message
                0x000000002fff8162       0x1e /home/ming/tf-a-stm32mp-2.2.r2-r0/tf-a-stm32mp-2.2.r2/../build/trusted/bl32/build_message.o
                0x000000002fff8162                build_message
 .rodata.version_string
                0x000000002fff8180       0x12 /home/ming/tf-a-stm32mp-2.2.r2-r0/tf-a-stm32mp-2.2.r2/../build/trusted/bl32/build_message.o
                0x000000002fff8180                version_string
 *fill*         0x000000002fff8192        0x2 
 .rodata.psci_args.7182
                0x000000002fff8194        0xc /home/ming/tf-a-stm32mp-2.2.r2-r0/tf-a-stm32mp-2.2.r2/../build/trusted/bl32/sp_min_main.o
 .rodata.smc_get_ctx.str1.1
                0x000000002fff81a0       0x1a /home/ming/tf-a-stm32mp-2.2.r2-r0/tf-a-stm32mp-2.2.r2/../build/trusted/bl32/sp_min_main.o
 .rodata.sp_min_main.str1.1
                0x000000002fff81ba       0x5e /home/ming/tf-a-stm32mp-2.2.r2-r0/tf-a-stm32mp-2.2.r2/../build/trusted/bl32/sp_min_main.o
 .rodata.handle_runtime_svc.str1.1
                0x000000002fff8218       0x15 /home/ming/tf-a-stm32mp-2.2.r2-r0/tf-a-stm32mp-2.2.r2/../build/trusted/bl32/runtime_svc.o
 .rodata.runtime_svc_init.str1.1
                0x000000002fff822d       0x50 /home/ming/tf-a-stm32mp-2.2.r2-r0/tf-a-stm32mp-2.2.r2/../build/trusted/bl32/runtime_svc.o
 .rodata.std_svc_setup.str1.1
                0x000000002fff827d       0x21 /home/ming/tf-a-stm32mp-2.2.r2-r0/tf-a-stm32mp-2.2.r2/../build/trusted/bl32/std_svc_setup.o
 .rodata.std_svc_smc_handler.str1.1
                0x000000002fff829e       0x2d /home/ming/tf-a-stm32mp-2.2.r2-r0/tf-a-stm32mp-2.2.r2/../build/trusted/bl32/std_svc_setup.o
 .rodata.str1.1
                0x000000002fff82cb        0x8 /home/ming/tf-a-stm32mp-2.2.r2-r0/tf-a-stm32mp-2.2.r2/../build/trusted/bl32/std_svc_setup.o
 .rodata.cm_setup_context.str1.1
                0x000000002fff82d3       0x27 /home/ming/tf-a-stm32mp-2.2.r2-r0/tf-a-stm32mp-2.2.r2/../build/trusted/bl32/context_mgmt.o
 .rodata.psci_do_cpu_off.str1.1
                0x000000002fff82fa       0x14 /home/ming/tf-a-stm32mp-2.2.r2-r0/tf-a-stm32mp-2.2.r2/../build/trusted/bl32/psci_off.o
 .rodata.psci_cpu_on_start.str1.1
                0x000000002fff830e       0x13 /home/ming/tf-a-stm32mp-2.2.r2-r0/tf-a-stm32mp-2.2.r2/../build/trusted/bl32/psci_on.o
 .rodata.psci_cpu_suspend_start.str1.1
                0x000000002fff8321       0x18 /home/ming/tf-a-stm32mp-2.2.r2-r0/tf-a-stm32mp-2.2.r2/../build/trusted/bl32/psci_suspend.o
 .rodata.psci_print_power_domain_map.str1.1
                0x000000002fff8339       0x91 /home/ming/tf-a-stm32mp-2.2.r2-r0/tf-a-stm32mp-2.2.r2/../build/trusted/bl32/psci_common.o
 *fill*         0x000000002fff83ca        0x2 
 .rodata.psci_state_type_str.7437
                0x000000002fff83cc        0xc /home/ming/tf-a-stm32mp-2.2.r2-r0/tf-a-stm32mp-2.2.r2/../build/trusted/bl32/psci_common.o
 .rodata.psci_validate_power_state.str1.1
                0x000000002fff83d8       0x17 /home/ming/tf-a-stm32mp-2.2.r2-r0/tf-a-stm32mp-2.2.r2/../build/trusted/bl32/psci_common.o
 .rodata.psci_warmboot_entrypoint.str1.1
                0x000000002fff83ef       0x20 /home/ming/tf-a-stm32mp-2.2.r2-r0/tf-a-stm32mp-2.2.r2/../build/trusted/bl32/psci_common.o
 .rodata.str1.1
                0x000000002fff840f        0xe /home/ming/tf-a-stm32mp-2.2.r2-r0/tf-a-stm32mp-2.2.r2/../build/trusted/bl32/psci_common.o
                                         0x11 (size before relaxing)
 .rodata.psci_cpu_suspend.str1.1
                0x000000002fff841d       0x48 /home/ming/tf-a-stm32mp-2.2.r2-r0/tf-a-stm32mp-2.2.r2/../build/trusted/bl32/psci_main.o
 .rodata.psci_smc_handler.str1.1
                0x000000002fff8465       0x20 /home/ming/tf-a-stm32mp-2.2.r2-r0/tf-a-stm32mp-2.2.r2/../build/trusted/bl32/psci_main.o
 .rodata.psci_setup.str1.1
                0x000000002fff8485       0x16 /home/ming/tf-a-stm32mp-2.2.r2-r0/tf-a-stm32mp-2.2.r2/../build/trusted/bl32/psci_setup.o
 .rodata.psci_system_off.str1.1
                0x000000002fff849b       0x1b /home/ming/tf-a-stm32mp-2.2.r2-r0/tf-a-stm32mp-2.2.r2/../build/trusted/bl32/psci_system_off.o
 .rodata.psci_mem_protect.str1.1
                0x000000002fff84b6       0x1c /home/ming/tf-a-stm32mp-2.2.r2-r0/tf-a-stm32mp-2.2.r2/../build/trusted/bl32/psci_mem_protect.o
 .rodata.bakery_lock_get.str1.1
                0x000000002fff84d2       0x26 /home/ming/tf-a-stm32mp-2.2.r2-r0/tf-a-stm32mp-2.2.r2/../build/trusted/bl32/bakery_lock_normal.o
 .rodata.rcc_calibration.str1.1
                0x000000002fff84f8       0x2d /home/ming/tf-a-stm32mp-2.2.r2-r0/tf-a-stm32mp-2.2.r2/../build/trusted/bl32/stm32mp1_calib.o
 .rodata.stm32mp1_calib_init.str1.1
                0x000000002fff8525       0x4b /home/ming/tf-a-stm32mp-2.2.r2-r0/tf-a-stm32mp-2.2.r2/../build/trusted/bl32/stm32mp1_calib.o
 .rodata.etzpc_configure_decprot.str1.1
                0x000000002fff8570       0x19 /home/ming/tf-a-stm32mp-2.2.r2-r0/tf-a-stm32mp-2.2.r2/../build/trusted/bl32/etzpc.o
 .rodata.etzpc_init.str1.1
                0x000000002fff8589       0x5a /home/ming/tf-a-stm32mp-2.2.r2-r0/tf-a-stm32mp-2.2.r2/../build/trusted/bl32/etzpc.o
 .rodata.stm32_rng_init.str1.1
                0x000000002fff85e3       0x28 /home/ming/tf-a-stm32mp-2.2.r2-r0/tf-a-stm32mp-2.2.r2/../build/trusted/bl32/stm32_rng.o
 .rodata.stm32_rng_read.str1.1
                0x000000002fff860b        0xc /home/ming/tf-a-stm32mp-2.2.r2-r0/tf-a-stm32mp-2.2.r2/../build/trusted/bl32/stm32_rng.o
 .rodata.month_len.6646
                0x000000002fff8617        0xc /home/ming/tf-a-stm32mp-2.2.r2-r0/tf-a-stm32mp-2.2.r2/../build/trusted/bl32/stm32_rtc.o
 .rodata.stm32_rtc_get_date.str1.1
                0x000000002fff8623       0x1b /home/ming/tf-a-stm32mp-2.2.r2-r0/tf-a-stm32mp-2.2.r2/../build/trusted/bl32/stm32_rtc.o
 .rodata.stm32_rtc_init.str1.1
                0x000000002fff863e       0x10 /home/ming/tf-a-stm32mp-2.2.r2-r0/tf-a-stm32mp-2.2.r2/../build/trusted/bl32/stm32_rtc.o
 .rodata.stm32_tamp_configure_external.str1.1
                0x000000002fff864e       0x26 /home/ming/tf-a-stm32mp-2.2.r2-r0/tf-a-stm32mp-2.2.r2/../build/trusted/bl32/stm32_tamp.o
 .rodata.stm32_tamp_configure_internal.str1.1
                0x000000002fff8674       0x1f /home/ming/tf-a-stm32mp-2.2.r2-r0/tf-a-stm32mp-2.2.r2/../build/trusted/bl32/stm32_tamp.o
 .rodata.stm32_tamp_init.str1.1
                0x000000002fff8693       0x4e /home/ming/tf-a-stm32mp-2.2.r2-r0/tf-a-stm32mp-2.2.r2/../build/trusted/bl32/stm32_tamp.o
 .rodata.stm32_tamp_it_handler.str1.1
                0x000000002fff86e1       0x3a /home/ming/tf-a-stm32mp-2.2.r2-r0/tf-a-stm32mp-2.2.r2/../build/trusted/bl32/stm32_tamp.o
 .rodata.__func__.6554
                0x000000002fff871b       0x18 /home/ming/tf-a-stm32mp-2.2.r2-r0/tf-a-stm32mp-2.2.r2/../build/trusted/bl32/stm32_timer.o
 .rodata.stm32_timer_config.str1.1
                0x000000002fff8733       0x2f /home/ming/tf-a-stm32mp-2.2.r2-r0/tf-a-stm32mp-2.2.r2/../build/trusted/bl32/stm32_timer.o
 .rodata.stm32_timer_init.str1.1
                0x000000002fff8762       0x47 /home/ming/tf-a-stm32mp-2.2.r2-r0/tf-a-stm32mp-2.2.r2/../build/trusted/bl32/stm32_timer.o
 .rodata.stm32_timer_start_capture.part.0.str1.1
                0x000000002fff87a9       0x1b /home/ming/tf-a-stm32mp-2.2.r2-r0/tf-a-stm32mp-2.2.r2/../build/trusted/bl32/stm32_timer.o
 .rodata.BL_CODE_BASE
                0x000000002fff87c4        0x4 /home/ming/tf-a-stm32mp-2.2.r2-r0/tf-a-stm32mp-2.2.r2/../build/trusted/bl32/sp_min_setup.o
 .rodata.sp_min_early_platform_setup2.str1.1
                0x000000002fff87c8       0x27 /home/ming/tf-a-stm32mp-2.2.r2-r0/tf-a-stm32mp-2.2.r2/../build/trusted/bl32/sp_min_setup.o
 .rodata.sp_min_plat_fiq_handler.str1.1
                0x000000002fff87ef       0xc9 /home/ming/tf-a-stm32mp-2.2.r2-r0/tf-a-stm32mp-2.2.r2/../build/trusted/bl32/sp_min_setup.o
 .rodata.sp_min_platform_setup.str1.1
                0x000000002fff88b8       0x4c /home/ming/tf-a-stm32mp-2.2.r2-r0/tf-a-stm32mp-2.2.r2/../build/trusted/bl32/sp_min_setup.o
 .rodata.stm32mp1_tamper_action.str1.1
                0x000000002fff8904       0x13 /home/ming/tf-a-stm32mp-2.2.r2-r0/tf-a-stm32mp-2.2.r2/../build/trusted/bl32/sp_min_setup.o
 .rodata.str1.1
                0x000000002fff8917       0x6e /home/ming/tf-a-stm32mp-2.2.r2-r0/tf-a-stm32mp-2.2.r2/../build/trusted/bl32/sp_min_setup.o
 *fill*         0x000000002fff8985        0x3 
 .rodata.tamper_name
                0x000000002fff8988       0x18 /home/ming/tf-a-stm32mp-2.2.r2-r0/tf-a-stm32mp-2.2.r2/../build/trusted/bl32/sp_min_setup.o
 .rodata.config_pwr
                0x000000002fff89a0       0x54 /home/ming/tf-a-stm32mp-2.2.r2-r0/tf-a-stm32mp-2.2.r2/../build/trusted/bl32/stm32mp1_low_power.o
 .rodata.stm32_apply_pmic_suspend_config.str1.1
                0x000000002fff89f4       0x26 /home/ming/tf-a-stm32mp-2.2.r2-r0/tf-a-stm32mp-2.2.r2/../build/trusted/bl32/stm32mp1_low_power.o
 .rodata.stm32_enter_low_power.str1.1
                0x000000002fff8a1a       0x28 /home/ming/tf-a-stm32mp-2.2.r2-r0/tf-a-stm32mp-2.2.r2/../build/trusted/bl32/stm32mp1_low_power.o
 .rodata.str1.1
                0x000000002fff8a42       0x22 /home/ming/tf-a-stm32mp-2.2.r2-r0/tf-a-stm32mp-2.2.r2/../build/trusted/bl32/stm32mp1_low_power.o
                                         0x31 (size before relaxing)
 .rodata.stm32_cpu_standby.str1.1
                0x000000002fff8a64       0x1f /home/ming/tf-a-stm32mp-2.2.r2-r0/tf-a-stm32mp-2.2.r2/../build/trusted/bl32/stm32mp1_pm.o
 *fill*         0x000000002fff8a83        0x1 
 .rodata.stm32_psci_ops
                0x000000002fff8a84       0x54 /home/ming/tf-a-stm32mp-2.2.r2-r0/tf-a-stm32mp-2.2.r2/../build/trusted/bl32/stm32mp1_pm.o
 .rodata.stm32mp1_get_lp_soc_mode.str1.1
                0x000000002fff8ad8       0x29 /home/ming/tf-a-stm32mp-2.2.r2-r0/tf-a-stm32mp-2.2.r2/../build/trusted/bl32/stm32mp1_power_config.o
 .rodata.stm32mp1_init_lp_states.str1.1
                0x000000002fff8b01       0xbe /home/ming/tf-a-stm32mp-2.2.r2-r0/tf-a-stm32mp-2.2.r2/../build/trusted/bl32/stm32mp1_power_config.o
 .rodata.check_decprot.str1.1
                0x000000002fff8bbf       0x66 /home/ming/tf-a-stm32mp-2.2.r2-r0/tf-a-stm32mp-2.2.r2/../build/trusted/bl32/stm32mp1_shared_resources.o
 .rodata.get_gpioz_nbpin.str1.1
                0x000000002fff8c25       0x2d /home/ming/tf-a-stm32mp-2.2.r2-r0/tf-a-stm32mp-2.2.r2/../build/trusted/bl32/stm32mp1_shared_resources.o
 .rodata.register_periph.str1.1
                0x000000002fff8c52       0x2b /home/ming/tf-a-stm32mp-2.2.r2-r0/tf-a-stm32mp-2.2.r2/../build/trusted/bl32/stm32mp1_shared_resources.o
 *fill*         0x000000002fff8c7d        0x3 
 .rodata.shres2decprot_tbl
                0x000000002fff8c80       0x90 /home/ming/tf-a-stm32mp-2.2.r2-r0/tf-a-stm32mp-2.2.r2/../build/trusted/bl32/stm32mp1_shared_resources.o
 .rodata.shres2str_id_tbl
                0x000000002fff8d10       0x50 /home/ming/tf-a-stm32mp-2.2.r2-r0/tf-a-stm32mp-2.2.r2/../build/trusted/bl32/stm32mp1_shared_resources.o
 .rodata.stm32mp_lock_periph_registering.str1.1
                0x000000002fff8d60       0x57 /home/ming/tf-a-stm32mp-2.2.r2-r0/tf-a-stm32mp-2.2.r2/../build/trusted/bl32/stm32mp1_shared_resources.o
                                         0x62 (size before relaxing)
 .rodata.stm32mp_register_secure_gpio.str1.1
                0x000000002fff8db7       0x21 /home/ming/tf-a-stm32mp-2.2.r2-r0/tf-a-stm32mp-2.2.r2/../build/trusted/bl32/stm32mp1_shared_resources.o
 .rodata.str1.1
                0x000000002fff8dd8       0x9a /home/ming/tf-a-stm32mp-2.2.r2-r0/tf-a-stm32mp-2.2.r2/../build/trusted/bl32/stm32mp1_shared_resources.o
 .rodata.stm32mp1_power_domain_tree_desc
                0x000000002fff8e72        0x2 /home/ming/tf-a-stm32mp-2.2.r2-r0/tf-a-stm32mp-2.2.r2/../build/trusted/bl32/stm32mp1_topology.o
 .rodata.gicv2_secure_spis_configure_props.str1.1
                0x000000002fff8e74       0x23 /home/ming/tf-a-stm32mp-2.2.r2-r0/tf-a-stm32mp-2.2.r2/../build/trusted/bl32/gicv2_helpers.o
 .rodata.gicv2_cpuif_enable.str1.1
                0x000000002fff8e97       0x20 /home/ming/tf-a-stm32mp-2.2.r2-r0/tf-a-stm32mp-2.2.r2/../build/trusted/bl32/gicv2_main.o
 .rodata.gicv2_driver_init.str1.1
                0x000000002fff8eb7       0x1f /home/ming/tf-a-stm32mp-2.2.r2-r0/tf-a-stm32mp-2.2.r2/../build/trusted/bl32/gicv2_main.o
 .rodata.stm32_gic_enable_spi.str1.1
                0x000000002fff8ed6       0x28 /home/ming/tf-a-stm32mp-2.2.r2-r0/tf-a-stm32mp-2.2.r2/../build/trusted/bl32/stm32_gic.o
                                         0x38 (size before relaxing)
 .rodata.stm32_gic_init.str1.1
                0x000000002fff8efe       0x23 /home/ming/tf-a-stm32mp-2.2.r2-r0/tf-a-stm32mp-2.2.r2/../build/trusted/bl32/stm32_gic.o
                                         0x27 (size before relaxing)
 *fill*         0x000000002fff8f21        0x3 
 .rodata.stm32_interrupt_props
                0x000000002fff8f24       0x2c /home/ming/tf-a-stm32mp-2.2.r2-r0/tf-a-stm32mp-2.2.r2/../build/trusted/bl32/stm32_gic.o
 .rodata.plat_get_target_pwr_state.str1.1
                0x000000002fff8f50       0x1f /home/ming/tf-a-stm32mp-2.2.r2-r0/tf-a-stm32mp-2.2.r2/../build/trusted/bl32/plat_psci_common.o
 .rodata.stm32mp1_svc_smc_handler.str1.1
                0x000000002fff8f6f       0x2c /home/ming/tf-a-stm32mp-2.2.r2-r0/tf-a-stm32mp-2.2.r2/../build/trusted/bl32/stm32mp1_svc_setup.o
 .rodata.str1.1
                0x000000002fff8f9b       0x11 /home/ming/tf-a-stm32mp-2.2.r2-r0/tf-a-stm32mp-2.2.r2/../build/trusted/bl32/stm32mp1_svc_setup.o
 .rodata.discover_list_protocols.str1.1
                0x000000002fff8fac       0x1b /home/ming/tf-a-stm32mp-2.2.r2-r0/tf-a-stm32mp-2.2.r2/../build/trusted/bl32/base.o
 *fill*         0x000000002fff8fc7        0x1 
 .rodata.scmi_base_handler_table
                0x000000002fff8fc8       0x1c /home/ming/tf-a-stm32mp-2.2.r2-r0/tf-a-stm32mp-2.2.r2/../build/trusted/bl32/base.o
 .rodata.scmi_clock_handler_table
                0x000000002fff8fe4       0x20 /home/ming/tf-a-stm32mp-2.2.r2-r0/tf-a-stm32mp-2.2.r2/../build/trusted/bl32/clock.o
 .rodata.write_rate_desc_array_in_buffer.str1.1
                0x000000002fff9004       0x1c /home/ming/tf-a-stm32mp-2.2.r2-r0/tf-a-stm32mp-2.2.r2/../build/trusted/bl32/clock.o
 .rodata.scmi_process_message.str1.1
                0x000000002fff9020       0x34 /home/ming/tf-a-stm32mp-2.2.r2-r0/tf-a-stm32mp-2.2.r2/../build/trusted/bl32/entry.o
 .rodata.scmi_status_response.str1.1
                0x000000002fff9054       0x1c /home/ming/tf-a-stm32mp-2.2.r2-r0/tf-a-stm32mp-2.2.r2/../build/trusted/bl32/entry.o
 .rodata.reset_domain_attributes.str1.1
                0x000000002fff9070       0x23 /home/ming/tf-a-stm32mp-2.2.r2-r0/tf-a-stm32mp-2.2.r2/../build/trusted/bl32/reset_domain.o
 *fill*         0x000000002fff9093        0x1 
 .rodata.scmi_rd_handler_table
                0x000000002fff9094       0x14 /home/ming/tf-a-stm32mp-2.2.r2-r0/tf-a-stm32mp-2.2.r2/../build/trusted/bl32/reset_domain.o
 .rodata.scmi_proccess_smt.str1.1
                0x000000002fff90a8       0x1a /home/ming/tf-a-stm32mp-2.2.r2-r0/tf-a-stm32mp-2.2.r2/../build/trusted/bl32/smt.o
 *fill*         0x000000002fff90c2        0x2 
 .rodata.agent_resources
                0x000000002fff90c4       0x20 /home/ming/tf-a-stm32mp-2.2.r2-r0/tf-a-stm32mp-2.2.r2/../build/trusted/bl32/stm32mp1_scmi.o
 .rodata.find_resource.part.0.str1.1
                0x000000002fff90e4       0x21 /home/ming/tf-a-stm32mp-2.2.r2-r0/tf-a-stm32mp-2.2.r2/../build/trusted/bl32/stm32mp1_scmi.o
 .rodata.plat_protocol_list
                0x000000002fff9105        0x3 /home/ming/tf-a-stm32mp-2.2.r2-r0/tf-a-stm32mp-2.2.r2/../build/trusted/bl32/stm32mp1_scmi.o
 .rodata.stm32mp1_init_scmi_server.str1.1
                0x000000002fff9108       0x3b /home/ming/tf-a-stm32mp-2.2.r2-r0/tf-a-stm32mp-2.2.r2/../build/trusted/bl32/stm32mp1_scmi.o
 .rodata.str1.1
                0x000000002fff9143       0xd3 /home/ming/tf-a-stm32mp-2.2.r2-r0/tf-a-stm32mp-2.2.r2/../build/trusted/bl32/stm32mp1_scmi.o
                                         0xdc (size before relaxing)
 .rodata.sub_vendor
                0x000000002fff9216        0x1 /home/ming/tf-a-stm32mp-2.2.r2-r0/tf-a-stm32mp-2.2.r2/../build/trusted/bl32/stm32mp1_scmi.o
 .rodata.vendor
                0x000000002fff9217        0x3 /home/ming/tf-a-stm32mp-2.2.r2-r0/tf-a-stm32mp-2.2.r2/../build/trusted/bl32/stm32mp1_scmi.o
 .rodata.tf_log.str1.1
                0x000000002fff921a       0x10 /home/ming/tf-a-stm32mp-2.2.r2-r0/tf-a-stm32mp-2.2.r2/../build/trusted/bl32/tf_log.o
 .rodata.console_unregister.str1.1
                0x000000002fff922a       0x20 /home/ming/tf-a-stm32mp-2.2.r2-r0/tf-a-stm32mp-2.2.r2/../build/trusted/bl32/multi_console.o
 *fill*         0x000000002fff924a        0x2 
 .rodata.plat_prefix_str
                0x000000002fff924c       0x14 /home/ming/tf-a-stm32mp-2.2.r2-r0/tf-a-stm32mp-2.2.r2/../build/trusted/bl32/plat_log_common.o
 .rodata.str1.1
                0x000000002fff9260       0x32 /home/ming/tf-a-stm32mp-2.2.r2-r0/tf-a-stm32mp-2.2.r2/../build/trusted/bl32/plat_log_common.o
 .rodata.stm32_get_gpio_bank_base.str1.1
                0x000000002fff9292       0x20 /home/ming/tf-a-stm32mp-2.2.r2-r0/tf-a-stm32mp-2.2.r2/../build/trusted/bl32/stm32mp_common.o
 .rodata.get_part_number.str1.1
                0x000000002fff92b2       0x36 /home/ming/tf-a-stm32mp-2.2.r2-r0/tf-a-stm32mp-2.2.r2/../build/trusted/bl32/stm32mp1_private.o
 .rodata.stm32_get_gpio_bank_clock.str1.1
                0x000000002fff92e8       0x24 /home/ming/tf-a-stm32mp-2.2.r2-r0/tf-a-stm32mp-2.2.r2/../build/trusted/bl32/stm32mp1_private.o
 .rodata.stm32_get_otp_value.str1.1
                0x000000002fff930c       0x16 /home/ming/tf-a-stm32mp-2.2.r2-r0/tf-a-stm32mp-2.2.r2/../build/trusted/bl32/stm32mp1_private.o
 .rodata.stm32_get_otp_value_from_idx.str1.1
                0x000000002fff9322       0x1a /home/ming/tf-a-stm32mp-2.2.r2-r0/tf-a-stm32mp-2.2.r2/../build/trusted/bl32/stm32mp1_private.o
 .rodata.stm32_iwdg_get_otp_config.str1.1
                0x000000002fff933c        0x8 /home/ming/tf-a-stm32mp-2.2.r2-r0/tf-a-stm32mp-2.2.r2/../build/trusted/bl32/stm32mp1_private.o
 *fill*         0x000000002fff9344        0x4 
 .rodata.stm32mp1_mmap
                0x000000002fff9348       0x78 /home/ming/tf-a-stm32mp-2.2.r2-r0/tf-a-stm32mp-2.2.r2/../build/trusted/bl32/stm32mp1_private.o
 .rodata.tzc_source_ip
                0x000000002fff93c0       0x84 /home/ming/tf-a-stm32mp-2.2.r2-r0/tf-a-stm32mp-2.2.r2/../build/trusted/bl32/stm32mp1_private.o
 .rodata.xlat_arch_regime_get_xn_desc.str1.1
                0x000000002fff9444       0x2e /home/ming/tf-a-stm32mp-2.2.r2-r0/tf-a-stm32mp-2.2.r2/../build/trusted/bl32/xlat_tables_arch.o
 .rodata.mmap_add_alloc_va.str1.1
                0x000000002fff9472       0x29 /home/ming/tf-a-stm32mp-2.2.r2-r0/tf-a-stm32mp-2.2.r2/../build/trusted/bl32/xlat_tables_context.o
 .rodata.init_xlat_tables_ctx.str1.1
                0x000000002fff949b       0x4f /home/ming/tf-a-stm32mp-2.2.r2-r0/tf-a-stm32mp-2.2.r2/../build/trusted/bl32/xlat_tables_core.o
 .rodata.mmap_add_region_ctx.str1.1
                0x000000002fff94ea       0x2b /home/ming/tf-a-stm32mp-2.2.r2-r0/tf-a-stm32mp-2.2.r2/../build/trusted/bl32/xlat_tables_core.o
 .rodata.xlat_table_get_index.str1.1
                0x000000002fff9515       0x26 /home/ming/tf-a-stm32mp-2.2.r2-r0/tf-a-stm32mp-2.2.r2/../build/trusted/bl32/xlat_tables_core.o
 .rodata.tzc400_enable_filters.str1.1
                0x000000002fff953b       0x30 /home/ming/tf-a-stm32mp-2.2.r2-r0/tf-a-stm32mp-2.2.r2/../build/trusted/bl32/tzc400.o
 .rodata.tzc400_init.str1.1
                0x000000002fff956b       0x24 /home/ming/tf-a-stm32mp-2.2.r2-r0/tf-a-stm32mp-2.2.r2/../build/trusted/bl32/tzc400.o
 .rodata.tzc400_it_handler.str1.1
                0x000000002fff958f       0x7a /home/ming/tf-a-stm32mp-2.2.r2-r0/tf-a-stm32mp-2.2.r2/../build/trusted/bl32/tzc400.o
 .rodata.tzc400_set_action.str1.1
                0x000000002fff9609       0x19 /home/ming/tf-a-stm32mp-2.2.r2-r0/tf-a-stm32mp-2.2.r2/../build/trusted/bl32/tzc400.o
 .rodata.udelay.str1.1
                0x000000002fff9622       0x22 /home/ming/tf-a-stm32mp-2.2.r2-r0/tf-a-stm32mp-2.2.r2/../build/trusted/bl32/delay_timer.o
 .rodata.generic_delay_timer_init.str1.1
                0x000000002fff9644       0x2a /home/ming/tf-a-stm32mp-2.2.r2-r0/tf-a-stm32mp-2.2.r2/../build/trusted/bl32/generic_delay_timer.o
 .rodata.bsec_find_otp_name_in_dt.str1.1
                0x000000002fff966e       0x85 /home/ming/tf-a-stm32mp-2.2.r2-r0/tf-a-stm32mp-2.2.r2/../build/trusted/bl32/bsec2.o
                                         0x89 (size before relaxing)
 .rodata.bsec_probe.str1.1
                0x000000002fff96f3       0x62 /home/ming/tf-a-stm32mp-2.2.r2-r0/tf-a-stm32mp-2.2.r2/../build/trusted/bl32/bsec2.o
 .rodata.bsec_program_otp.str1.1
                0x000000002fff9755       0xa8 /home/ming/tf-a-stm32mp-2.2.r2-r0/tf-a-stm32mp-2.2.r2/../build/trusted/bl32/bsec2.o
 .rodata.bsec_shadow_register.str1.1
                0x000000002fff97fd       0x29 /home/ming/tf-a-stm32mp-2.2.r2-r0/tf-a-stm32mp-2.2.r2/../build/trusted/bl32/bsec2.o
 .rodata.bsec_write_otp.str1.1
                0x000000002fff9826       0x2a /home/ming/tf-a-stm32mp-2.2.r2-r0/tf-a-stm32mp-2.2.r2/../build/trusted/bl32/bsec2.o
 .rodata.otp_bank_offset.str1.1
                0x000000002fff9850       0x18 /home/ming/tf-a-stm32mp-2.2.r2-r0/tf-a-stm32mp-2.2.r2/../build/trusted/bl32/bsec2.o
 .rodata.fdt_get_clock_id.str1.1
                0x000000002fff9868       0x18 /home/ming/tf-a-stm32mp-2.2.r2-r0/tf-a-stm32mp-2.2.r2/../build/trusted/bl32/stm32mp_clkfunc.o
                                          0x7 (size before relaxing)
 .rodata.fdt_get_clock_id_by_name.str1.1
                0x000000002fff9868        0xc /home/ming/tf-a-stm32mp-2.2.r2-r0/tf-a-stm32mp-2.2.r2/../build/trusted/bl32/stm32mp_clkfunc.o
 .rodata.fdt_get_rcc_node.str1.1
                0x000000002fff9874       0x10 /home/ming/tf-a-stm32mp-2.2.r2-r0/tf-a-stm32mp-2.2.r2/../build/trusted/bl32/stm32mp_clkfunc.o
 .rodata.fdt_osc_read_freq.str1.1
                0x000000002fff9884       0x18 /home/ming/tf-a-stm32mp-2.2.r2-r0/tf-a-stm32mp-2.2.r2/../build/trusted/bl32/stm32mp_clkfunc.o
 .rodata.__func__.7261
                0x000000002fff989c       0x1a /home/ming/tf-a-stm32mp-2.2.r2-r0/tf-a-stm32mp-2.2.r2/../build/trusted/bl32/stm32mp1_clk.o
 .rodata.__stm32mp1_clk_disable.str1.1
                0x000000002fff98b6       0x1d /home/ming/tf-a-stm32mp-2.2.r2-r0/tf-a-stm32mp-2.2.r2/../build/trusted/bl32/stm32mp1_clk.o
 .rodata.__stm32mp1_clk_enable.str1.1
                0x000000002fff98d3       0x1c /home/ming/tf-a-stm32mp-2.2.r2-r0/tf-a-stm32mp-2.2.r2/../build/trusted/bl32/stm32mp1_clk.o
 .rodata.axiss_parents
                0x000000002fff98ef        0x3 /home/ming/tf-a-stm32mp-2.2.r2-r0/tf-a-stm32mp-2.2.r2/../build/trusted/bl32/stm32mp1_clk.o
 .rodata.fmc_parents
                0x000000002fff98f2        0x4 /home/ming/tf-a-stm32mp-2.2.r2-r0/tf-a-stm32mp-2.2.r2/../build/trusted/bl32/stm32mp1_clk.o
 .rodata.i2c12_parents
                0x000000002fff98f6        0x4 /home/ming/tf-a-stm32mp-2.2.r2-r0/tf-a-stm32mp-2.2.r2/../build/trusted/bl32/stm32mp1_clk.o
 .rodata.i2c35_parents
                0x000000002fff98fa        0x4 /home/ming/tf-a-stm32mp-2.2.r2-r0/tf-a-stm32mp-2.2.r2/../build/trusted/bl32/stm32mp1_clk.o
 .rodata.i2c46_parents
                0x000000002fff98fe        0x4 /home/ming/tf-a-stm32mp-2.2.r2-r0/tf-a-stm32mp-2.2.r2/../build/trusted/bl32/stm32mp1_clk.o
 .rodata.mcuss_parents
                0x000000002fff9902        0x4 /home/ming/tf-a-stm32mp-2.2.r2-r0/tf-a-stm32mp-2.2.r2/../build/trusted/bl32/stm32mp1_clk.o
 .rodata.mpu_parents
                0x000000002fff9906        0x4 /home/ming/tf-a-stm32mp-2.2.r2-r0/tf-a-stm32mp-2.2.r2/../build/trusted/bl32/stm32mp1_clk.o
 .rodata.parent_id_clock_id
                0x000000002fff990a       0x22 /home/ming/tf-a-stm32mp-2.2.r2-r0/tf-a-stm32mp-2.2.r2/../build/trusted/bl32/stm32mp1_clk.o
 .rodata.per_parents
                0x000000002fff992c        0x3 /home/ming/tf-a-stm32mp-2.2.r2-r0/tf-a-stm32mp-2.2.r2/../build/trusted/bl32/stm32mp1_clk.o
 .rodata.pllncfgr2
                0x000000002fff992f        0x3 /home/ming/tf-a-stm32mp-2.2.r2-r0/tf-a-stm32mp-2.2.r2/../build/trusted/bl32/stm32mp1_clk.o
 .rodata.qspi_parents
                0x000000002fff9932        0x4 /home/ming/tf-a-stm32mp-2.2.r2-r0/tf-a-stm32mp-2.2.r2/../build/trusted/bl32/stm32mp1_clk.o
 .rodata.rng1_parents
                0x000000002fff9936        0x4 /home/ming/tf-a-stm32mp-2.2.r2-r0/tf-a-stm32mp-2.2.r2/../build/trusted/bl32/stm32mp1_clk.o
 .rodata.rtc_parents
                0x000000002fff993a        0x4 /home/ming/tf-a-stm32mp-2.2.r2-r0/tf-a-stm32mp-2.2.r2/../build/trusted/bl32/stm32mp1_clk.o
 .rodata.sdmmc12_parents
                0x000000002fff993e        0x4 /home/ming/tf-a-stm32mp-2.2.r2-r0/tf-a-stm32mp-2.2.r2/../build/trusted/bl32/stm32mp1_clk.o
 .rodata.sdmmc3_parents
                0x000000002fff9942        0x4 /home/ming/tf-a-stm32mp-2.2.r2-r0/tf-a-stm32mp-2.2.r2/../build/trusted/bl32/stm32mp1_clk.o
 .rodata.spi6_parents
                0x000000002fff9946        0x6 /home/ming/tf-a-stm32mp-2.2.r2-r0/tf-a-stm32mp-2.2.r2/../build/trusted/bl32/stm32mp1_clk.o
 .rodata.stgen_parents
                0x000000002fff994c        0x2 /home/ming/tf-a-stm32mp-2.2.r2-r0/tf-a-stm32mp-2.2.r2/../build/trusted/bl32/stm32mp1_clk.o
 .rodata.stm32mp1_axi_div
                0x000000002fff994e        0x8 /home/ming/tf-a-stm32mp-2.2.r2-r0/tf-a-stm32mp-2.2.r2/../build/trusted/bl32/stm32mp1_clk.o
 .rodata.stm32mp1_clk_compute_all_pll1_settings.str1.1
                0x000000002fff9956       0x32 /home/ming/tf-a-stm32mp-2.2.r2-r0/tf-a-stm32mp-2.2.r2/../build/trusted/bl32/stm32mp1_clk.o
 .rodata.stm32mp1_clk_gate
                0x000000002fff9988      0x1c8 /home/ming/tf-a-stm32mp-2.2.r2-r0/tf-a-stm32mp-2.2.r2/../build/trusted/bl32/stm32mp1_clk.o
 .rodata.stm32mp1_clk_get_gated_id.str1.1
                0x000000002fff9b50       0x1a /home/ming/tf-a-stm32mp-2.2.r2-r0/tf-a-stm32mp-2.2.r2/../build/trusted/bl32/stm32mp1_clk.o
 *fill*         0x000000002fff9b6a        0x2 
 .rodata.stm32mp1_clk_pll
                0x000000002fff9b6c       0x80 /home/ming/tf-a-stm32mp-2.2.r2-r0/tf-a-stm32mp-2.2.r2/../build/trusted/bl32/stm32mp1_clk.o
 .rodata.stm32mp1_clk_sel
                0x000000002fff9bec      0x108 /home/ming/tf-a-stm32mp-2.2.r2-r0/tf-a-stm32mp-2.2.r2/../build/trusted/bl32/stm32mp1_clk.o
 .rodata.stm32mp1_mcu_div
                0x000000002fff9cf4       0x10 /home/ming/tf-a-stm32mp-2.2.r2-r0/tf-a-stm32mp-2.2.r2/../build/trusted/bl32/stm32mp1_clk.o
 .rodata.stm32mp1_mpu_apbx_div
                0x000000002fff9d04        0x8 /home/ming/tf-a-stm32mp-2.2.r2-r0/tf-a-stm32mp-2.2.r2/../build/trusted/bl32/stm32mp1_clk.o
 .rodata.stm32mp1_pll
                0x000000002fff9d0c        0x6 /home/ming/tf-a-stm32mp-2.2.r2-r0/tf-a-stm32mp-2.2.r2/../build/trusted/bl32/stm32mp1_clk.o
 .rodata.stm32mp1_pll_output.str1.1
                0x000000002fff9d12       0x23 /home/ming/tf-a-stm32mp-2.2.r2-r0/tf-a-stm32mp-2.2.r2/../build/trusted/bl32/stm32mp1_clk.o
 .rodata.stm32mp1_pll_stop.str1.1
                0x000000002fff9d35       0x22 /home/ming/tf-a-stm32mp-2.2.r2-r0/tf-a-stm32mp-2.2.r2/../build/trusted/bl32/stm32mp1_clk.o
 .rodata.stm32mp1_register_clock_parents_secure.str1.1
                0x000000002fff9d57       0x33 /home/ming/tf-a-stm32mp-2.2.r2-r0/tf-a-stm32mp-2.2.r2/../build/trusted/bl32/stm32mp1_clk.o
 .rodata.stm32mp1_set_clkdiv.str1.1
                0x000000002fff9d8a       0x27 /home/ming/tf-a-stm32mp-2.2.r2-r0/tf-a-stm32mp-2.2.r2/../build/trusted/bl32/stm32mp1_clk.o
 .rodata.stm32mp1_set_clksrc.str1.1
                0x000000002fff9db1       0x27 /home/ming/tf-a-stm32mp-2.2.r2-r0/tf-a-stm32mp-2.2.r2/../build/trusted/bl32/stm32mp1_clk.o
 .rodata.stm32mp1_set_opp_khz.str1.1
                0x000000002fff9dd8       0x24 /home/ming/tf-a-stm32mp-2.2.r2-r0/tf-a-stm32mp-2.2.r2/../build/trusted/bl32/stm32mp1_clk.o
 .rodata.str1.1
                0x000000002fff9dfc       0x31 /home/ming/tf-a-stm32mp-2.2.r2-r0/tf-a-stm32mp-2.2.r2/../build/trusted/bl32/stm32mp1_clk.o
 .rodata.uart234578_parents
                0x000000002fff9e2d        0x5 /home/ming/tf-a-stm32mp-2.2.r2-r0/tf-a-stm32mp-2.2.r2/../build/trusted/bl32/stm32mp1_clk.o
 .rodata.uart6_parents
                0x000000002fff9e32        0x5 /home/ming/tf-a-stm32mp-2.2.r2-r0/tf-a-stm32mp-2.2.r2/../build/trusted/bl32/stm32mp1_clk.o
 .rodata.usart1_parents
                0x000000002fff9e37        0x6 /home/ming/tf-a-stm32mp-2.2.r2-r0/tf-a-stm32mp-2.2.r2/../build/trusted/bl32/stm32mp1_clk.o
 .rodata.usbo_parents
                0x000000002fff9e3d        0x2 /home/ming/tf-a-stm32mp-2.2.r2-r0/tf-a-stm32mp-2.2.r2/../build/trusted/bl32/stm32mp1_clk.o
 .rodata.usbphy_parents
                0x000000002fff9e3f        0x3 /home/ming/tf-a-stm32mp-2.2.r2-r0/tf-a-stm32mp-2.2.r2/../build/trusted/bl32/stm32mp1_clk.o
 .rodata.CSWTCH.26
                0x000000002fff9e42        0xa /home/ming/tf-a-stm32mp-2.2.r2-r0/tf-a-stm32mp-2.2.r2/../build/trusted/bl32/stm32mp1_ddr_helpers.o
 .rodata.ddr_set_sr_mode.str1.1
                0x000000002fff9e4c       0x1c /home/ming/tf-a-stm32mp-2.2.r2-r0/tf-a-stm32mp-2.2.r2/../build/trusted/bl32/stm32mp1_ddr_helpers.o
 .rodata.dt_set_pinctrl_config.str1.1
                0x000000002fff9e68       0x75 /home/ming/tf-a-stm32mp-2.2.r2-r0/tf-a-stm32mp-2.2.r2/../build/trusted/bl32/stm32_gpio.o
                                         0x79 (size before relaxing)
 .rodata.set_gpio.str1.1
                0x000000002fff9edd       0x1d /home/ming/tf-a-stm32mp-2.2.r2-r0/tf-a-stm32mp-2.2.r2/../build/trusted/bl32/stm32_gpio.o
 *fill*         0x000000002fff9efa        0x2 
 .rodata.i2c_specs
                0x000000002fff9efc       0x60 /home/ming/tf-a-stm32mp-2.2.r2-r0/tf-a-stm32mp-2.2.r2/../build/trusted/bl32/stm32_i2c.o
 .rodata.stm32_i2c_get_setup_from_fdt.str1.1
                0x000000002fff9f5c       0x4d /home/ming/tf-a-stm32mp-2.2.r2-r0/tf-a-stm32mp-2.2.r2/../build/trusted/bl32/stm32_i2c.o
                                         0x5d (size before relaxing)
 .rodata.stm32_i2c_init.str1.1
                0x000000002fff9fa9      0x146 /home/ming/tf-a-stm32mp-2.2.r2-r0/tf-a-stm32mp-2.2.r2/../build/trusted/bl32/stm32_i2c.o
 .rodata.stm32_iwdg_init.str1.1
                0x000000002fffa0ef       0xa0 /home/ming/tf-a-stm32mp-2.2.r2-r0/tf-a-stm32mp-2.2.r2/../build/trusted/bl32/stm32_iwdg.o
                                         0xa4 (size before relaxing)
 .rodata.dt_get_pmic_node.str1.1
                0x000000002fffa18f        0xb /home/ming/tf-a-stm32mp-2.2.r2-r0/tf-a-stm32mp-2.2.r2/../build/trusted/bl32/stm32mp_pmic.o
 .rodata.dt_pmic_find_supply.str1.1
                0x000000002fffa19a        0xf /home/ming/tf-a-stm32mp-2.2.r2-r0/tf-a-stm32mp-2.2.r2/../build/trusted/bl32/stm32mp_pmic.o
 .rodata.dt_pmic_get_regulator_voltage.str1.1
                0x000000002fffa1a9       0x30 /home/ming/tf-a-stm32mp-2.2.r2-r0/tf-a-stm32mp-2.2.r2/../build/trusted/bl32/stm32mp_pmic.o
 .rodata.initialize_pmic_i2c.str1.1
                0x000000002fffa1d9       0x55 /home/ming/tf-a-stm32mp-2.2.r2-r0/tf-a-stm32mp-2.2.r2/../build/trusted/bl32/stm32mp_pmic.o
                                         0x59 (size before relaxing)
 .rodata.pmic_operate.str1.1
                0x000000002fffa22e       0xce /home/ming/tf-a-stm32mp-2.2.r2-r0/tf-a-stm32mp-2.2.r2/../build/trusted/bl32/stm32mp_pmic.o
 .rodata.buck1_voltage_table
                0x000000002fffa2fc       0x80 /home/ming/tf-a-stm32mp-2.2.r2-r0/tf-a-stm32mp-2.2.r2/../build/trusted/bl32/stpmic1.o
 .rodata.buck2_voltage_table
                0x000000002fffa37c       0x4a /home/ming/tf-a-stm32mp-2.2.r2-r0/tf-a-stm32mp-2.2.r2/../build/trusted/bl32/stpmic1.o
 .rodata.buck3_voltage_table
                0x000000002fffa3c6       0x70 /home/ming/tf-a-stm32mp-2.2.r2-r0/tf-a-stm32mp-2.2.r2/../build/trusted/bl32/stpmic1.o
 .rodata.buck4_voltage_table
                0x000000002fffa436       0x7a /home/ming/tf-a-stm32mp-2.2.r2-r0/tf-a-stm32mp-2.2.r2/../build/trusted/bl32/stpmic1.o
 .rodata.fixed_5v_voltage_table
                0x000000002fffa4b0        0x2 /home/ming/tf-a-stm32mp-2.2.r2-r0/tf-a-stm32mp-2.2.r2/../build/trusted/bl32/stpmic1.o
 .rodata.ldo1_voltage_table
                0x000000002fffa4b2       0x32 /home/ming/tf-a-stm32mp-2.2.r2-r0/tf-a-stm32mp-2.2.r2/../build/trusted/bl32/stpmic1.o
 .rodata.ldo2_voltage_table
                0x000000002fffa4e4       0x32 /home/ming/tf-a-stm32mp-2.2.r2-r0/tf-a-stm32mp-2.2.r2/../build/trusted/bl32/stpmic1.o
 .rodata.ldo3_voltage_table
                0x000000002fffa516       0x42 /home/ming/tf-a-stm32mp-2.2.r2-r0/tf-a-stm32mp-2.2.r2/../build/trusted/bl32/stpmic1.o
 .rodata.ldo4_voltage_table
                0x000000002fffa558        0x2 /home/ming/tf-a-stm32mp-2.2.r2-r0/tf-a-stm32mp-2.2.r2/../build/trusted/bl32/stpmic1.o
 .rodata.ldo5_voltage_table
                0x000000002fffa55a       0x3e /home/ming/tf-a-stm32mp-2.2.r2-r0/tf-a-stm32mp-2.2.r2/../build/trusted/bl32/stpmic1.o
 .rodata.ldo6_voltage_table
                0x000000002fffa598       0x32 /home/ming/tf-a-stm32mp-2.2.r2-r0/tf-a-stm32mp-2.2.r2/../build/trusted/bl32/stpmic1.o
 *fill*         0x000000002fffa5ca        0x2 
 .rodata.regulators_table
                0x000000002fffa5cc       0xe0 /home/ming/tf-a-stm32mp-2.2.r2-r0/tf-a-stm32mp-2.2.r2/../build/trusted/bl32/stpmic1.o
 .rodata.stpmic1_regulator_voltage_get.str1.1
                0x000000002fffa6ac        0xe /home/ming/tf-a-stm32mp-2.2.r2-r0/tf-a-stm32mp-2.2.r2/../build/trusted/bl32/stpmic1.o
 .rodata.str1.1
                0x000000002fffa6ba       0x50 /home/ming/tf-a-stm32mp-2.2.r2-r0/tf-a-stm32mp-2.2.r2/../build/trusted/bl32/stpmic1.o
 .rodata.vref_ddr_voltage_table
                0x000000002fffa70a        0x2 /home/ming/tf-a-stm32mp-2.2.r2-r0/tf-a-stm32mp-2.2.r2/../build/trusted/bl32/stpmic1.o
 .rodata.dt_fill_device_info.str1.1
                0x000000002fffa70c        0x7 /home/ming/tf-a-stm32mp-2.2.r2-r0/tf-a-stm32mp-2.2.r2/../build/trusted/bl32/stm32mp_dt.o
                                          0xe (size before relaxing)
 .rodata.dt_get_cpu_regulator_name.str1.1
                0x000000002fffa713       0x17 /home/ming/tf-a-stm32mp-2.2.r2-r0/tf-a-stm32mp-2.2.r2/../build/trusted/bl32/stm32mp_dt.o
                                         0x26 (size before relaxing)
 .rodata.dt_get_ddr_size.str1.1
                0x000000002fffa72a       0x1c /home/ming/tf-a-stm32mp-2.2.r2-r0/tf-a-stm32mp-2.2.r2/../build/trusted/bl32/stm32mp_dt.o
 .rodata.dt_get_max_opp_freqvolt.str1.1
                0x000000002fffa746       0x14 /home/ming/tf-a-stm32mp-2.2.r2-r0/tf-a-stm32mp-2.2.r2/../build/trusted/bl32/stm32mp_dt.o
 .rodata.dt_get_node_by_compatible.str1.1
                0x000000002fffa75a       0x1c /home/ming/tf-a-stm32mp-2.2.r2-r0/tf-a-stm32mp-2.2.r2/../build/trusted/bl32/stm32mp_dt.o
 .rodata.dt_get_opp_freqvolt_from_subnode.str1.1
                0x000000002fffa776       0x26 /home/ming/tf-a-stm32mp-2.2.r2-r0/tf-a-stm32mp-2.2.r2/../build/trusted/bl32/stm32mp_dt.o
 .rodata.dt_get_stdout_node_offset.str1.1
                0x000000002fffa79c       0x25 /home/ming/tf-a-stm32mp-2.2.r2-r0/tf-a-stm32mp-2.2.r2/../build/trusted/bl32/stm32mp_dt.o
 .rodata.fdt_get_gpio_bank_pinctrl_node.str1.1
                0x000000002fffa7c1       0x2a /home/ming/tf-a-stm32mp-2.2.r2-r0/tf-a-stm32mp-2.2.r2/../build/trusted/bl32/stm32mp_dt.o
 .rodata.fdt_get_gpioz_nbpins_from_dt.str1.1
                0x000000002fffa7eb        0x7 /home/ming/tf-a-stm32mp-2.2.r2-r0/tf-a-stm32mp-2.2.r2/../build/trusted/bl32/stm32mp_dt.o
                                         0x17 (size before relaxing)
 .rodata.fdt_get_interrupt.str1.1
                0x000000002fffa7f2       0x26 /home/ming/tf-a-stm32mp-2.2.r2-r0/tf-a-stm32mp-2.2.r2/../build/trusted/bl32/stm32mp_dt.o
                                         0x31 (size before relaxing)
 .rodata.fdt_get_reg_props_by_name.str1.1
                0x000000002fffa818       0x26 /home/ming/tf-a-stm32mp-2.2.r2-r0/tf-a-stm32mp-2.2.r2/../build/trusted/bl32/stm32mp_dt.o
                                         0x2a (size before relaxing)
 .rodata.fdt_get_status.str1.1
                0x000000002fffa83e       0x13 /home/ming/tf-a-stm32mp-2.2.r2-r0/tf-a-stm32mp-2.2.r2/../build/trusted/bl32/stm32mp_dt.o
                                         0x1a (size before relaxing)
 .rodata.stm32_save_ddr_training_area.str1.1
                0x000000002fffa851       0x24 /home/ming/tf-a-stm32mp-2.2.r2-r0/tf-a-stm32mp-2.2.r2/../build/trusted/bl32/stm32mp1_context.o
 .rodata.stm32mp1_dbgmcu_get_chip_version.str1.1
                0x000000002fffa875       0x23 /home/ming/tf-a-stm32mp-2.2.r2-r0/tf-a-stm32mp-2.2.r2/../build/trusted/bl32/stm32mp1_dbgmcu.o
 .rodata.stm32mp1_dbgmcu_init.str1.1
                0x000000002fffa898       0x36 /home/ming/tf-a-stm32mp-2.2.r2-r0/tf-a-stm32mp-2.2.r2/../build/trusted/bl32/stm32mp1_dbgmcu.o
 .rodata.stm32mp1_syscfg_enable_io_compensation.str1.1
                0x000000002fffa8ce       0x21 /home/ming/tf-a-stm32mp-2.2.r2-r0/tf-a-stm32mp-2.2.r2/../build/trusted/bl32/stm32mp1_syscfg.o
 .rodata.str1.1
                0x000000002fffa8ef       0x29 /home/ming/tf-a-stm32mp-2.2.r2-r0/tf-a-stm32mp-2.2.r2/../build/trusted/bl32/entrypoint.o
 .rodata.str1.1
                0x000000002fffa918       0x1f /home/ming/tf-a-stm32mp-2.2.r2-r0/tf-a-stm32mp-2.2.r2/../build/trusted/bl32/cpu_helpers.o
 .rodata.panic_str
                0x000000002fffa937       0x14 /home/ming/tf-a-stm32mp-2.2.r2-r0/tf-a-stm32mp-2.2.r2/../build/trusted/bl32/debug.o
 .rodata.assert_str
                0x000000002fffa94b       0x15 /home/ming/tf-a-stm32mp-2.2.r2-r0/tf-a-stm32mp-2.2.r2/../build/trusted/bl32/debug.o
 .rodata.str1.1
                0x000000002fffa960       0x28 /home/ming/tf-a-stm32mp-2.2.r2-r0/tf-a-stm32mp-2.2.r2/../build/trusted/bl32/stm32_console.o
 .rodata.str1.1
                0x000000002fffa988       0x28 /home/ming/tf-a-stm32mp-2.2.r2-r0/tf-a-stm32mp-2.2.r2/../build/trusted/bl32/enable_mmu.o
 .rodata.str1.1
                0x000000002fffa9b0       0x1d /home/ming/tf-a-stm32mp-2.2.r2-r0/tf-a-stm32mp-2.2.r2/../build/trusted/bl32/cortex_a7.o
 .rodata.rev_err_str
                0x000000002fffa9cd       0xa0 /home/ming/tf-a-stm32mp-2.2.r2-r0/tf-a-stm32mp-2.2.r2/../build/trusted/bl32/stm32mp1_helper.o
 .rodata.fdt_address_cells.str1.1
                0x000000002fffaa6d        0xf /home/ming/tf-a-stm32mp-2.2.r2-r0/tf-a-stm32mp-2.2.r2/../build/trusted/lib/libfdt.a(fdt_addresses.o)
 .rodata.fdt_get_alias_namelen.str1.1
                0x000000002fffaa7c        0x9 /home/ming/tf-a-stm32mp-2.2.r2-r0/tf-a-stm32mp-2.2.r2/../build/trusted/lib/libfdt.a(fdt_ro.o)
 .rodata.fdt_get_phandle.str1.1
                0x000000002fffaa85        0xe /home/ming/tf-a-stm32mp-2.2.r2-r0/tf-a-stm32mp-2.2.r2/../build/trusted/lib/libfdt.a(fdt_ro.o)
                                         0x16 (size before relaxing)
 .rodata.fdt_node_check_compatible.str1.1
                0x000000002fffaa93        0xb /home/ming/tf-a-stm32mp-2.2.r2-r0/tf-a-stm32mp-2.2.r2/../build/trusted/lib/libfdt.a(fdt_ro.o)
 .rodata.__assert.str1.1
                0x000000002fffaa9e        0xf /home/ming/tf-a-stm32mp-2.2.r2-r0/tf-a-stm32mp-2.2.r2/../build/trusted/lib/libc.a(assert.o)
 .rodata.vprintf.str1.1
                0x000000002fffaaad       0x15 /home/ming/tf-a-stm32mp-2.2.r2-r0/tf-a-stm32mp-2.2.r2/../build/trusted/lib/libc.a(printf.o)
                0x000000002fffaac4                . = ALIGN (0x4)
 *fill*         0x000000002fffaac2        0x2 
                0x000000002fffaac4                __RT_SVC_DESCS_START__ = .
 *(rt_svc_descs)
 rt_svc_descs   0x000000002fffaac4       0x10 /home/ming/tf-a-stm32mp-2.2.r2-r0/tf-a-stm32mp-2.2.r2/../build/trusted/bl32/std_svc_setup.o
 rt_svc_descs   0x000000002fffaad4       0x10 /home/ming/tf-a-stm32mp-2.2.r2-r0/tf-a-stm32mp-2.2.r2/../build/trusted/bl32/stm32mp1_svc_setup.o
                0x000000002fffaae4                __RT_SVC_DESCS_END__ = .
                0x000000002fffaae4                . = ALIGN (0x4)
                0x000000002fffaae4                __CPU_OPS_START__ = .
 *(cpu_ops)
 cpu_ops        0x000000002fffaae4       0x1c /home/ming/tf-a-stm32mp-2.2.r2-r0/tf-a-stm32mp-2.2.r2/../build/trusted/bl32/cortex_a7.o
                0x000000002fffab00                __CPU_OPS_END__ = .
                0x000000002fffab00                . = ALIGN (0x8)
                0x000000002fffab00                __pubsub_psci_cpu_on_finish_start = .
 *(__pubsub_psci_cpu_on_finish)
                0x000000002fffab00                __pubsub_psci_cpu_on_finish_end = .
                0x000000002fffab00                __pubsub_psci_suspend_pwrdown_start_start = .
 *(__pubsub_psci_suspend_pwrdown_start)
                0x000000002fffab00                __pubsub_psci_suspend_pwrdown_start_end = .
                0x000000002fffab00                __pubsub_psci_suspend_pwrdown_finish_start = .
 *(__pubsub_psci_suspend_pwrdown_finish)
                0x000000002fffab00                __pubsub_psci_suspend_pwrdown_finish_end = .
 *(.vectors)
 .vectors       0x000000002fffab00       0x20 /home/ming/tf-a-stm32mp-2.2.r2-r0/tf-a-stm32mp-2.2.r2/../build/trusted/bl32/entrypoint.o
                0x000000002fffab00                sp_min_vector_table
 .vectors.__stub
                0x000000002fffab20       0x40 linker stubs
                0x000000002fffab60                __RO_END_UNALIGNED__ = .
                0x000000002fffb000                . = ALIGN (0x1000)
 *fill*         0x000000002fffab60      0x4a0 
                0x000000002fffb000                __RO_END__ = .
                0x0000000000000001                ASSERT ((__CPU_OPS_END__ > __CPU_OPS_START__), cpu_ops not defined for this platform.)
                0x000000002fffb000                __RW_START__ = .

.glue_7         0x000000002fffb000        0x0
 .glue_7        0x000000002fffb000        0x0 linker stubs

.glue_7t        0x000000002fffb000        0x0
 .glue_7t       0x000000002fffb000        0x0 linker stubs

.vfp11_veneer   0x000000002fffb000        0x0
 .vfp11_veneer  0x000000002fffb000        0x0 linker stubs

.v4_bx          0x000000002fffb000        0x0
 .v4_bx         0x000000002fffb000        0x0 linker stubs

.iplt           0x000000002fffb000        0x0
 .iplt          0x000000002fffb000        0x0 /home/ming/tf-a-stm32mp-2.2.r2-r0/tf-a-stm32mp-2.2.r2/../build/trusted/bl32/build_message.o

.rel.dyn        0x000000002fffb000        0x0
 .rel.iplt      0x000000002fffb000        0x0 /home/ming/tf-a-stm32mp-2.2.r2-r0/tf-a-stm32mp-2.2.r2/../build/trusted/bl32/build_message.o

.data           0x000000002fffb000      0x548
                0x000000002fffb000                __DATA_START__ = .
 *(.data*)
 .data.fbv_csi  0x000000002fffb000       0x22 /home/ming/tf-a-stm32mp-2.2.r2-r0/tf-a-stm32mp-2.2.r2/../build/trusted/bl32/stm32mp1_calib.o
 .data.fbv_hsi  0x000000002fffb022       0x22 /home/ming/tf-a-stm32mp-2.2.r2-r0/tf-a-stm32mp-2.2.r2/../build/trusted/bl32/stm32mp1_calib.o
 .data.stm32mp1_clk_cal_csi
                0x000000002fffb044       0xa8 /home/ming/tf-a-stm32mp-2.2.r2-r0/tf-a-stm32mp-2.2.r2/../build/trusted/bl32/stm32mp1_calib.o
 .data.stm32mp1_clk_cal_hsi
                0x000000002fffb0ec       0xa8 /home/ming/tf-a-stm32mp-2.2.r2-r0/tf-a-stm32mp-2.2.r2/../build/trusted/bl32/stm32mp1_calib.o
 .data.ext_tamp
                0x000000002fffb194       0x24 /home/ming/tf-a-stm32mp-2.2.r2-r0/tf-a-stm32mp-2.2.r2/../build/trusted/bl32/sp_min_setup.o
 .data.int_tamp
                0x000000002fffb1b8       0x30 /home/ming/tf-a-stm32mp-2.2.r2-r0/tf-a-stm32mp-2.2.r2/../build/trusted/bl32/sp_min_setup.o
 .data.gpioz_nbpin
                0x000000002fffb1e8        0x1 /home/ming/tf-a-stm32mp-2.2.r2-r0/tf-a-stm32mp-2.2.r2/../build/trusted/bl32/stm32mp1_shared_resources.o
 *fill*         0x000000002fffb1e9        0x3 
 .data.platform_gic_data
                0x000000002fffb1ec       0x18 /home/ming/tf-a-stm32mp-2.2.r2-r0/tf-a-stm32mp-2.2.r2/../build/trusted/bl32/stm32_gic.o
 .data.target_mask_array
                0x000000002fffb204        0x8 /home/ming/tf-a-stm32mp-2.2.r2-r0/tf-a-stm32mp-2.2.r2/../build/trusted/bl32/stm32_gic.o
 .data.scmi_channel
                0x000000002fffb20c       0x20 /home/ming/tf-a-stm32mp-2.2.r2-r0/tf-a-stm32mp-2.2.r2/../build/trusted/bl32/stm32mp1_scmi.o
 .data.stm32_scmi0_clock
                0x000000002fffb22c       0xfc /home/ming/tf-a-stm32mp-2.2.r2-r0/tf-a-stm32mp-2.2.r2/../build/trusted/bl32/stm32mp1_scmi.o
 .data.stm32_scmi0_reset_domain
                0x000000002fffb328       0x60 /home/ming/tf-a-stm32mp-2.2.r2-r0/tf-a-stm32mp-2.2.r2/../build/trusted/bl32/stm32mp1_scmi.o
 .data.stm32_scmi1_clock
                0x000000002fffb388       0x24 /home/ming/tf-a-stm32mp-2.2.r2-r0/tf-a-stm32mp-2.2.r2/../build/trusted/bl32/stm32mp1_scmi.o
 .data.max_log_level
                0x000000002fffb3ac        0x4 /home/ming/tf-a-stm32mp-2.2.r2-r0/tf-a-stm32mp-2.2.r2/../build/trusted/bl32/tf_log.o
 .data.console_state
                0x000000002fffb3b0        0x1 /home/ming/tf-a-stm32mp-2.2.r2-r0/tf-a-stm32mp-2.2.r2/../build/trusted/bl32/multi_console.o
                0x000000002fffb3b0                console_state
 *fill*         0x000000002fffb3b1        0x7 
 .data.tf_xlat_ctx
                0x000000002fffb3b8       0x48 /home/ming/tf-a-stm32mp-2.2.r2-r0/tf-a-stm32mp-2.2.r2/../build/trusted/bl32/xlat_tables_context.o
 .data.backup_clock_cfg
                0x000000002fffb400       0x38 /home/ming/tf-a-stm32mp-2.2.r2-r0/tf-a-stm32mp-2.2.r2/../build/trusted/bl32/stm32mp1_clk.o
 .data.backup_clock_sc_cfg
                0x000000002fffb438       0x58 /home/ming/tf-a-stm32mp-2.2.r2-r0/tf-a-stm32mp-2.2.r2/../build/trusted/bl32/stm32mp1_clk.o
 .data.backup_mux0_cfg
                0x000000002fffb490       0x88 /home/ming/tf-a-stm32mp-2.2.r2-r0/tf-a-stm32mp-2.2.r2/../build/trusted/bl32/stm32mp1_clk.o
 .data.backup_mux4_cfg
                0x000000002fffb518        0x4 /home/ming/tf-a-stm32mp-2.2.r2-r0/tf-a-stm32mp-2.2.r2/../build/trusted/bl32/stm32mp1_clk.o
 .data.stm32mp_osc_node_label
                0x000000002fffb51c       0x18 /home/ming/tf-a-stm32mp-2.2.r2-r0/tf-a-stm32mp-2.2.r2/../build/trusted/bl32/stm32mp1_clk.o
                0x000000002fffb51c                stm32mp_osc_node_label
 .data.i2c_node.6758
                0x000000002fffb534        0x4 /home/ming/tf-a-stm32mp-2.2.r2-r0/tf-a-stm32mp-2.2.r2/../build/trusted/bl32/stm32mp_pmic.o
 .data.node.6697
                0x000000002fffb538        0x4 /home/ming/tf-a-stm32mp-2.2.r2-r0/tf-a-stm32mp-2.2.r2/../build/trusted/bl32/stm32mp_pmic.o
 .data.status.6701
                0x000000002fffb53c        0x4 /home/ming/tf-a-stm32mp-2.2.r2-r0/tf-a-stm32mp-2.2.r2/../build/trusted/bl32/stm32mp_pmic.o
 .data          0x000000002fffb540        0x8 /home/ming/tf-a-stm32mp-2.2.r2-r0/tf-a-stm32mp-2.2.r2/../build/trusted/bl32/cortex_a7.o
                0x000000002fffb548                __DATA_END__ = .

.igot.plt       0x000000002fffb548        0x0
 .igot.plt      0x000000002fffb548        0x0 /home/ming/tf-a-stm32mp-2.2.r2-r0/tf-a-stm32mp-2.2.r2/../build/trusted/bl32/build_message.o

stacks          0x000000002fffb580      0xc00
                0x000000002fffb580                __STACKS_START__ = .
 *(tzfw_normal_stacks)
 tzfw_normal_stacks
                0x000000002fffb580      0xc00 /home/ming/tf-a-stm32mp-2.2.r2-r0/tf-a-stm32mp-2.2.r2/../build/trusted/bl32/platform_mp_stack.o
                0x000000002fffc180                __STACKS_END__ = .

.bss            0x000000002fffc180     0x1040
                0x000000002fffc180                __BSS_START__ = .
 *(.bss*)
 .bss.sp_min_cpu_ctx_ptr
                0x000000002fffc180        0x8 /home/ming/tf-a-stm32mp-2.2.r2-r0/tf-a-stm32mp-2.2.r2/../build/trusted/bl32/sp_min_main.o
 .bss.sp_min_smc_context
                0x000000002fffc188      0x120 /home/ming/tf-a-stm32mp-2.2.r2-r0/tf-a-stm32mp-2.2.r2/../build/trusted/bl32/sp_min_main.o
 .bss.psci_req_local_pwr_states
                0x000000002fffc2a8        0x2 /home/ming/tf-a-stm32mp-2.2.r2-r0/tf-a-stm32mp-2.2.r2/../build/trusted/bl32/psci_common.o
 *fill*         0x000000002fffc2aa        0x6 
 .bss.psci_ns_context
                0x000000002fffc2b0       0x40 /home/ming/tf-a-stm32mp-2.2.r2-r0/tf-a-stm32mp-2.2.r2/../build/trusted/bl32/psci_setup.o
 .bss.rcc_wakeup
                0x000000002fffc2f0        0x1 /home/ming/tf-a-stm32mp-2.2.r2-r0/tf-a-stm32mp-2.2.r2/../build/trusted/bl32/stm32mp1_calib.o
 *fill*         0x000000002fffc2f1        0x3 
 .bss.timer_val
                0x000000002fffc2f4        0x4 /home/ming/tf-a-stm32mp-2.2.r2-r0/tf-a-stm32mp-2.2.r2/../build/trusted/bl32/stm32mp1_calib.o
 .bss.etzpc_dev
                0x000000002fffc2f8        0xc /home/ming/tf-a-stm32mp-2.2.r2-r0/tf-a-stm32mp-2.2.r2/../build/trusted/bl32/etzpc.o
 .bss.stm32_rng
                0x000000002fffc304        0x8 /home/ming/tf-a-stm32mp-2.2.r2-r0/tf-a-stm32mp-2.2.r2/../build/trusted/bl32/stm32_rng.o
 .bss.lock      0x000000002fffc30c        0x4 /home/ming/tf-a-stm32mp-2.2.r2-r0/tf-a-stm32mp-2.2.r2/../build/trusted/bl32/stm32_rtc.o
 .bss.rtc_dev   0x000000002fffc310       0x10 /home/ming/tf-a-stm32mp-2.2.r2-r0/tf-a-stm32mp-2.2.r2/../build/trusted/bl32/stm32_rtc.o
 .bss.stm32_tamp
                0x000000002fffc320       0x1c /home/ming/tf-a-stm32mp-2.2.r2-r0/tf-a-stm32mp-2.2.r2/../build/trusted/bl32/stm32_tamp.o
 .bss.stm32_timer
                0x000000002fffc33c       0x20 /home/ming/tf-a-stm32mp-2.2.r2-r0/tf-a-stm32mp-2.2.r2/../build/trusted/bl32/stm32_timer.o
 .bss.bl33_image_ep_info
                0x000000002fffc35c       0x24 /home/ming/tf-a-stm32mp-2.2.r2-r0/tf-a-stm32mp-2.2.r2/../build/trusted/bl32/sp_min_setup.o
 .bss.console   0x000000002fffc380       0x18 /home/ming/tf-a-stm32mp-2.2.r2-r0/tf-a-stm32mp-2.2.r2/../build/trusted/bl32/sp_min_setup.o
 .bss.cpu0_state
                0x000000002fffc398        0x4 /home/ming/tf-a-stm32mp-2.2.r2-r0/tf-a-stm32mp-2.2.r2/../build/trusted/bl32/stm32mp1_low_power.o
 .bss.cpu1_state
                0x000000002fffc39c        0x4 /home/ming/tf-a-stm32mp-2.2.r2-r0/tf-a-stm32mp-2.2.r2/../build/trusted/bl32/stm32mp1_low_power.o
 .bss.enter_cstop_done
                0x000000002fffc3a0        0x1 /home/ming/tf-a-stm32mp-2.2.r2-r0/tf-a-stm32mp-2.2.r2/../build/trusted/bl32/stm32mp1_low_power.o
 *fill*         0x000000002fffc3a1        0x3 
 .bss.gicc_pmr  0x000000002fffc3a4        0x4 /home/ming/tf-a-stm32mp-2.2.r2-r0/tf-a-stm32mp-2.2.r2/../build/trusted/bl32/stm32mp1_low_power.o
 .bss.int_stack
                0x000000002fffc3a8      0x800 /home/ming/tf-a-stm32mp-2.2.r2-r0/tf-a-stm32mp-2.2.r2/../build/trusted/bl32/stm32mp1_low_power.o
 .bss.lp_lock   0x000000002fffcba8        0x4 /home/ming/tf-a-stm32mp-2.2.r2-r0/tf-a-stm32mp-2.2.r2/../build/trusted/bl32/stm32mp1_low_power.o
 .bss.sleep_time
                0x000000002fffcbac        0xc /home/ming/tf-a-stm32mp-2.2.r2-r0/tf-a-stm32mp-2.2.r2/../build/trusted/bl32/stm32mp1_low_power.o
 .bss.stgen_cnt
                0x000000002fffcbb8        0x8 /home/ming/tf-a-stm32mp-2.2.r2-r0/tf-a-stm32mp-2.2.r2/../build/trusted/bl32/stm32mp1_low_power.o
 .bss.cntfrq_core0
                0x000000002fffcbc0        0x4 /home/ming/tf-a-stm32mp-2.2.r2-r0/tf-a-stm32mp-2.2.r2/../build/trusted/bl32/stm32mp1_pm.o
 .bss.saved_entrypoint
                0x000000002fffcbc4        0x4 /home/ming/tf-a-stm32mp-2.2.r2-r0/tf-a-stm32mp-2.2.r2/../build/trusted/bl32/stm32mp1_pm.o
 .bss.stm32_sec_entrypoint
                0x000000002fffcbc8        0x4 /home/ming/tf-a-stm32mp-2.2.r2-r0/tf-a-stm32mp-2.2.r2/../build/trusted/bl32/stm32mp1_pm.o
 .bss.deepest_system_suspend_mode
                0x000000002fffcbcc        0x4 /home/ming/tf-a-stm32mp-2.2.r2-r0/tf-a-stm32mp-2.2.r2/../build/trusted/bl32/stm32mp1_power_config.o
 .bss.pm_dom    0x000000002fffcbd0        0x3 /home/ming/tf-a-stm32mp-2.2.r2-r0/tf-a-stm32mp-2.2.r2/../build/trusted/bl32/stm32mp1_power_config.o
 .bss.retram_enabled
                0x000000002fffcbd3        0x1 /home/ming/tf-a-stm32mp-2.2.r2-r0/tf-a-stm32mp-2.2.r2/../build/trusted/bl32/stm32mp1_power_config.o
 .bss.stm32mp1_supported_soc_modes
                0x000000002fffcbd4        0x7 /home/ming/tf-a-stm32mp-2.2.r2-r0/tf-a-stm32mp-2.2.r2/../build/trusted/bl32/stm32mp1_power_config.o
 *fill*         0x000000002fffcbdb        0x1 
 .bss.system_off_mode
                0x000000002fffcbdc        0x4 /home/ming/tf-a-stm32mp-2.2.r2-r0/tf-a-stm32mp-2.2.r2/../build/trusted/bl32/stm32mp1_power_config.o
 .bss.registering_locked
                0x000000002fffcbe0        0x1 /home/ming/tf-a-stm32mp-2.2.r2-r0/tf-a-stm32mp-2.2.r2/../build/trusted/bl32/stm32mp1_shared_resources.o
 .bss.shres_state
                0x000000002fffcbe1       0x14 /home/ming/tf-a-stm32mp-2.2.r2-r0/tf-a-stm32mp-2.2.r2/../build/trusted/bl32/stm32mp1_shared_resources.o
 *fill*         0x000000002fffcbf5        0x3 
 .bss.driver_data
                0x000000002fffcbf8        0x4 /home/ming/tf-a-stm32mp-2.2.r2-r0/tf-a-stm32mp-2.2.r2/../build/trusted/bl32/gicv2_main.o
 .bss.gic_lock  0x000000002fffcbfc        0x4 /home/ming/tf-a-stm32mp-2.2.r2-r0/tf-a-stm32mp-2.2.r2/../build/trusted/bl32/gicv2_main.o
 .bss.stm32_gic
                0x000000002fffcc00        0x8 /home/ming/tf-a-stm32mp-2.2.r2-r0/tf-a-stm32mp-2.2.r2/../build/trusted/bl32/stm32_gic.o
 .bss.fast_smc_payload
                0x000000002fffcc08       0xb8 /home/ming/tf-a-stm32mp-2.2.r2-r0/tf-a-stm32mp-2.2.r2/../build/trusted/bl32/smt.o
 .bss.smt_channels_lock
                0x000000002fffccc0        0x4 /home/ming/tf-a-stm32mp-2.2.r2-r0/tf-a-stm32mp-2.2.r2/../build/trusted/bl32/smt.o
 .bss.lock      0x000000002fffccc4        0x4 /home/ming/tf-a-stm32mp-2.2.r2-r0/tf-a-stm32mp-2.2.r2/../build/trusted/bl32/stm32mp_common.o
 .bss.part_number.7242
                0x000000002fffccc8        0x4 /home/ming/tf-a-stm32mp-2.2.r2-r0/tf-a-stm32mp-2.2.r2/../build/trusted/bl32/stm32mp1_private.o
 *fill*         0x000000002fffcccc       0x14 
 .bss.tf_base_xlat_table
                0x000000002fffcce0       0x20 /home/ming/tf-a-stm32mp-2.2.r2-r0/tf-a-stm32mp-2.2.r2/../build/trusted/bl32/xlat_tables_context.o
 .bss.tf_mapped_regions
                0x000000002fffcd00       0x10 /home/ming/tf-a-stm32mp-2.2.r2-r0/tf-a-stm32mp-2.2.r2/../build/trusted/bl32/xlat_tables_context.o
 .bss.tf_mmap   0x000000002fffcd10       0xa8 /home/ming/tf-a-stm32mp-2.2.r2-r0/tf-a-stm32mp-2.2.r2/../build/trusted/bl32/xlat_tables_context.o
 .bss.tzc400    0x000000002fffcdb8        0x8 /home/ming/tf-a-stm32mp-2.2.r2-r0/tf-a-stm32mp-2.2.r2/../build/trusted/bl32/tzc400.o
 .bss.timer_ops
                0x000000002fffcdc0        0x4 /home/ming/tf-a-stm32mp-2.2.r2-r0/tf-a-stm32mp-2.2.r2/../build/trusted/bl32/delay_timer.o
 .bss.ops       0x000000002fffcdc4        0xc /home/ming/tf-a-stm32mp-2.2.r2-r0/tf-a-stm32mp-2.2.r2/../build/trusted/bl32/generic_delay_timer.o
 .bss.bsec_base
                0x000000002fffcdd0        0x4 /home/ming/tf-a-stm32mp-2.2.r2-r0/tf-a-stm32mp-2.2.r2/../build/trusted/bl32/bsec2.o
 .bss.bsec_spinlock
                0x000000002fffcdd4        0x4 /home/ming/tf-a-stm32mp-2.2.r2-r0/tf-a-stm32mp-2.2.r2/../build/trusted/bl32/bsec2.o
 .bss.otp_nsec_access
                0x000000002fffcdd8        0xc /home/ming/tf-a-stm32mp-2.2.r2-r0/tf-a-stm32mp-2.2.r2/../build/trusted/bl32/bsec2.o
 .bss.current_opp_khz
                0x000000002fffcde4        0x4 /home/ming/tf-a-stm32mp-2.2.r2-r0/tf-a-stm32mp-2.2.r2/../build/trusted/bl32/stm32mp1_clk.o
 .bss.gate_refcounts
                0x000000002fffcde8       0xe4 /home/ming/tf-a-stm32mp-2.2.r2-r0/tf-a-stm32mp-2.2.r2/../build/trusted/bl32/stm32mp1_clk.o
 .bss.mcudivr   0x000000002fffcecc        0x4 /home/ming/tf-a-stm32mp-2.2.r2-r0/tf-a-stm32mp-2.2.r2/../build/trusted/bl32/stm32mp1_clk.o
 .bss.mssckselr
                0x000000002fffced0        0x4 /home/ming/tf-a-stm32mp-2.2.r2-r0/tf-a-stm32mp-2.2.r2/../build/trusted/bl32/stm32mp1_clk.o
 .bss.pll1_settings
                0x000000002fffced4       0x4c /home/ming/tf-a-stm32mp-2.2.r2-r0/tf-a-stm32mp-2.2.r2/../build/trusted/bl32/stm32mp1_clk.o
 .bss.pll3cr    0x000000002fffcf20        0x4 /home/ming/tf-a-stm32mp-2.2.r2-r0/tf-a-stm32mp-2.2.r2/../build/trusted/bl32/stm32mp1_clk.o
 .bss.pll4cr    0x000000002fffcf24        0x4 /home/ming/tf-a-stm32mp-2.2.r2-r0/tf-a-stm32mp-2.2.r2/../build/trusted/bl32/stm32mp1_clk.o
 .bss.refcount_lock
                0x000000002fffcf28        0x4 /home/ming/tf-a-stm32mp-2.2.r2-r0/tf-a-stm32mp-2.2.r2/../build/trusted/bl32/stm32mp1_clk.o
 .bss.reg_lock  0x000000002fffcf2c        0x4 /home/ming/tf-a-stm32mp-2.2.r2-r0/tf-a-stm32mp-2.2.r2/../build/trusted/bl32/stm32mp1_clk.o
 .bss.stm32mp1_osc
                0x000000002fffcf30       0x18 /home/ming/tf-a-stm32mp-2.2.r2-r0/tf-a-stm32mp-2.2.r2/../build/trusted/bl32/stm32mp1_clk.o
 .bss.saved_ddr_sr_mode
                0x000000002fffcf48        0x4 /home/ming/tf-a-stm32mp-2.2.r2-r0/tf-a-stm32mp-2.2.r2/../build/trusted/bl32/stm32mp1_ddr_helpers.o
 .bss.stm32_iwdg
                0x000000002fffcf4c       0x20 /home/ming/tf-a-stm32mp-2.2.r2-r0/tf-a-stm32mp-2.2.r2/../build/trusted/bl32/stm32_iwdg.o
 .bss.i2c_handle
                0x000000002fffcf6c       0x24 /home/ming/tf-a-stm32mp-2.2.r2-r0/tf-a-stm32mp-2.2.r2/../build/trusted/bl32/stm32mp_pmic.o
 .bss.pmic_i2c_addr
                0x000000002fffcf90        0x4 /home/ming/tf-a-stm32mp-2.2.r2-r0/tf-a-stm32mp-2.2.r2/../build/trusted/bl32/stm32mp_pmic.o
 .bss.pmic_i2c_addr
                0x000000002fffcf94        0x2 /home/ming/tf-a-stm32mp-2.2.r2-r0/tf-a-stm32mp-2.2.r2/../build/trusted/bl32/stpmic1.o
 *fill*         0x000000002fffcf96        0x2 
 .bss.pmic_i2c_handle
                0x000000002fffcf98        0x4 /home/ming/tf-a-stm32mp-2.2.r2-r0/tf-a-stm32mp-2.2.r2/../build/trusted/bl32/stpmic1.o
 .bss.fdt_checked
                0x000000002fffcf9c        0x4 /home/ming/tf-a-stm32mp-2.2.r2-r0/tf-a-stm32mp-2.2.r2/../build/trusted/bl32/stm32mp_dt.o
 .bss.shregs_lock
                0x000000002fffcfa0        0x4 /home/ming/tf-a-stm32mp-2.2.r2-r0/tf-a-stm32mp-2.2.r2/../build/trusted/bl32/stm32mp_shres_helpers.o
 *(COMMON)
 COMMON         0x000000002fffcfa4       0x80 /home/ming/tf-a-stm32mp-2.2.r2-r0/tf-a-stm32mp-2.2.r2/../build/trusted/bl32/runtime_svc.o
                0x000000002fffcfa4                rt_svc_descs_indices
 *fill*         0x000000002fffd024       0x1c 
 COMMON         0x000000002fffd040       0x80 /home/ming/tf-a-stm32mp-2.2.r2-r0/tf-a-stm32mp-2.2.r2/../build/trusted/bl32/cpu_data_array.o
                0x000000002fffd040                percpu_data
 COMMON         0x000000002fffd0c0       0x40 /home/ming/tf-a-stm32mp-2.2.r2-r0/tf-a-stm32mp-2.2.r2/../build/trusted/bl32/psci_common.o
                0x000000002fffd0c0                psci_cpu_pd_nodes
                0x000000002fffd0d8                psci_non_cpu_pd_nodes
                0x000000002fffd0f8                psci_plat_pm_ops
                0x000000002fffd0fc                psci_spd_pm
 COMMON         0x000000002fffd100        0x4 /home/ming/tf-a-stm32mp-2.2.r2-r0/tf-a-stm32mp-2.2.r2/../build/trusted/bl32/psci_setup.o
                0x000000002fffd100                psci_caps
 COMMON         0x000000002fffd104        0x4 /home/ming/tf-a-stm32mp-2.2.r2-r0/tf-a-stm32mp-2.2.r2/../build/trusted/bl32/multi_console.o
                0x000000002fffd104                console_list
 COMMON         0x000000002fffd108       0x18 /home/ming/tf-a-stm32mp-2.2.r2-r0/tf-a-stm32mp-2.2.r2/../build/trusted/bl32/xlat_tables_context.o
                0x000000002fffd108                mmu_cfg_params
                0x000000002fffd140                . = ALIGN (0x40)
 *fill*         0x000000002fffd120       0x20 
                0x000000002fffd140                __BAKERY_LOCK_START__ = .
                0x000000002fffd140                __PERCPU_BAKERY_LOCK_START__ = .
 *(bakery_lock)
 bakery_lock    0x000000002fffd140        0x4 /home/ming/tf-a-stm32mp-2.2.r2-r0/tf-a-stm32mp-2.2.r2/../build/trusted/bl32/psci_common.o
                0x000000002fffd140                psci_locks
                0x000000002fffd180                . = ALIGN (0x40)
 *fill*         0x000000002fffd144       0x3c 
                0x000000002fffd180                __PERCPU_BAKERY_LOCK_END__ = .
                0x0000000000000040                __PERCPU_BAKERY_LOCK_SIZE__ = ABSOLUTE ((__PERCPU_BAKERY_LOCK_END__ - __PERCPU_BAKERY_LOCK_START__))
                0x000000002fffd1c0                . = (. + (__PERCPU_BAKERY_LOCK_SIZE__ * 0x1))
 *fill*         0x000000002fffd180       0x40 
                0x000000002fffd1c0                __BAKERY_LOCK_END__ = .
                0x000000002fffd1c0                __BSS_END__ = .

xlat_table
 *(xlat_table)
                0x0000000000001040                __BSS_SIZE__ = SIZEOF (.bss)
                0x000000002fffd1c0                __RW_END__ = .
                0x000000002fffd1c0                __BL32_END__ = .
LOAD /home/ming/tf-a-stm32mp-2.2.r2-r0/tf-a-stm32mp-2.2.r2/../build/trusted/bl32/build_message.o
LOAD /home/ming/tf-a-stm32mp-2.2.r2-r0/tf-a-stm32mp-2.2.r2/../build/trusted/bl32/sp_min_main.o
LOAD /home/ming/tf-a-stm32mp-2.2.r2-r0/tf-a-stm32mp-2.2.r2/../build/trusted/bl32/runtime_svc.o
LOAD /home/ming/tf-a-stm32mp-2.2.r2-r0/tf-a-stm32mp-2.2.r2/../build/trusted/bl32/plat_sp_min_common.o
LOAD /home/ming/tf-a-stm32mp-2.2.r2-r0/tf-a-stm32mp-2.2.r2/../build/trusted/bl32/std_svc_setup.o
LOAD /home/ming/tf-a-stm32mp-2.2.r2-r0/tf-a-stm32mp-2.2.r2/../build/trusted/bl32/cpu_data_array.o
LOAD /home/ming/tf-a-stm32mp-2.2.r2-r0/tf-a-stm32mp-2.2.r2/../build/trusted/bl32/context_mgmt.o
LOAD /home/ming/tf-a-stm32mp-2.2.r2-r0/tf-a-stm32mp-2.2.r2/../build/trusted/bl32/errata_report.o
LOAD /home/ming/tf-a-stm32mp-2.2.r2-r0/tf-a-stm32mp-2.2.r2/../build/trusted/bl32/psci_off.o
LOAD /home/ming/tf-a-stm32mp-2.2.r2-r0/tf-a-stm32mp-2.2.r2/../build/trusted/bl32/psci_on.o
LOAD /home/ming/tf-a-stm32mp-2.2.r2-r0/tf-a-stm32mp-2.2.r2/../build/trusted/bl32/psci_suspend.o
LOAD /home/ming/tf-a-stm32mp-2.2.r2-r0/tf-a-stm32mp-2.2.r2/../build/trusted/bl32/psci_common.o
LOAD /home/ming/tf-a-stm32mp-2.2.r2-r0/tf-a-stm32mp-2.2.r2/../build/trusted/bl32/psci_main.o
LOAD /home/ming/tf-a-stm32mp-2.2.r2-r0/tf-a-stm32mp-2.2.r2/../build/trusted/bl32/psci_setup.o
LOAD /home/ming/tf-a-stm32mp-2.2.r2-r0/tf-a-stm32mp-2.2.r2/../build/trusted/bl32/psci_system_off.o
LOAD /home/ming/tf-a-stm32mp-2.2.r2-r0/tf-a-stm32mp-2.2.r2/../build/trusted/bl32/psci_mem_protect.o
LOAD /home/ming/tf-a-stm32mp-2.2.r2-r0/tf-a-stm32mp-2.2.r2/../build/trusted/bl32/bakery_lock_normal.o
LOAD /home/ming/tf-a-stm32mp-2.2.r2-r0/tf-a-stm32mp-2.2.r2/../build/trusted/bl32/stm32mp1_calib.o
LOAD /home/ming/tf-a-stm32mp-2.2.r2-r0/tf-a-stm32mp-2.2.r2/../build/trusted/bl32/etzpc.o
LOAD /home/ming/tf-a-stm32mp-2.2.r2-r0/tf-a-stm32mp-2.2.r2/../build/trusted/bl32/stm32_rng.o
LOAD /home/ming/tf-a-stm32mp-2.2.r2-r0/tf-a-stm32mp-2.2.r2/../build/trusted/bl32/stm32_rtc.o
LOAD /home/ming/tf-a-stm32mp-2.2.r2-r0/tf-a-stm32mp-2.2.r2/../build/trusted/bl32/stm32_tamp.o
LOAD /home/ming/tf-a-stm32mp-2.2.r2-r0/tf-a-stm32mp-2.2.r2/../build/trusted/bl32/stm32_timer.o
LOAD /home/ming/tf-a-stm32mp-2.2.r2-r0/tf-a-stm32mp-2.2.r2/../build/trusted/bl32/sp_min_setup.o
LOAD /home/ming/tf-a-stm32mp-2.2.r2-r0/tf-a-stm32mp-2.2.r2/../build/trusted/bl32/stm32mp1_low_power.o
LOAD /home/ming/tf-a-stm32mp-2.2.r2-r0/tf-a-stm32mp-2.2.r2/../build/trusted/bl32/stm32mp1_pm.o
LOAD /home/ming/tf-a-stm32mp-2.2.r2-r0/tf-a-stm32mp-2.2.r2/../build/trusted/bl32/stm32mp1_power_config.o
LOAD /home/ming/tf-a-stm32mp-2.2.r2-r0/tf-a-stm32mp-2.2.r2/../build/trusted/bl32/stm32mp1_shared_resources.o
LOAD /home/ming/tf-a-stm32mp-2.2.r2-r0/tf-a-stm32mp-2.2.r2/../build/trusted/bl32/stm32mp1_topology.o
LOAD /home/ming/tf-a-stm32mp-2.2.r2-r0/tf-a-stm32mp-2.2.r2/../build/trusted/bl32/gic_common.o
LOAD /home/ming/tf-a-stm32mp-2.2.r2-r0/tf-a-stm32mp-2.2.r2/../build/trusted/bl32/gicv2_helpers.o
LOAD /home/ming/tf-a-stm32mp-2.2.r2-r0/tf-a-stm32mp-2.2.r2/../build/trusted/bl32/gicv2_main.o
LOAD /home/ming/tf-a-stm32mp-2.2.r2-r0/tf-a-stm32mp-2.2.r2/../build/trusted/bl32/plat_gicv2.o
LOAD /home/ming/tf-a-stm32mp-2.2.r2-r0/tf-a-stm32mp-2.2.r2/../build/trusted/bl32/stm32_gic.o
LOAD /home/ming/tf-a-stm32mp-2.2.r2-r0/tf-a-stm32mp-2.2.r2/../build/trusted/bl32/plat_psci_common.o
LOAD /home/ming/tf-a-stm32mp-2.2.r2-r0/tf-a-stm32mp-2.2.r2/../build/trusted/bl32/bsec_svc.o
LOAD /home/ming/tf-a-stm32mp-2.2.r2-r0/tf-a-stm32mp-2.2.r2/../build/trusted/bl32/low_power_svc.o
LOAD /home/ming/tf-a-stm32mp-2.2.r2-r0/tf-a-stm32mp-2.2.r2/../build/trusted/bl32/pwr_svc.o
LOAD /home/ming/tf-a-stm32mp-2.2.r2-r0/tf-a-stm32mp-2.2.r2/../build/trusted/bl32/rcc_svc.o
LOAD /home/ming/tf-a-stm32mp-2.2.r2-r0/tf-a-stm32mp-2.2.r2/../build/trusted/bl32/stm32mp1_svc_setup.o
LOAD /home/ming/tf-a-stm32mp-2.2.r2-r0/tf-a-stm32mp-2.2.r2/../build/trusted/bl32/base.o
LOAD /home/ming/tf-a-stm32mp-2.2.r2-r0/tf-a-stm32mp-2.2.r2/../build/trusted/bl32/clock.o
LOAD /home/ming/tf-a-stm32mp-2.2.r2-r0/tf-a-stm32mp-2.2.r2/../build/trusted/bl32/entry.o
LOAD /home/ming/tf-a-stm32mp-2.2.r2-r0/tf-a-stm32mp-2.2.r2/../build/trusted/bl32/reset_domain.o
LOAD /home/ming/tf-a-stm32mp-2.2.r2-r0/tf-a-stm32mp-2.2.r2/../build/trusted/bl32/smt.o
LOAD /home/ming/tf-a-stm32mp-2.2.r2-r0/tf-a-stm32mp-2.2.r2/../build/trusted/bl32/stm32mp1_scmi.o
LOAD /home/ming/tf-a-stm32mp-2.2.r2-r0/tf-a-stm32mp-2.2.r2/../build/trusted/bl32/bl_common.o
LOAD /home/ming/tf-a-stm32mp-2.2.r2-r0/tf-a-stm32mp-2.2.r2/../build/trusted/bl32/tf_log.o
LOAD /home/ming/tf-a-stm32mp-2.2.r2-r0/tf-a-stm32mp-2.2.r2/../build/trusted/bl32/multi_console.o
LOAD /home/ming/tf-a-stm32mp-2.2.r2-r0/tf-a-stm32mp-2.2.r2/../build/trusted/bl32/plat_bl_common.o
LOAD /home/ming/tf-a-stm32mp-2.2.r2-r0/tf-a-stm32mp-2.2.r2/../build/trusted/bl32/plat_log_common.o
LOAD /home/ming/tf-a-stm32mp-2.2.r2-r0/tf-a-stm32mp-2.2.r2/../build/trusted/bl32/plat_common.o
LOAD /home/ming/tf-a-stm32mp-2.2.r2-r0/tf-a-stm32mp-2.2.r2/../build/trusted/bl32/popcountdi2.o
LOAD /home/ming/tf-a-stm32mp-2.2.r2-r0/tf-a-stm32mp-2.2.r2/../build/trusted/bl32/popcountsi2.o
LOAD /home/ming/tf-a-stm32mp-2.2.r2-r0/tf-a-stm32mp-2.2.r2/../build/trusted/bl32/ctzdi2.o
LOAD /home/ming/tf-a-stm32mp-2.2.r2-r0/tf-a-stm32mp-2.2.r2/../build/trusted/bl32/divdi3.o
LOAD /home/ming/tf-a-stm32mp-2.2.r2-r0/tf-a-stm32mp-2.2.r2/../build/trusted/bl32/divmoddi4.o
LOAD /home/ming/tf-a-stm32mp-2.2.r2-r0/tf-a-stm32mp-2.2.r2/../build/trusted/bl32/lshrdi3.o
LOAD /home/ming/tf-a-stm32mp-2.2.r2-r0/tf-a-stm32mp-2.2.r2/../build/trusted/bl32/udivmoddi4.o
LOAD /home/ming/tf-a-stm32mp-2.2.r2-r0/tf-a-stm32mp-2.2.r2/../build/trusted/bl32/stm32mp_common.o
LOAD /home/ming/tf-a-stm32mp-2.2.r2-r0/tf-a-stm32mp-2.2.r2/../build/trusted/bl32/stm32mp1_private.o
LOAD /home/ming/tf-a-stm32mp-2.2.r2-r0/tf-a-stm32mp-2.2.r2/../build/trusted/bl32/xlat_tables_arch.o
LOAD /home/ming/tf-a-stm32mp-2.2.r2-r0/tf-a-stm32mp-2.2.r2/../build/trusted/bl32/xlat_tables_context.o
LOAD /home/ming/tf-a-stm32mp-2.2.r2-r0/tf-a-stm32mp-2.2.r2/../build/trusted/bl32/xlat_tables_core.o
LOAD /home/ming/tf-a-stm32mp-2.2.r2-r0/tf-a-stm32mp-2.2.r2/../build/trusted/bl32/xlat_tables_utils.o
LOAD /home/ming/tf-a-stm32mp-2.2.r2-r0/tf-a-stm32mp-2.2.r2/../build/trusted/bl32/tzc400.o
LOAD /home/ming/tf-a-stm32mp-2.2.r2-r0/tf-a-stm32mp-2.2.r2/../build/trusted/bl32/delay_timer.o
LOAD /home/ming/tf-a-stm32mp-2.2.r2-r0/tf-a-stm32mp-2.2.r2/../build/trusted/bl32/generic_delay_timer.o
LOAD /home/ming/tf-a-stm32mp-2.2.r2-r0/tf-a-stm32mp-2.2.r2/../build/trusted/bl32/bsec2.o
LOAD /home/ming/tf-a-stm32mp-2.2.r2-r0/tf-a-stm32mp-2.2.r2/../build/trusted/bl32/stm32mp_clkfunc.o
LOAD /home/ming/tf-a-stm32mp-2.2.r2-r0/tf-a-stm32mp-2.2.r2/../build/trusted/bl32/stm32mp1_clk.o
LOAD /home/ming/tf-a-stm32mp-2.2.r2-r0/tf-a-stm32mp-2.2.r2/../build/trusted/bl32/stm32mp1_ddr_helpers.o
LOAD /home/ming/tf-a-stm32mp-2.2.r2-r0/tf-a-stm32mp-2.2.r2/../build/trusted/bl32/stm32_gpio.o
LOAD /home/ming/tf-a-stm32mp-2.2.r2-r0/tf-a-stm32mp-2.2.r2/../build/trusted/bl32/stm32_i2c.o
LOAD /home/ming/tf-a-stm32mp-2.2.r2-r0/tf-a-stm32mp-2.2.r2/../build/trusted/bl32/stm32_iwdg.o
LOAD /home/ming/tf-a-stm32mp-2.2.r2-r0/tf-a-stm32mp-2.2.r2/../build/trusted/bl32/stm32mp_pmic.o
LOAD /home/ming/tf-a-stm32mp-2.2.r2-r0/tf-a-stm32mp-2.2.r2/../build/trusted/bl32/stpmic1.o
LOAD /home/ming/tf-a-stm32mp-2.2.r2-r0/tf-a-stm32mp-2.2.r2/../build/trusted/bl32/stm32mp_dummy_regulator.o
LOAD /home/ming/tf-a-stm32mp-2.2.r2-r0/tf-a-stm32mp-2.2.r2/../build/trusted/bl32/stm32mp_regulator.o
LOAD /home/ming/tf-a-stm32mp-2.2.r2-r0/tf-a-stm32mp-2.2.r2/../build/trusted/bl32/stm32mp1_reset.o
LOAD /home/ming/tf-a-stm32mp-2.2.r2-r0/tf-a-stm32mp-2.2.r2/../build/trusted/bl32/stm32mp_dt.o
LOAD /home/ming/tf-a-stm32mp-2.2.r2-r0/tf-a-stm32mp-2.2.r2/../build/trusted/bl32/stm32mp_shres_helpers.o
LOAD /home/ming/tf-a-stm32mp-2.2.r2-r0/tf-a-stm32mp-2.2.r2/../build/trusted/bl32/stm32mp1_context.o
LOAD /home/ming/tf-a-stm32mp-2.2.r2-r0/tf-a-stm32mp-2.2.r2/../build/trusted/bl32/stm32mp1_dbgmcu.o
LOAD /home/ming/tf-a-stm32mp-2.2.r2-r0/tf-a-stm32mp-2.2.r2/../build/trusted/bl32/stm32mp1_security.o
LOAD /home/ming/tf-a-stm32mp-2.2.r2-r0/tf-a-stm32mp-2.2.r2/../build/trusted/bl32/stm32mp1_syscfg.o
LOAD /home/ming/tf-a-stm32mp-2.2.r2-r0/tf-a-stm32mp-2.2.r2/../build/trusted/bl32/entrypoint.o
LOAD /home/ming/tf-a-stm32mp-2.2.r2-r0/tf-a-stm32mp-2.2.r2/../build/trusted/bl32/cpu_data.o
LOAD /home/ming/tf-a-stm32mp-2.2.r2-r0/tf-a-stm32mp-2.2.r2/../build/trusted/bl32/cpu_helpers.o
LOAD /home/ming/tf-a-stm32mp-2.2.r2-r0/tf-a-stm32mp-2.2.r2/../build/trusted/bl32/spinlock.o
LOAD /home/ming/tf-a-stm32mp-2.2.r2-r0/tf-a-stm32mp-2.2.r2/../build/trusted/bl32/psci_helpers.o
LOAD /home/ming/tf-a-stm32mp-2.2.r2-r0/tf-a-stm32mp-2.2.r2/../build/trusted/bl32/platform_mp_stack.o
LOAD /home/ming/tf-a-stm32mp-2.2.r2-r0/tf-a-stm32mp-2.2.r2/../build/trusted/bl32/debug.o
LOAD /home/ming/tf-a-stm32mp-2.2.r2-r0/tf-a-stm32mp-2.2.r2/../build/trusted/bl32/cache_helpers.o
LOAD /home/ming/tf-a-stm32mp-2.2.r2-r0/tf-a-stm32mp-2.2.r2/../build/trusted/bl32/misc_helpers.o
LOAD /home/ming/tf-a-stm32mp-2.2.r2-r0/tf-a-stm32mp-2.2.r2/../build/trusted/bl32/platform_helpers.o
LOAD /home/ming/tf-a-stm32mp-2.2.r2-r0/tf-a-stm32mp-2.2.r2/../build/trusted/bl32/aeabi_ldivmod.o
LOAD /home/ming/tf-a-stm32mp-2.2.r2-r0/tf-a-stm32mp-2.2.r2/../build/trusted/bl32/aeabi_uldivmod.o
LOAD /home/ming/tf-a-stm32mp-2.2.r2-r0/tf-a-stm32mp-2.2.r2/../build/trusted/bl32/stm32_console.o
LOAD /home/ming/tf-a-stm32mp-2.2.r2-r0/tf-a-stm32mp-2.2.r2/../build/trusted/bl32/enable_mmu.o
LOAD /home/ming/tf-a-stm32mp-2.2.r2-r0/tf-a-stm32mp-2.2.r2/../build/trusted/bl32/cortex_a7.o
LOAD /home/ming/tf-a-stm32mp-2.2.r2-r0/tf-a-stm32mp-2.2.r2/../build/trusted/bl32/stm32mp1_helper.o
LOAD /home/ming/tf-a-stm32mp-2.2.r2-r0/tf-a-stm32mp-2.2.r2/../build/trusted/lib/libfdt.a
LOAD /home/ming/tf-a-stm32mp-2.2.r2-r0/tf-a-stm32mp-2.2.r2/../build/trusted/lib/libc.a
OUTPUT(/home/ming/tf-a-stm32mp-2.2.r2-r0/tf-a-stm32mp-2.2.r2/../build/trusted/bl32/bl32.elf elf32-littlearm)

.debug_info     0x0000000000000000    0x4060d
 .debug_info    0x0000000000000000       0x79 /home/ming/tf-a-stm32mp-2.2.r2-r0/tf-a-stm32mp-2.2.r2/../build/trusted/bl32/build_message.o
 .debug_info    0x0000000000000079      0xda1 /home/ming/tf-a-stm32mp-2.2.r2-r0/tf-a-stm32mp-2.2.r2/../build/trusted/bl32/sp_min_main.o
 .debug_info    0x0000000000000e1a      0x773 /home/ming/tf-a-stm32mp-2.2.r2-r0/tf-a-stm32mp-2.2.r2/../build/trusted/bl32/runtime_svc.o
 .debug_info    0x000000000000158d      0x196 /home/ming/tf-a-stm32mp-2.2.r2-r0/tf-a-stm32mp-2.2.r2/../build/trusted/bl32/plat_sp_min_common.o
 .debug_info    0x0000000000001723      0x905 /home/ming/tf-a-stm32mp-2.2.r2-r0/tf-a-stm32mp-2.2.r2/../build/trusted/bl32/std_svc_setup.o
 .debug_info    0x0000000000002028      0x24b /home/ming/tf-a-stm32mp-2.2.r2-r0/tf-a-stm32mp-2.2.r2/../build/trusted/bl32/cpu_data_array.o
 .debug_info    0x0000000000002273      0x9ce /home/ming/tf-a-stm32mp-2.2.r2-r0/tf-a-stm32mp-2.2.r2/../build/trusted/bl32/context_mgmt.o
 .debug_info    0x0000000000002c41      0x3d3 /home/ming/tf-a-stm32mp-2.2.r2-r0/tf-a-stm32mp-2.2.r2/../build/trusted/bl32/errata_report.o
 .debug_info    0x0000000000003014      0xa6b /home/ming/tf-a-stm32mp-2.2.r2-r0/tf-a-stm32mp-2.2.r2/../build/trusted/bl32/psci_off.o
 .debug_info    0x0000000000003a7f      0xe88 /home/ming/tf-a-stm32mp-2.2.r2-r0/tf-a-stm32mp-2.2.r2/../build/trusted/bl32/psci_on.o
 .debug_info    0x0000000000004907      0xf31 /home/ming/tf-a-stm32mp-2.2.r2-r0/tf-a-stm32mp-2.2.r2/../build/trusted/bl32/psci_suspend.o
 .debug_info    0x0000000000005838     0x1bf1 /home/ming/tf-a-stm32mp-2.2.r2-r0/tf-a-stm32mp-2.2.r2/../build/trusted/bl32/psci_common.o
 .debug_info    0x0000000000007429     0x13e7 /home/ming/tf-a-stm32mp-2.2.r2-r0/tf-a-stm32mp-2.2.r2/../build/trusted/bl32/psci_main.o
 .debug_info    0x0000000000008810      0xead /home/ming/tf-a-stm32mp-2.2.r2-r0/tf-a-stm32mp-2.2.r2/../build/trusted/bl32/psci_setup.o
 .debug_info    0x00000000000096bd      0x8d9 /home/ming/tf-a-stm32mp-2.2.r2-r0/tf-a-stm32mp-2.2.r2/../build/trusted/bl32/psci_system_off.o
 .debug_info    0x0000000000009f96      0x878 /home/ming/tf-a-stm32mp-2.2.r2-r0/tf-a-stm32mp-2.2.r2/../build/trusted/bl32/psci_mem_protect.o
 .debug_info    0x000000000000a80e      0xab4 /home/ming/tf-a-stm32mp-2.2.r2-r0/tf-a-stm32mp-2.2.r2/../build/trusted/bl32/bakery_lock_normal.o
 .debug_info    0x000000000000b2c2     0x11dc /home/ming/tf-a-stm32mp-2.2.r2-r0/tf-a-stm32mp-2.2.r2/../build/trusted/bl32/stm32mp1_calib.o
 .debug_info    0x000000000000c49e      0xbf6 /home/ming/tf-a-stm32mp-2.2.r2-r0/tf-a-stm32mp-2.2.r2/../build/trusted/bl32/etzpc.o
 .debug_info    0x000000000000d094      0x717 /home/ming/tf-a-stm32mp-2.2.r2-r0/tf-a-stm32mp-2.2.r2/../build/trusted/bl32/stm32_rng.o
 .debug_info    0x000000000000d7ab      0xf67 /home/ming/tf-a-stm32mp-2.2.r2-r0/tf-a-stm32mp-2.2.r2/../build/trusted/bl32/stm32_rtc.o
 .debug_info    0x000000000000e712     0x1092 /home/ming/tf-a-stm32mp-2.2.r2-r0/tf-a-stm32mp-2.2.r2/../build/trusted/bl32/stm32_tamp.o
 .debug_info    0x000000000000f7a4      0xe2c /home/ming/tf-a-stm32mp-2.2.r2-r0/tf-a-stm32mp-2.2.r2/../build/trusted/bl32/stm32_timer.o
 .debug_info    0x00000000000105d0     0x10f6 /home/ming/tf-a-stm32mp-2.2.r2-r0/tf-a-stm32mp-2.2.r2/../build/trusted/bl32/sp_min_setup.o
 .debug_info    0x00000000000116c6     0x1430 /home/ming/tf-a-stm32mp-2.2.r2-r0/tf-a-stm32mp-2.2.r2/../build/trusted/bl32/stm32mp1_low_power.o
 .debug_info    0x0000000000012af6      0xd30 /home/ming/tf-a-stm32mp-2.2.r2-r0/tf-a-stm32mp-2.2.r2/../build/trusted/bl32/stm32mp1_pm.o
 .debug_info    0x0000000000013826      0x751 /home/ming/tf-a-stm32mp-2.2.r2-r0/tf-a-stm32mp-2.2.r2/../build/trusted/bl32/stm32mp1_power_config.o
 .debug_info    0x0000000000013f77     0x12e4 /home/ming/tf-a-stm32mp-2.2.r2-r0/tf-a-stm32mp-2.2.r2/../build/trusted/bl32/stm32mp1_shared_resources.o
 .debug_info    0x000000000001525b      0x20d /home/ming/tf-a-stm32mp-2.2.r2-r0/tf-a-stm32mp-2.2.r2/../build/trusted/bl32/stm32mp1_topology.o
 .debug_info    0x0000000000015468      0xf3d /home/ming/tf-a-stm32mp-2.2.r2-r0/tf-a-stm32mp-2.2.r2/../build/trusted/bl32/gic_common.o
 .debug_info    0x00000000000163a5      0x99f /home/ming/tf-a-stm32mp-2.2.r2-r0/tf-a-stm32mp-2.2.r2/../build/trusted/bl32/gicv2_helpers.o
 .debug_info    0x0000000000016d44     0x125e /home/ming/tf-a-stm32mp-2.2.r2-r0/tf-a-stm32mp-2.2.r2/../build/trusted/bl32/gicv2_main.o
 .debug_info    0x0000000000017fa2      0x782 /home/ming/tf-a-stm32mp-2.2.r2-r0/tf-a-stm32mp-2.2.r2/../build/trusted/bl32/plat_gicv2.o
 .debug_info    0x0000000000018724      0x8c3 /home/ming/tf-a-stm32mp-2.2.r2-r0/tf-a-stm32mp-2.2.r2/../build/trusted/bl32/stm32_gic.o
 .debug_info    0x0000000000018fe7      0x22b /home/ming/tf-a-stm32mp-2.2.r2-r0/tf-a-stm32mp-2.2.r2/../build/trusted/bl32/plat_psci_common.o
 .debug_info    0x0000000000019212      0x8dd /home/ming/tf-a-stm32mp-2.2.r2-r0/tf-a-stm32mp-2.2.r2/../build/trusted/bl32/bsec_svc.o
 .debug_info    0x0000000000019aef      0x10c /home/ming/tf-a-stm32mp-2.2.r2-r0/tf-a-stm32mp-2.2.r2/../build/trusted/bl32/low_power_svc.o
 .debug_info    0x0000000000019bfb      0x4fe /home/ming/tf-a-stm32mp-2.2.r2-r0/tf-a-stm32mp-2.2.r2/../build/trusted/bl32/pwr_svc.o
 .debug_info    0x000000000001a0f9      0x4b4 /home/ming/tf-a-stm32mp-2.2.r2-r0/tf-a-stm32mp-2.2.r2/../build/trusted/bl32/rcc_svc.o
 .debug_info    0x000000000001a5ad      0x716 /home/ming/tf-a-stm32mp-2.2.r2-r0/tf-a-stm32mp-2.2.r2/../build/trusted/bl32/stm32mp1_svc_setup.o
 .debug_info    0x000000000001acc3      0xb28 /home/ming/tf-a-stm32mp-2.2.r2-r0/tf-a-stm32mp-2.2.r2/../build/trusted/bl32/base.o
 .debug_info    0x000000000001b7eb      0xf8a /home/ming/tf-a-stm32mp-2.2.r2-r0/tf-a-stm32mp-2.2.r2/../build/trusted/bl32/clock.o
 .debug_info    0x000000000001c775      0x3f2 /home/ming/tf-a-stm32mp-2.2.r2-r0/tf-a-stm32mp-2.2.r2/../build/trusted/bl32/entry.o
 .debug_info    0x000000000001cb67      0x955 /home/ming/tf-a-stm32mp-2.2.r2-r0/tf-a-stm32mp-2.2.r2/../build/trusted/bl32/reset_domain.o
 .debug_info    0x000000000001d4bc      0x655 /home/ming/tf-a-stm32mp-2.2.r2-r0/tf-a-stm32mp-2.2.r2/../build/trusted/bl32/smt.o
 .debug_info    0x000000000001db11      0xfd3 /home/ming/tf-a-stm32mp-2.2.r2-r0/tf-a-stm32mp-2.2.r2/../build/trusted/bl32/stm32mp1_scmi.o
 .debug_info    0x000000000001eae4      0x288 /home/ming/tf-a-stm32mp-2.2.r2-r0/tf-a-stm32mp-2.2.r2/../build/trusted/bl32/tf_log.o
 .debug_info    0x000000000001ed6c      0x5ab /home/ming/tf-a-stm32mp-2.2.r2-r0/tf-a-stm32mp-2.2.r2/../build/trusted/bl32/multi_console.o
 .debug_info    0x000000000001f317      0x1bb /home/ming/tf-a-stm32mp-2.2.r2-r0/tf-a-stm32mp-2.2.r2/../build/trusted/bl32/plat_log_common.o
 .debug_info    0x000000000001f4d2      0x1b2 /home/ming/tf-a-stm32mp-2.2.r2-r0/tf-a-stm32mp-2.2.r2/../build/trusted/bl32/plat_common.o
 .debug_info    0x000000000001f684      0x13c /home/ming/tf-a-stm32mp-2.2.r2-r0/tf-a-stm32mp-2.2.r2/../build/trusted/bl32/ctzdi2.o
 .debug_info    0x000000000001f7c0      0x1c7 /home/ming/tf-a-stm32mp-2.2.r2-r0/tf-a-stm32mp-2.2.r2/../build/trusted/bl32/udivmoddi4.o
 .debug_info    0x000000000001f987      0x737 /home/ming/tf-a-stm32mp-2.2.r2-r0/tf-a-stm32mp-2.2.r2/../build/trusted/bl32/stm32mp_common.o
 .debug_info    0x00000000000200be     0x10ae /home/ming/tf-a-stm32mp-2.2.r2-r0/tf-a-stm32mp-2.2.r2/../build/trusted/bl32/stm32mp1_private.o
 .debug_info    0x000000000002116c      0x8b6 /home/ming/tf-a-stm32mp-2.2.r2-r0/tf-a-stm32mp-2.2.r2/../build/trusted/bl32/xlat_tables_arch.o
 .debug_info    0x0000000000021a22      0x8e4 /home/ming/tf-a-stm32mp-2.2.r2-r0/tf-a-stm32mp-2.2.r2/../build/trusted/bl32/xlat_tables_context.o
 .debug_info    0x0000000000022306     0x15b9 /home/ming/tf-a-stm32mp-2.2.r2-r0/tf-a-stm32mp-2.2.r2/../build/trusted/bl32/xlat_tables_core.o
 .debug_info    0x00000000000238bf      0x97b /home/ming/tf-a-stm32mp-2.2.r2-r0/tf-a-stm32mp-2.2.r2/../build/trusted/bl32/xlat_tables_utils.o
 .debug_info    0x000000000002423a      0xfec /home/ming/tf-a-stm32mp-2.2.r2-r0/tf-a-stm32mp-2.2.r2/../build/trusted/bl32/tzc400.o
 .debug_info    0x0000000000025226      0x2da /home/ming/tf-a-stm32mp-2.2.r2-r0/tf-a-stm32mp-2.2.r2/../build/trusted/bl32/delay_timer.o
 .debug_info    0x0000000000025500      0x35d /home/ming/tf-a-stm32mp-2.2.r2-r0/tf-a-stm32mp-2.2.r2/../build/trusted/bl32/generic_delay_timer.o
 .debug_info    0x000000000002585d     0x18f5 /home/ming/tf-a-stm32mp-2.2.r2-r0/tf-a-stm32mp-2.2.r2/../build/trusted/bl32/bsec2.o
 .debug_info    0x0000000000027152      0xfcb /home/ming/tf-a-stm32mp-2.2.r2-r0/tf-a-stm32mp-2.2.r2/../build/trusted/bl32/stm32mp_clkfunc.o
 .debug_info    0x000000000002811d     0x6844 /home/ming/tf-a-stm32mp-2.2.r2-r0/tf-a-stm32mp-2.2.r2/../build/trusted/bl32/stm32mp1_clk.o
 .debug_info    0x000000000002e961     0x3424 /home/ming/tf-a-stm32mp-2.2.r2-r0/tf-a-stm32mp-2.2.r2/../build/trusted/bl32/stm32mp1_ddr_helpers.o
 .debug_info    0x0000000000031d85      0xfb8 /home/ming/tf-a-stm32mp-2.2.r2-r0/tf-a-stm32mp-2.2.r2/../build/trusted/bl32/stm32_gpio.o
 .debug_info    0x0000000000032d3d     0x28db /home/ming/tf-a-stm32mp-2.2.r2-r0/tf-a-stm32mp-2.2.r2/../build/trusted/bl32/stm32_i2c.o
 .debug_info    0x0000000000035618      0xa41 /home/ming/tf-a-stm32mp-2.2.r2-r0/tf-a-stm32mp-2.2.r2/../build/trusted/bl32/stm32_iwdg.o
 .debug_info    0x0000000000036059     0x170e /home/ming/tf-a-stm32mp-2.2.r2-r0/tf-a-stm32mp-2.2.r2/../build/trusted/bl32/stm32mp_pmic.o
 .debug_info    0x0000000000037767      0xe45 /home/ming/tf-a-stm32mp-2.2.r2-r0/tf-a-stm32mp-2.2.r2/../build/trusted/bl32/stpmic1.o
 .debug_info    0x00000000000385ac      0x70c /home/ming/tf-a-stm32mp-2.2.r2-r0/tf-a-stm32mp-2.2.r2/../build/trusted/bl32/stm32mp1_reset.o
 .debug_info    0x0000000000038cb8     0x1611 /home/ming/tf-a-stm32mp-2.2.r2-r0/tf-a-stm32mp-2.2.r2/../build/trusted/bl32/stm32mp_dt.o
 .debug_info    0x000000000003a2c9      0x4f1 /home/ming/tf-a-stm32mp-2.2.r2-r0/tf-a-stm32mp-2.2.r2/../build/trusted/bl32/stm32mp_shres_helpers.o
 .debug_info    0x000000000003a7ba      0xfad /home/ming/tf-a-stm32mp-2.2.r2-r0/tf-a-stm32mp-2.2.r2/../build/trusted/bl32/stm32mp1_context.o
 .debug_info    0x000000000003b767      0x424 /home/ming/tf-a-stm32mp-2.2.r2-r0/tf-a-stm32mp-2.2.r2/../build/trusted/bl32/stm32mp1_dbgmcu.o
 .debug_info    0x000000000003bb8b      0x378 /home/ming/tf-a-stm32mp-2.2.r2-r0/tf-a-stm32mp-2.2.r2/../build/trusted/bl32/stm32mp1_security.o
 .debug_info    0x000000000003bf03      0x822 /home/ming/tf-a-stm32mp-2.2.r2-r0/tf-a-stm32mp-2.2.r2/../build/trusted/bl32/stm32mp1_syscfg.o
 .debug_info    0x000000000003c725       0x7b /home/ming/tf-a-stm32mp-2.2.r2-r0/tf-a-stm32mp-2.2.r2/../build/trusted/bl32/entrypoint.o
 .debug_info    0x000000000003c7a0       0x7d /home/ming/tf-a-stm32mp-2.2.r2-r0/tf-a-stm32mp-2.2.r2/../build/trusted/bl32/cpu_data.o
 .debug_info    0x000000000003c81d       0x79 /home/ming/tf-a-stm32mp-2.2.r2-r0/tf-a-stm32mp-2.2.r2/../build/trusted/bl32/cpu_helpers.o
 .debug_info    0x000000000003c896       0x81 /home/ming/tf-a-stm32mp-2.2.r2-r0/tf-a-stm32mp-2.2.r2/../build/trusted/bl32/spinlock.o
 .debug_info    0x000000000003c917       0x7a /home/ming/tf-a-stm32mp-2.2.r2-r0/tf-a-stm32mp-2.2.r2/../build/trusted/bl32/psci_helpers.o
 .debug_info    0x000000000003c991       0x82 /home/ming/tf-a-stm32mp-2.2.r2-r0/tf-a-stm32mp-2.2.r2/../build/trusted/bl32/platform_mp_stack.o
 .debug_info    0x000000000003ca13       0x71 /home/ming/tf-a-stm32mp-2.2.r2-r0/tf-a-stm32mp-2.2.r2/../build/trusted/bl32/debug.o
 .debug_info    0x000000000003ca84       0x76 /home/ming/tf-a-stm32mp-2.2.r2-r0/tf-a-stm32mp-2.2.r2/../build/trusted/bl32/cache_helpers.o
 .debug_info    0x000000000003cafa       0x75 /home/ming/tf-a-stm32mp-2.2.r2-r0/tf-a-stm32mp-2.2.r2/../build/trusted/bl32/misc_helpers.o
 .debug_info    0x000000000003cb6f       0x81 /home/ming/tf-a-stm32mp-2.2.r2-r0/tf-a-stm32mp-2.2.r2/../build/trusted/bl32/platform_helpers.o
 .debug_info    0x000000000003cbf0       0x8c /home/ming/tf-a-stm32mp-2.2.r2-r0/tf-a-stm32mp-2.2.r2/../build/trusted/bl32/aeabi_uldivmod.o
 .debug_info    0x000000000003cc7c       0x82 /home/ming/tf-a-stm32mp-2.2.r2-r0/tf-a-stm32mp-2.2.r2/../build/trusted/bl32/stm32_console.o
 .debug_info    0x000000000003ccfe       0x82 /home/ming/tf-a-stm32mp-2.2.r2-r0/tf-a-stm32mp-2.2.r2/../build/trusted/bl32/enable_mmu.o
 .debug_info    0x000000000003cd80       0x77 /home/ming/tf-a-stm32mp-2.2.r2-r0/tf-a-stm32mp-2.2.r2/../build/trusted/bl32/cortex_a7.o
 .debug_info    0x000000000003cdf7       0x7d /home/ming/tf-a-stm32mp-2.2.r2-r0/tf-a-stm32mp-2.2.r2/../build/trusted/bl32/stm32mp1_helper.o
 .debug_info    0x000000000003ce74      0x704 /home/ming/tf-a-stm32mp-2.2.r2-r0/tf-a-stm32mp-2.2.r2/../build/trusted/lib/libfdt.a(fdt.o)
 .debug_info    0x000000000003d578      0x21a /home/ming/tf-a-stm32mp-2.2.r2-r0/tf-a-stm32mp-2.2.r2/../build/trusted/lib/libfdt.a(fdt_addresses.o)
 .debug_info    0x000000000003d792     0x1f16 /home/ming/tf-a-stm32mp-2.2.r2-r0/tf-a-stm32mp-2.2.r2/../build/trusted/lib/libfdt.a(fdt_ro.o)
 .debug_info    0x000000000003f6a8      0x1dc /home/ming/tf-a-stm32mp-2.2.r2-r0/tf-a-stm32mp-2.2.r2/../build/trusted/lib/libc.a(assert.o)
 .debug_info    0x000000000003f884       0xb3 /home/ming/tf-a-stm32mp-2.2.r2-r0/tf-a-stm32mp-2.2.r2/../build/trusted/lib/libc.a(memchr.o)
 .debug_info    0x000000000003f937       0xda /home/ming/tf-a-stm32mp-2.2.r2-r0/tf-a-stm32mp-2.2.r2/../build/trusted/lib/libc.a(memcmp.o)
 .debug_info    0x000000000003fa11       0xbf /home/ming/tf-a-stm32mp-2.2.r2-r0/tf-a-stm32mp-2.2.r2/../build/trusted/lib/libc.a(memcpy.o)
 .debug_info    0x000000000003fad0       0xfd /home/ming/tf-a-stm32mp-2.2.r2-r0/tf-a-stm32mp-2.2.r2/../build/trusted/lib/libc.a(memmove.o)
 .debug_info    0x000000000003fbcd       0xa7 /home/ming/tf-a-stm32mp-2.2.r2-r0/tf-a-stm32mp-2.2.r2/../build/trusted/lib/libc.a(memset.o)
 .debug_info    0x000000000003fc74      0x492 /home/ming/tf-a-stm32mp-2.2.r2-r0/tf-a-stm32mp-2.2.r2/../build/trusted/lib/libc.a(printf.o)
 .debug_info    0x0000000000040106       0xc3 /home/ming/tf-a-stm32mp-2.2.r2-r0/tf-a-stm32mp-2.2.r2/../build/trusted/lib/libc.a(putchar.o)
 .debug_info    0x00000000000401c9       0x93 /home/ming/tf-a-stm32mp-2.2.r2-r0/tf-a-stm32mp-2.2.r2/../build/trusted/lib/libc.a(strchr.o)
 .debug_info    0x000000000004025c       0x7c /home/ming/tf-a-stm32mp-2.2.r2-r0/tf-a-stm32mp-2.2.r2/../build/trusted/lib/libc.a(strcmp.o)
 .debug_info    0x00000000000402d8       0xf2 /home/ming/tf-a-stm32mp-2.2.r2-r0/tf-a-stm32mp-2.2.r2/../build/trusted/lib/libc.a(strlcpy.o)
 .debug_info    0x00000000000403ca       0x80 /home/ming/tf-a-stm32mp-2.2.r2-r0/tf-a-stm32mp-2.2.r2/../build/trusted/lib/libc.a(strlen.o)
 .debug_info    0x000000000004044a       0x94 /home/ming/tf-a-stm32mp-2.2.r2-r0/tf-a-stm32mp-2.2.r2/../build/trusted/lib/libc.a(strncmp.o)
 .debug_info    0x00000000000404de       0x8d /home/ming/tf-a-stm32mp-2.2.r2-r0/tf-a-stm32mp-2.2.r2/../build/trusted/lib/libc.a(strnlen.o)
 .debug_info    0x000000000004056b       0xa2 /home/ming/tf-a-stm32mp-2.2.r2-r0/tf-a-stm32mp-2.2.r2/../build/trusted/lib/libc.a(strrchr.o)

.debug_abbrev   0x0000000000000000     0xcd93
 .debug_abbrev  0x0000000000000000       0x43 /home/ming/tf-a-stm32mp-2.2.r2-r0/tf-a-stm32mp-2.2.r2/../build/trusted/bl32/build_message.o
 .debug_abbrev  0x0000000000000043      0x2e6 /home/ming/tf-a-stm32mp-2.2.r2-r0/tf-a-stm32mp-2.2.r2/../build/trusted/bl32/sp_min_main.o
 .debug_abbrev  0x0000000000000329      0x239 /home/ming/tf-a-stm32mp-2.2.r2-r0/tf-a-stm32mp-2.2.r2/../build/trusted/bl32/runtime_svc.o
 .debug_abbrev  0x0000000000000562       0xd0 /home/ming/tf-a-stm32mp-2.2.r2-r0/tf-a-stm32mp-2.2.r2/../build/trusted/bl32/plat_sp_min_common.o
 .debug_abbrev  0x0000000000000632      0x218 /home/ming/tf-a-stm32mp-2.2.r2-r0/tf-a-stm32mp-2.2.r2/../build/trusted/bl32/std_svc_setup.o
 .debug_abbrev  0x000000000000084a      0x109 /home/ming/tf-a-stm32mp-2.2.r2-r0/tf-a-stm32mp-2.2.r2/../build/trusted/bl32/cpu_data_array.o
 .debug_abbrev  0x0000000000000953      0x2a9 /home/ming/tf-a-stm32mp-2.2.r2-r0/tf-a-stm32mp-2.2.r2/../build/trusted/bl32/context_mgmt.o
 .debug_abbrev  0x0000000000000bfc      0x1d5 /home/ming/tf-a-stm32mp-2.2.r2-r0/tf-a-stm32mp-2.2.r2/../build/trusted/bl32/errata_report.o
 .debug_abbrev  0x0000000000000dd1      0x288 /home/ming/tf-a-stm32mp-2.2.r2-r0/tf-a-stm32mp-2.2.r2/../build/trusted/bl32/psci_off.o
 .debug_abbrev  0x0000000000001059      0x30a /home/ming/tf-a-stm32mp-2.2.r2-r0/tf-a-stm32mp-2.2.r2/../build/trusted/bl32/psci_on.o
 .debug_abbrev  0x0000000000001363      0x3a0 /home/ming/tf-a-stm32mp-2.2.r2-r0/tf-a-stm32mp-2.2.r2/../build/trusted/bl32/psci_suspend.o
 .debug_abbrev  0x0000000000001703      0x484 /home/ming/tf-a-stm32mp-2.2.r2-r0/tf-a-stm32mp-2.2.r2/../build/trusted/bl32/psci_common.o
 .debug_abbrev  0x0000000000001b87      0x435 /home/ming/tf-a-stm32mp-2.2.r2-r0/tf-a-stm32mp-2.2.r2/../build/trusted/bl32/psci_main.o
 .debug_abbrev  0x0000000000001fbc      0x32a /home/ming/tf-a-stm32mp-2.2.r2-r0/tf-a-stm32mp-2.2.r2/../build/trusted/bl32/psci_setup.o
 .debug_abbrev  0x00000000000022e6      0x20a /home/ming/tf-a-stm32mp-2.2.r2-r0/tf-a-stm32mp-2.2.r2/../build/trusted/bl32/psci_system_off.o
 .debug_abbrev  0x00000000000024f0      0x1dd /home/ming/tf-a-stm32mp-2.2.r2-r0/tf-a-stm32mp-2.2.r2/../build/trusted/bl32/psci_mem_protect.o
 .debug_abbrev  0x00000000000026cd      0x2ae /home/ming/tf-a-stm32mp-2.2.r2-r0/tf-a-stm32mp-2.2.r2/../build/trusted/bl32/bakery_lock_normal.o
 .debug_abbrev  0x000000000000297b      0x42a /home/ming/tf-a-stm32mp-2.2.r2-r0/tf-a-stm32mp-2.2.r2/../build/trusted/bl32/stm32mp1_calib.o
 .debug_abbrev  0x0000000000002da5      0x318 /home/ming/tf-a-stm32mp-2.2.r2-r0/tf-a-stm32mp-2.2.r2/../build/trusted/bl32/etzpc.o
 .debug_abbrev  0x00000000000030bd      0x213 /home/ming/tf-a-stm32mp-2.2.r2-r0/tf-a-stm32mp-2.2.r2/../build/trusted/bl32/stm32_rng.o
 .debug_abbrev  0x00000000000032d0      0x3d0 /home/ming/tf-a-stm32mp-2.2.r2-r0/tf-a-stm32mp-2.2.r2/../build/trusted/bl32/stm32_rtc.o
 .debug_abbrev  0x00000000000036a0      0x325 /home/ming/tf-a-stm32mp-2.2.r2-r0/tf-a-stm32mp-2.2.r2/../build/trusted/bl32/stm32_tamp.o
 .debug_abbrev  0x00000000000039c5      0x345 /home/ming/tf-a-stm32mp-2.2.r2-r0/tf-a-stm32mp-2.2.r2/../build/trusted/bl32/stm32_timer.o
 .debug_abbrev  0x0000000000003d0a      0x3c6 /home/ming/tf-a-stm32mp-2.2.r2-r0/tf-a-stm32mp-2.2.r2/../build/trusted/bl32/sp_min_setup.o
 .debug_abbrev  0x00000000000040d0      0x3ac /home/ming/tf-a-stm32mp-2.2.r2-r0/tf-a-stm32mp-2.2.r2/../build/trusted/bl32/stm32mp1_low_power.o
 .debug_abbrev  0x000000000000447c      0x37a /home/ming/tf-a-stm32mp-2.2.r2-r0/tf-a-stm32mp-2.2.r2/../build/trusted/bl32/stm32mp1_pm.o
 .debug_abbrev  0x00000000000047f6      0x256 /home/ming/tf-a-stm32mp-2.2.r2-r0/tf-a-stm32mp-2.2.r2/../build/trusted/bl32/stm32mp1_power_config.o
 .debug_abbrev  0x0000000000004a4c      0x3c5 /home/ming/tf-a-stm32mp-2.2.r2-r0/tf-a-stm32mp-2.2.r2/../build/trusted/bl32/stm32mp1_shared_resources.o
 .debug_abbrev  0x0000000000004e11       0xee /home/ming/tf-a-stm32mp-2.2.r2-r0/tf-a-stm32mp-2.2.r2/../build/trusted/bl32/stm32mp1_topology.o
 .debug_abbrev  0x0000000000004eff      0x22d /home/ming/tf-a-stm32mp-2.2.r2-r0/tf-a-stm32mp-2.2.r2/../build/trusted/bl32/gic_common.o
 .debug_abbrev  0x000000000000512c      0x257 /home/ming/tf-a-stm32mp-2.2.r2-r0/tf-a-stm32mp-2.2.r2/../build/trusted/bl32/gicv2_helpers.o
 .debug_abbrev  0x0000000000005383      0x305 /home/ming/tf-a-stm32mp-2.2.r2-r0/tf-a-stm32mp-2.2.r2/../build/trusted/bl32/gicv2_main.o
 .debug_abbrev  0x0000000000005688      0x1da /home/ming/tf-a-stm32mp-2.2.r2-r0/tf-a-stm32mp-2.2.r2/../build/trusted/bl32/plat_gicv2.o
 .debug_abbrev  0x0000000000005862      0x22c /home/ming/tf-a-stm32mp-2.2.r2-r0/tf-a-stm32mp-2.2.r2/../build/trusted/bl32/stm32_gic.o
 .debug_abbrev  0x0000000000005a8e      0x10b /home/ming/tf-a-stm32mp-2.2.r2-r0/tf-a-stm32mp-2.2.r2/../build/trusted/bl32/plat_psci_common.o
 .debug_abbrev  0x0000000000005b99      0x239 /home/ming/tf-a-stm32mp-2.2.r2-r0/tf-a-stm32mp-2.2.r2/../build/trusted/bl32/bsec_svc.o
 .debug_abbrev  0x0000000000005dd2       0xa6 /home/ming/tf-a-stm32mp-2.2.r2-r0/tf-a-stm32mp-2.2.r2/../build/trusted/bl32/low_power_svc.o
 .debug_abbrev  0x0000000000005e78      0x178 /home/ming/tf-a-stm32mp-2.2.r2-r0/tf-a-stm32mp-2.2.r2/../build/trusted/bl32/pwr_svc.o
 .debug_abbrev  0x0000000000005ff0      0x19d /home/ming/tf-a-stm32mp-2.2.r2-r0/tf-a-stm32mp-2.2.r2/../build/trusted/bl32/rcc_svc.o
 .debug_abbrev  0x000000000000618d      0x1bc /home/ming/tf-a-stm32mp-2.2.r2-r0/tf-a-stm32mp-2.2.r2/../build/trusted/bl32/stm32mp1_svc_setup.o
 .debug_abbrev  0x0000000000006349      0x297 /home/ming/tf-a-stm32mp-2.2.r2-r0/tf-a-stm32mp-2.2.r2/../build/trusted/bl32/base.o
 .debug_abbrev  0x00000000000065e0      0x315 /home/ming/tf-a-stm32mp-2.2.r2-r0/tf-a-stm32mp-2.2.r2/../build/trusted/bl32/clock.o
 .debug_abbrev  0x00000000000068f5      0x1ce /home/ming/tf-a-stm32mp-2.2.r2-r0/tf-a-stm32mp-2.2.r2/../build/trusted/bl32/entry.o
 .debug_abbrev  0x0000000000006ac3      0x20d /home/ming/tf-a-stm32mp-2.2.r2-r0/tf-a-stm32mp-2.2.r2/../build/trusted/bl32/reset_domain.o
 .debug_abbrev  0x0000000000006cd0      0x204 /home/ming/tf-a-stm32mp-2.2.r2-r0/tf-a-stm32mp-2.2.r2/../build/trusted/bl32/smt.o
 .debug_abbrev  0x0000000000006ed4      0x34b /home/ming/tf-a-stm32mp-2.2.r2-r0/tf-a-stm32mp-2.2.r2/../build/trusted/bl32/stm32mp1_scmi.o
 .debug_abbrev  0x000000000000721f      0x149 /home/ming/tf-a-stm32mp-2.2.r2-r0/tf-a-stm32mp-2.2.r2/../build/trusted/bl32/tf_log.o
 .debug_abbrev  0x0000000000007368      0x252 /home/ming/tf-a-stm32mp-2.2.r2-r0/tf-a-stm32mp-2.2.r2/../build/trusted/bl32/multi_console.o
 .debug_abbrev  0x00000000000075ba       0xd2 /home/ming/tf-a-stm32mp-2.2.r2-r0/tf-a-stm32mp-2.2.r2/../build/trusted/bl32/plat_log_common.o
 .debug_abbrev  0x000000000000768c       0xdf /home/ming/tf-a-stm32mp-2.2.r2-r0/tf-a-stm32mp-2.2.r2/../build/trusted/bl32/plat_common.o
 .debug_abbrev  0x000000000000776b       0xc8 /home/ming/tf-a-stm32mp-2.2.r2-r0/tf-a-stm32mp-2.2.r2/../build/trusted/bl32/ctzdi2.o
 .debug_abbrev  0x0000000000007833       0xf8 /home/ming/tf-a-stm32mp-2.2.r2-r0/tf-a-stm32mp-2.2.r2/../build/trusted/bl32/udivmoddi4.o
 .debug_abbrev  0x000000000000792b      0x24e /home/ming/tf-a-stm32mp-2.2.r2-r0/tf-a-stm32mp-2.2.r2/../build/trusted/bl32/stm32mp_common.o
 .debug_abbrev  0x0000000000007b79      0x3b4 /home/ming/tf-a-stm32mp-2.2.r2-r0/tf-a-stm32mp-2.2.r2/../build/trusted/bl32/stm32mp1_private.o
 .debug_abbrev  0x0000000000007f2d      0x2aa /home/ming/tf-a-stm32mp-2.2.r2-r0/tf-a-stm32mp-2.2.r2/../build/trusted/bl32/xlat_tables_arch.o
 .debug_abbrev  0x00000000000081d7      0x1b1 /home/ming/tf-a-stm32mp-2.2.r2-r0/tf-a-stm32mp-2.2.r2/../build/trusted/bl32/xlat_tables_context.o
 .debug_abbrev  0x0000000000008388      0x3e0 /home/ming/tf-a-stm32mp-2.2.r2-r0/tf-a-stm32mp-2.2.r2/../build/trusted/bl32/xlat_tables_core.o
 .debug_abbrev  0x0000000000008768      0x26b /home/ming/tf-a-stm32mp-2.2.r2-r0/tf-a-stm32mp-2.2.r2/../build/trusted/bl32/xlat_tables_utils.o
 .debug_abbrev  0x00000000000089d3      0x271 /home/ming/tf-a-stm32mp-2.2.r2-r0/tf-a-stm32mp-2.2.r2/../build/trusted/bl32/tzc400.o
 .debug_abbrev  0x0000000000008c44      0x152 /home/ming/tf-a-stm32mp-2.2.r2-r0/tf-a-stm32mp-2.2.r2/../build/trusted/bl32/delay_timer.o
 .debug_abbrev  0x0000000000008d96      0x1e3 /home/ming/tf-a-stm32mp-2.2.r2-r0/tf-a-stm32mp-2.2.r2/../build/trusted/bl32/generic_delay_timer.o
 .debug_abbrev  0x0000000000008f79      0x39a /home/ming/tf-a-stm32mp-2.2.r2-r0/tf-a-stm32mp-2.2.r2/../build/trusted/bl32/bsec2.o
 .debug_abbrev  0x0000000000009313      0x2b8 /home/ming/tf-a-stm32mp-2.2.r2-r0/tf-a-stm32mp-2.2.r2/../build/trusted/bl32/stm32mp_clkfunc.o
 .debug_abbrev  0x00000000000095cb      0x506 /home/ming/tf-a-stm32mp-2.2.r2-r0/tf-a-stm32mp-2.2.r2/../build/trusted/bl32/stm32mp1_clk.o
 .debug_abbrev  0x0000000000009ad1      0x37e /home/ming/tf-a-stm32mp-2.2.r2-r0/tf-a-stm32mp-2.2.r2/../build/trusted/bl32/stm32mp1_ddr_helpers.o
 .debug_abbrev  0x0000000000009e4f      0x2d1 /home/ming/tf-a-stm32mp-2.2.r2-r0/tf-a-stm32mp-2.2.r2/../build/trusted/bl32/stm32_gpio.o
 .debug_abbrev  0x000000000000a120      0x3c0 /home/ming/tf-a-stm32mp-2.2.r2-r0/tf-a-stm32mp-2.2.r2/../build/trusted/bl32/stm32_i2c.o
 .debug_abbrev  0x000000000000a4e0      0x292 /home/ming/tf-a-stm32mp-2.2.r2-r0/tf-a-stm32mp-2.2.r2/../build/trusted/bl32/stm32_iwdg.o
 .debug_abbrev  0x000000000000a772      0x3aa /home/ming/tf-a-stm32mp-2.2.r2-r0/tf-a-stm32mp-2.2.r2/../build/trusted/bl32/stm32mp_pmic.o
 .debug_abbrev  0x000000000000ab1c      0x1e5 /home/ming/tf-a-stm32mp-2.2.r2-r0/tf-a-stm32mp-2.2.r2/../build/trusted/bl32/stpmic1.o
 .debug_abbrev  0x000000000000ad01      0x1db /home/ming/tf-a-stm32mp-2.2.r2-r0/tf-a-stm32mp-2.2.r2/../build/trusted/bl32/stm32mp1_reset.o
 .debug_abbrev  0x000000000000aedc      0x346 /home/ming/tf-a-stm32mp-2.2.r2-r0/tf-a-stm32mp-2.2.r2/../build/trusted/bl32/stm32mp_dt.o
 .debug_abbrev  0x000000000000b222      0x1a2 /home/ming/tf-a-stm32mp-2.2.r2-r0/tf-a-stm32mp-2.2.r2/../build/trusted/bl32/stm32mp_shres_helpers.o
 .debug_abbrev  0x000000000000b3c4      0x39a /home/ming/tf-a-stm32mp-2.2.r2-r0/tf-a-stm32mp-2.2.r2/../build/trusted/bl32/stm32mp1_context.o
 .debug_abbrev  0x000000000000b75e      0x1a8 /home/ming/tf-a-stm32mp-2.2.r2-r0/tf-a-stm32mp-2.2.r2/../build/trusted/bl32/stm32mp1_dbgmcu.o
 .debug_abbrev  0x000000000000b906      0x130 /home/ming/tf-a-stm32mp-2.2.r2-r0/tf-a-stm32mp-2.2.r2/../build/trusted/bl32/stm32mp1_security.o
 .debug_abbrev  0x000000000000ba36      0x1d7 /home/ming/tf-a-stm32mp-2.2.r2-r0/tf-a-stm32mp-2.2.r2/../build/trusted/bl32/stm32mp1_syscfg.o
 .debug_abbrev  0x000000000000bc0d       0x12 /home/ming/tf-a-stm32mp-2.2.r2-r0/tf-a-stm32mp-2.2.r2/../build/trusted/bl32/entrypoint.o
 .debug_abbrev  0x000000000000bc1f       0x12 /home/ming/tf-a-stm32mp-2.2.r2-r0/tf-a-stm32mp-2.2.r2/../build/trusted/bl32/cpu_data.o
 .debug_abbrev  0x000000000000bc31       0x12 /home/ming/tf-a-stm32mp-2.2.r2-r0/tf-a-stm32mp-2.2.r2/../build/trusted/bl32/cpu_helpers.o
 .debug_abbrev  0x000000000000bc43       0x12 /home/ming/tf-a-stm32mp-2.2.r2-r0/tf-a-stm32mp-2.2.r2/../build/trusted/bl32/spinlock.o
 .debug_abbrev  0x000000000000bc55       0x12 /home/ming/tf-a-stm32mp-2.2.r2-r0/tf-a-stm32mp-2.2.r2/../build/trusted/bl32/psci_helpers.o
 .debug_abbrev  0x000000000000bc67       0x12 /home/ming/tf-a-stm32mp-2.2.r2-r0/tf-a-stm32mp-2.2.r2/../build/trusted/bl32/platform_mp_stack.o
 .debug_abbrev  0x000000000000bc79       0x12 /home/ming/tf-a-stm32mp-2.2.r2-r0/tf-a-stm32mp-2.2.r2/../build/trusted/bl32/debug.o
 .debug_abbrev  0x000000000000bc8b       0x12 /home/ming/tf-a-stm32mp-2.2.r2-r0/tf-a-stm32mp-2.2.r2/../build/trusted/bl32/cache_helpers.o
 .debug_abbrev  0x000000000000bc9d       0x12 /home/ming/tf-a-stm32mp-2.2.r2-r0/tf-a-stm32mp-2.2.r2/../build/trusted/bl32/misc_helpers.o
 .debug_abbrev  0x000000000000bcaf       0x12 /home/ming/tf-a-stm32mp-2.2.r2-r0/tf-a-stm32mp-2.2.r2/../build/trusted/bl32/platform_helpers.o
 .debug_abbrev  0x000000000000bcc1       0x14 /home/ming/tf-a-stm32mp-2.2.r2-r0/tf-a-stm32mp-2.2.r2/../build/trusted/bl32/aeabi_uldivmod.o
 .debug_abbrev  0x000000000000bcd5       0x12 /home/ming/tf-a-stm32mp-2.2.r2-r0/tf-a-stm32mp-2.2.r2/../build/trusted/bl32/stm32_console.o
 .debug_abbrev  0x000000000000bce7       0x12 /home/ming/tf-a-stm32mp-2.2.r2-r0/tf-a-stm32mp-2.2.r2/../build/trusted/bl32/enable_mmu.o
 .debug_abbrev  0x000000000000bcf9       0x12 /home/ming/tf-a-stm32mp-2.2.r2-r0/tf-a-stm32mp-2.2.r2/../build/trusted/bl32/cortex_a7.o
 .debug_abbrev  0x000000000000bd0b       0x12 /home/ming/tf-a-stm32mp-2.2.r2-r0/tf-a-stm32mp-2.2.r2/../build/trusted/bl32/stm32mp1_helper.o
 .debug_abbrev  0x000000000000bd1d      0x1e3 /home/ming/tf-a-stm32mp-2.2.r2-r0/tf-a-stm32mp-2.2.r2/../build/trusted/lib/libfdt.a(fdt.o)
 .debug_abbrev  0x000000000000bf00      0x106 /home/ming/tf-a-stm32mp-2.2.r2-r0/tf-a-stm32mp-2.2.r2/../build/trusted/lib/libfdt.a(fdt_addresses.o)
 .debug_abbrev  0x000000000000c006      0x391 /home/ming/tf-a-stm32mp-2.2.r2-r0/tf-a-stm32mp-2.2.r2/../build/trusted/lib/libfdt.a(fdt_ro.o)
 .debug_abbrev  0x000000000000c397       0xec /home/ming/tf-a-stm32mp-2.2.r2-r0/tf-a-stm32mp-2.2.r2/../build/trusted/lib/libc.a(assert.o)
 .debug_abbrev  0x000000000000c483       0x8d /home/ming/tf-a-stm32mp-2.2.r2-r0/tf-a-stm32mp-2.2.r2/../build/trusted/lib/libc.a(memchr.o)
 .debug_abbrev  0x000000000000c510       0x86 /home/ming/tf-a-stm32mp-2.2.r2-r0/tf-a-stm32mp-2.2.r2/../build/trusted/lib/libc.a(memcmp.o)
 .debug_abbrev  0x000000000000c596       0x91 /home/ming/tf-a-stm32mp-2.2.r2-r0/tf-a-stm32mp-2.2.r2/../build/trusted/lib/libc.a(memcpy.o)
 .debug_abbrev  0x000000000000c627       0xb6 /home/ming/tf-a-stm32mp-2.2.r2-r0/tf-a-stm32mp-2.2.r2/../build/trusted/lib/libc.a(memmove.o)
 .debug_abbrev  0x000000000000c6dd       0x90 /home/ming/tf-a-stm32mp-2.2.r2-r0/tf-a-stm32mp-2.2.r2/../build/trusted/lib/libc.a(memset.o)
 .debug_abbrev  0x000000000000c76d      0x234 /home/ming/tf-a-stm32mp-2.2.r2-r0/tf-a-stm32mp-2.2.r2/../build/trusted/lib/libc.a(printf.o)
 .debug_abbrev  0x000000000000c9a1       0x8a /home/ming/tf-a-stm32mp-2.2.r2-r0/tf-a-stm32mp-2.2.r2/../build/trusted/lib/libc.a(putchar.o)
 .debug_abbrev  0x000000000000ca2b       0x74 /home/ming/tf-a-stm32mp-2.2.r2-r0/tf-a-stm32mp-2.2.r2/../build/trusted/lib/libc.a(strchr.o)
 .debug_abbrev  0x000000000000ca9f       0x65 /home/ming/tf-a-stm32mp-2.2.r2-r0/tf-a-stm32mp-2.2.r2/../build/trusted/lib/libc.a(strcmp.o)
 .debug_abbrev  0x000000000000cb04       0x9f /home/ming/tf-a-stm32mp-2.2.r2-r0/tf-a-stm32mp-2.2.r2/../build/trusted/lib/libc.a(strlcpy.o)
 .debug_abbrev  0x000000000000cba3       0x76 /home/ming/tf-a-stm32mp-2.2.r2-r0/tf-a-stm32mp-2.2.r2/../build/trusted/lib/libc.a(strlen.o)
 .debug_abbrev  0x000000000000cc19       0x72 /home/ming/tf-a-stm32mp-2.2.r2-r0/tf-a-stm32mp-2.2.r2/../build/trusted/lib/libc.a(strncmp.o)
 .debug_abbrev  0x000000000000cc8b       0x85 /home/ming/tf-a-stm32mp-2.2.r2-r0/tf-a-stm32mp-2.2.r2/../build/trusted/lib/libc.a(strnlen.o)
 .debug_abbrev  0x000000000000cd10       0x83 /home/ming/tf-a-stm32mp-2.2.r2-r0/tf-a-stm32mp-2.2.r2/../build/trusted/lib/libc.a(strrchr.o)

.debug_aranges  0x0000000000000000     0x2468
 .debug_aranges
                0x0000000000000000       0x18 /home/ming/tf-a-stm32mp-2.2.r2-r0/tf-a-stm32mp-2.2.r2/../build/trusted/bl32/build_message.o
 .debug_aranges
                0x0000000000000018       0x70 /home/ming/tf-a-stm32mp-2.2.r2-r0/tf-a-stm32mp-2.2.r2/../build/trusted/bl32/sp_min_main.o
 .debug_aranges
                0x0000000000000088       0x28 /home/ming/tf-a-stm32mp-2.2.r2-r0/tf-a-stm32mp-2.2.r2/../build/trusted/bl32/runtime_svc.o
 .debug_aranges
                0x00000000000000b0       0x20 /home/ming/tf-a-stm32mp-2.2.r2-r0/tf-a-stm32mp-2.2.r2/../build/trusted/bl32/plat_sp_min_common.o
 .debug_aranges
                0x00000000000000d0       0x28 /home/ming/tf-a-stm32mp-2.2.r2-r0/tf-a-stm32mp-2.2.r2/../build/trusted/bl32/std_svc_setup.o
 .debug_aranges
                0x00000000000000f8       0x18 /home/ming/tf-a-stm32mp-2.2.r2-r0/tf-a-stm32mp-2.2.r2/../build/trusted/bl32/cpu_data_array.o
 .debug_aranges
                0x0000000000000110       0x40 /home/ming/tf-a-stm32mp-2.2.r2-r0/tf-a-stm32mp-2.2.r2/../build/trusted/bl32/context_mgmt.o
 .debug_aranges
                0x0000000000000150       0x28 /home/ming/tf-a-stm32mp-2.2.r2-r0/tf-a-stm32mp-2.2.r2/../build/trusted/bl32/errata_report.o
 .debug_aranges
                0x0000000000000178       0x20 /home/ming/tf-a-stm32mp-2.2.r2-r0/tf-a-stm32mp-2.2.r2/../build/trusted/bl32/psci_off.o
 .debug_aranges
                0x0000000000000198       0x28 /home/ming/tf-a-stm32mp-2.2.r2-r0/tf-a-stm32mp-2.2.r2/../build/trusted/bl32/psci_on.o
 .debug_aranges
                0x00000000000001c0       0x28 /home/ming/tf-a-stm32mp-2.2.r2-r0/tf-a-stm32mp-2.2.r2/../build/trusted/bl32/psci_suspend.o
 .debug_aranges
                0x00000000000001e8       0xc0 /home/ming/tf-a-stm32mp-2.2.r2-r0/tf-a-stm32mp-2.2.r2/../build/trusted/bl32/psci_common.o
 .debug_aranges
                0x00000000000002a8       0x78 /home/ming/tf-a-stm32mp-2.2.r2-r0/tf-a-stm32mp-2.2.r2/../build/trusted/bl32/psci_main.o
 .debug_aranges
                0x0000000000000320       0x30 /home/ming/tf-a-stm32mp-2.2.r2-r0/tf-a-stm32mp-2.2.r2/../build/trusted/bl32/psci_setup.o
 .debug_aranges
                0x0000000000000350       0x30 /home/ming/tf-a-stm32mp-2.2.r2-r0/tf-a-stm32mp-2.2.r2/../build/trusted/bl32/psci_system_off.o
 .debug_aranges
                0x0000000000000380       0x28 /home/ming/tf-a-stm32mp-2.2.r2-r0/tf-a-stm32mp-2.2.r2/../build/trusted/bl32/psci_mem_protect.o
 .debug_aranges
                0x00000000000003a8       0x28 /home/ming/tf-a-stm32mp-2.2.r2-r0/tf-a-stm32mp-2.2.r2/../build/trusted/bl32/bakery_lock_normal.o
 .debug_aranges
                0x00000000000003d0       0x78 /home/ming/tf-a-stm32mp-2.2.r2-r0/tf-a-stm32mp-2.2.r2/../build/trusted/bl32/stm32mp1_calib.o
 .debug_aranges
                0x0000000000000448       0x70 /home/ming/tf-a-stm32mp-2.2.r2-r0/tf-a-stm32mp-2.2.r2/../build/trusted/bl32/etzpc.o
 .debug_aranges
                0x00000000000004b8       0x28 /home/ming/tf-a-stm32mp-2.2.r2-r0/tf-a-stm32mp-2.2.r2/../build/trusted/bl32/stm32_rng.o
 .debug_aranges
                0x00000000000004e0       0x78 /home/ming/tf-a-stm32mp-2.2.r2-r0/tf-a-stm32mp-2.2.r2/../build/trusted/bl32/stm32_rtc.o
 .debug_aranges
                0x0000000000000558       0x40 /home/ming/tf-a-stm32mp-2.2.r2-r0/tf-a-stm32mp-2.2.r2/../build/trusted/bl32/stm32_tamp.o
 .debug_aranges
                0x0000000000000598       0x48 /home/ming/tf-a-stm32mp-2.2.r2-r0/tf-a-stm32mp-2.2.r2/../build/trusted/bl32/stm32_timer.o
 .debug_aranges
                0x00000000000005e0       0x48 /home/ming/tf-a-stm32mp-2.2.r2-r0/tf-a-stm32mp-2.2.r2/../build/trusted/bl32/sp_min_setup.o
 .debug_aranges
                0x0000000000000628       0x50 /home/ming/tf-a-stm32mp-2.2.r2-r0/tf-a-stm32mp-2.2.r2/../build/trusted/bl32/stm32mp1_low_power.o
 .debug_aranges
                0x0000000000000678       0x80 /home/ming/tf-a-stm32mp-2.2.r2-r0/tf-a-stm32mp-2.2.r2/../build/trusted/bl32/stm32mp1_pm.o
 .debug_aranges
                0x00000000000006f8       0x40 /home/ming/tf-a-stm32mp-2.2.r2-r0/tf-a-stm32mp-2.2.r2/../build/trusted/bl32/stm32mp1_power_config.o
 .debug_aranges
                0x0000000000000738       0xb0 /home/ming/tf-a-stm32mp-2.2.r2-r0/tf-a-stm32mp-2.2.r2/../build/trusted/bl32/stm32mp1_shared_resources.o
 .debug_aranges
                0x00000000000007e8       0x28 /home/ming/tf-a-stm32mp-2.2.r2-r0/tf-a-stm32mp-2.2.r2/../build/trusted/bl32/stm32mp1_topology.o
 .debug_aranges
                0x0000000000000810      0x118 /home/ming/tf-a-stm32mp-2.2.r2-r0/tf-a-stm32mp-2.2.r2/../build/trusted/bl32/gic_common.o
 .debug_aranges
                0x0000000000000928       0x68 /home/ming/tf-a-stm32mp-2.2.r2-r0/tf-a-stm32mp-2.2.r2/../build/trusted/bl32/gicv2_helpers.o
 .debug_aranges
                0x0000000000000990       0xd8 /home/ming/tf-a-stm32mp-2.2.r2-r0/tf-a-stm32mp-2.2.r2/../build/trusted/bl32/gicv2_main.o
 .debug_aranges
                0x0000000000000a68       0xc8 /home/ming/tf-a-stm32mp-2.2.r2-r0/tf-a-stm32mp-2.2.r2/../build/trusted/bl32/plat_gicv2.o
 .debug_aranges
                0x0000000000000b30       0x40 /home/ming/tf-a-stm32mp-2.2.r2-r0/tf-a-stm32mp-2.2.r2/../build/trusted/bl32/stm32_gic.o
 .debug_aranges
                0x0000000000000b70       0x20 /home/ming/tf-a-stm32mp-2.2.r2-r0/tf-a-stm32mp-2.2.r2/../build/trusted/bl32/plat_psci_common.o
 .debug_aranges
                0x0000000000000b90       0x20 /home/ming/tf-a-stm32mp-2.2.r2-r0/tf-a-stm32mp-2.2.r2/../build/trusted/bl32/bsec_svc.o
 .debug_aranges
                0x0000000000000bb0       0x20 /home/ming/tf-a-stm32mp-2.2.r2-r0/tf-a-stm32mp-2.2.r2/../build/trusted/bl32/low_power_svc.o
 .debug_aranges
                0x0000000000000bd0       0x20 /home/ming/tf-a-stm32mp-2.2.r2-r0/tf-a-stm32mp-2.2.r2/../build/trusted/bl32/pwr_svc.o
 .debug_aranges
                0x0000000000000bf0       0x30 /home/ming/tf-a-stm32mp-2.2.r2-r0/tf-a-stm32mp-2.2.r2/../build/trusted/bl32/rcc_svc.o
 .debug_aranges
                0x0000000000000c20       0x28 /home/ming/tf-a-stm32mp-2.2.r2-r0/tf-a-stm32mp-2.2.r2/../build/trusted/bl32/stm32mp1_svc_setup.o
 .debug_aranges
                0x0000000000000c48       0x58 /home/ming/tf-a-stm32mp-2.2.r2-r0/tf-a-stm32mp-2.2.r2/../build/trusted/bl32/base.o
 .debug_aranges
                0x0000000000000ca0       0xb0 /home/ming/tf-a-stm32mp-2.2.r2-r0/tf-a-stm32mp-2.2.r2/../build/trusted/bl32/clock.o
 .debug_aranges
                0x0000000000000d50       0x30 /home/ming/tf-a-stm32mp-2.2.r2-r0/tf-a-stm32mp-2.2.r2/../build/trusted/bl32/entry.o
 .debug_aranges
                0x0000000000000d80       0x68 /home/ming/tf-a-stm32mp-2.2.r2-r0/tf-a-stm32mp-2.2.r2/../build/trusted/bl32/reset_domain.o
 .debug_aranges
                0x0000000000000de8       0x38 /home/ming/tf-a-stm32mp-2.2.r2-r0/tf-a-stm32mp-2.2.r2/../build/trusted/bl32/smt.o
 .debug_aranges
                0x0000000000000e20       0xd8 /home/ming/tf-a-stm32mp-2.2.r2-r0/tf-a-stm32mp-2.2.r2/../build/trusted/bl32/stm32mp1_scmi.o
 .debug_aranges
                0x0000000000000ef8       0x28 /home/ming/tf-a-stm32mp-2.2.r2-r0/tf-a-stm32mp-2.2.r2/../build/trusted/bl32/tf_log.o
 .debug_aranges
                0x0000000000000f20       0x58 /home/ming/tf-a-stm32mp-2.2.r2-r0/tf-a-stm32mp-2.2.r2/../build/trusted/bl32/multi_console.o
 .debug_aranges
                0x0000000000000f78       0x20 /home/ming/tf-a-stm32mp-2.2.r2-r0/tf-a-stm32mp-2.2.r2/../build/trusted/bl32/plat_log_common.o
 .debug_aranges
                0x0000000000000f98       0x20 /home/ming/tf-a-stm32mp-2.2.r2-r0/tf-a-stm32mp-2.2.r2/../build/trusted/bl32/plat_common.o
 .debug_aranges
                0x0000000000000fb8       0x20 /home/ming/tf-a-stm32mp-2.2.r2-r0/tf-a-stm32mp-2.2.r2/../build/trusted/bl32/ctzdi2.o
 .debug_aranges
                0x0000000000000fd8       0x20 /home/ming/tf-a-stm32mp-2.2.r2-r0/tf-a-stm32mp-2.2.r2/../build/trusted/bl32/udivmoddi4.o
 .debug_aranges
                0x0000000000000ff8       0xb0 /home/ming/tf-a-stm32mp-2.2.r2-r0/tf-a-stm32mp-2.2.r2/../build/trusted/bl32/stm32mp_common.o
 .debug_aranges
                0x00000000000010a8       0xb0 /home/ming/tf-a-stm32mp-2.2.r2-r0/tf-a-stm32mp-2.2.r2/../build/trusted/bl32/stm32mp1_private.o
 .debug_aranges
                0x0000000000001158       0x70 /home/ming/tf-a-stm32mp-2.2.r2-r0/tf-a-stm32mp-2.2.r2/../build/trusted/bl32/xlat_tables_arch.o
 .debug_aranges
                0x00000000000011c8       0x78 /home/ming/tf-a-stm32mp-2.2.r2-r0/tf-a-stm32mp-2.2.r2/../build/trusted/bl32/xlat_tables_context.o
 .debug_aranges
                0x0000000000001240       0x90 /home/ming/tf-a-stm32mp-2.2.r2-r0/tf-a-stm32mp-2.2.r2/../build/trusted/bl32/xlat_tables_core.o
 .debug_aranges
                0x00000000000012d0       0x40 /home/ming/tf-a-stm32mp-2.2.r2-r0/tf-a-stm32mp-2.2.r2/../build/trusted/bl32/xlat_tables_utils.o
 .debug_aranges
                0x0000000000001310       0x60 /home/ming/tf-a-stm32mp-2.2.r2-r0/tf-a-stm32mp-2.2.r2/../build/trusted/bl32/tzc400.o
 .debug_aranges
                0x0000000000001370       0x30 /home/ming/tf-a-stm32mp-2.2.r2-r0/tf-a-stm32mp-2.2.r2/../build/trusted/bl32/delay_timer.o
 .debug_aranges
                0x00000000000013a0       0x30 /home/ming/tf-a-stm32mp-2.2.r2-r0/tf-a-stm32mp-2.2.r2/../build/trusted/bl32/generic_delay_timer.o
 .debug_aranges
                0x00000000000013d0      0x120 /home/ming/tf-a-stm32mp-2.2.r2-r0/tf-a-stm32mp-2.2.r2/../build/trusted/bl32/bsec2.o
 .debug_aranges
                0x00000000000014f0       0xa0 /home/ming/tf-a-stm32mp-2.2.r2-r0/tf-a-stm32mp-2.2.r2/../build/trusted/bl32/stm32mp_clkfunc.o
 .debug_aranges
                0x0000000000001590      0x1c8 /home/ming/tf-a-stm32mp-2.2.r2-r0/tf-a-stm32mp-2.2.r2/../build/trusted/bl32/stm32mp1_clk.o
 .debug_aranges
                0x0000000000001758       0x68 /home/ming/tf-a-stm32mp-2.2.r2-r0/tf-a-stm32mp-2.2.r2/../build/trusted/bl32/stm32mp1_ddr_helpers.o
 .debug_aranges
                0x00000000000017c0       0x38 /home/ming/tf-a-stm32mp-2.2.r2-r0/tf-a-stm32mp-2.2.r2/../build/trusted/bl32/stm32_gpio.o
 .debug_aranges
                0x00000000000017f8       0x88 /home/ming/tf-a-stm32mp-2.2.r2-r0/tf-a-stm32mp-2.2.r2/../build/trusted/bl32/stm32_i2c.o
 .debug_aranges
                0x0000000000001880       0x30 /home/ming/tf-a-stm32mp-2.2.r2-r0/tf-a-stm32mp-2.2.r2/../build/trusted/bl32/stm32_iwdg.o
 .debug_aranges
                0x00000000000018b0       0xa8 /home/ming/tf-a-stm32mp-2.2.r2-r0/tf-a-stm32mp-2.2.r2/../build/trusted/bl32/stm32mp_pmic.o
 .debug_aranges
                0x0000000000001958       0xc0 /home/ming/tf-a-stm32mp-2.2.r2-r0/tf-a-stm32mp-2.2.r2/../build/trusted/bl32/stpmic1.o
 .debug_aranges
                0x0000000000001a18       0x30 /home/ming/tf-a-stm32mp-2.2.r2-r0/tf-a-stm32mp-2.2.r2/../build/trusted/bl32/stm32mp1_reset.o
 .debug_aranges
                0x0000000000001a48       0xe8 /home/ming/tf-a-stm32mp-2.2.r2-r0/tf-a-stm32mp-2.2.r2/../build/trusted/bl32/stm32mp_dt.o
 .debug_aranges
                0x0000000000001b30       0x40 /home/ming/tf-a-stm32mp-2.2.r2-r0/tf-a-stm32mp-2.2.r2/../build/trusted/bl32/stm32mp_shres_helpers.o
 .debug_aranges
                0x0000000000001b70       0x80 /home/ming/tf-a-stm32mp-2.2.r2-r0/tf-a-stm32mp-2.2.r2/../build/trusted/bl32/stm32mp1_context.o
 .debug_aranges
                0x0000000000001bf0       0x38 /home/ming/tf-a-stm32mp-2.2.r2-r0/tf-a-stm32mp-2.2.r2/../build/trusted/bl32/stm32mp1_dbgmcu.o
 .debug_aranges
                0x0000000000001c28       0x28 /home/ming/tf-a-stm32mp-2.2.r2-r0/tf-a-stm32mp-2.2.r2/../build/trusted/bl32/stm32mp1_security.o
 .debug_aranges
                0x0000000000001c50       0x30 /home/ming/tf-a-stm32mp-2.2.r2-r0/tf-a-stm32mp-2.2.r2/../build/trusted/bl32/stm32mp1_syscfg.o
 .debug_aranges
                0x0000000000001c80       0x48 /home/ming/tf-a-stm32mp-2.2.r2-r0/tf-a-stm32mp-2.2.r2/../build/trusted/bl32/entrypoint.o
 .debug_aranges
                0x0000000000001cc8       0x28 /home/ming/tf-a-stm32mp-2.2.r2-r0/tf-a-stm32mp-2.2.r2/../build/trusted/bl32/cpu_data.o
 .debug_aranges
                0x0000000000001cf0       0x58 /home/ming/tf-a-stm32mp-2.2.r2-r0/tf-a-stm32mp-2.2.r2/../build/trusted/bl32/cpu_helpers.o
 .debug_aranges
                0x0000000000001d48       0x28 /home/ming/tf-a-stm32mp-2.2.r2-r0/tf-a-stm32mp-2.2.r2/../build/trusted/bl32/spinlock.o
 .debug_aranges
                0x0000000000001d70       0x38 /home/ming/tf-a-stm32mp-2.2.r2-r0/tf-a-stm32mp-2.2.r2/../build/trusted/bl32/psci_helpers.o
 .debug_aranges
                0x0000000000001da8       0x28 /home/ming/tf-a-stm32mp-2.2.r2-r0/tf-a-stm32mp-2.2.r2/../build/trusted/bl32/platform_mp_stack.o
 .debug_aranges
                0x0000000000001dd0       0x58 /home/ming/tf-a-stm32mp-2.2.r2-r0/tf-a-stm32mp-2.2.r2/../build/trusted/bl32/debug.o
 .debug_aranges
                0x0000000000001e28       0x60 /home/ming/tf-a-stm32mp-2.2.r2-r0/tf-a-stm32mp-2.2.r2/../build/trusted/bl32/cache_helpers.o
 .debug_aranges
                0x0000000000001e88       0x40 /home/ming/tf-a-stm32mp-2.2.r2-r0/tf-a-stm32mp-2.2.r2/../build/trusted/bl32/misc_helpers.o
 .debug_aranges
                0x0000000000001ec8       0x60 /home/ming/tf-a-stm32mp-2.2.r2-r0/tf-a-stm32mp-2.2.r2/../build/trusted/bl32/platform_helpers.o
 .debug_aranges
                0x0000000000001f28       0x20 /home/ming/tf-a-stm32mp-2.2.r2-r0/tf-a-stm32mp-2.2.r2/../build/trusted/bl32/aeabi_uldivmod.o
 .debug_aranges
                0x0000000000001f48       0x50 /home/ming/tf-a-stm32mp-2.2.r2-r0/tf-a-stm32mp-2.2.r2/../build/trusted/bl32/stm32_console.o
 .debug_aranges
                0x0000000000001f98       0x28 /home/ming/tf-a-stm32mp-2.2.r2-r0/tf-a-stm32mp-2.2.r2/../build/trusted/bl32/enable_mmu.o
 .debug_aranges
                0x0000000000001fc0       0x48 /home/ming/tf-a-stm32mp-2.2.r2-r0/tf-a-stm32mp-2.2.r2/../build/trusted/bl32/cortex_a7.o
 .debug_aranges
                0x0000000000002008       0x98 /home/ming/tf-a-stm32mp-2.2.r2-r0/tf-a-stm32mp-2.2.r2/../build/trusted/bl32/stm32mp1_helper.o
 .debug_aranges
                0x00000000000020a0       0x70 /home/ming/tf-a-stm32mp-2.2.r2-r0/tf-a-stm32mp-2.2.r2/../build/trusted/lib/libfdt.a(fdt.o)
 .debug_aranges
                0x0000000000002110       0x28 /home/ming/tf-a-stm32mp-2.2.r2-r0/tf-a-stm32mp-2.2.r2/../build/trusted/lib/libfdt.a(fdt_addresses.o)
 .debug_aranges
                0x0000000000002138      0x140 /home/ming/tf-a-stm32mp-2.2.r2-r0/tf-a-stm32mp-2.2.r2/../build/trusted/lib/libfdt.a(fdt_ro.o)
 .debug_aranges
                0x0000000000002278       0x20 /home/ming/tf-a-stm32mp-2.2.r2-r0/tf-a-stm32mp-2.2.r2/../build/trusted/lib/libc.a(assert.o)
 .debug_aranges
                0x0000000000002298       0x20 /home/ming/tf-a-stm32mp-2.2.r2-r0/tf-a-stm32mp-2.2.r2/../build/trusted/lib/libc.a(memchr.o)
 .debug_aranges
                0x00000000000022b8       0x20 /home/ming/tf-a-stm32mp-2.2.r2-r0/tf-a-stm32mp-2.2.r2/../build/trusted/lib/libc.a(memcmp.o)
 .debug_aranges
                0x00000000000022d8       0x20 /home/ming/tf-a-stm32mp-2.2.r2-r0/tf-a-stm32mp-2.2.r2/../build/trusted/lib/libc.a(memcpy.o)
 .debug_aranges
                0x00000000000022f8       0x20 /home/ming/tf-a-stm32mp-2.2.r2-r0/tf-a-stm32mp-2.2.r2/../build/trusted/lib/libc.a(memmove.o)
 .debug_aranges
                0x0000000000002318       0x20 /home/ming/tf-a-stm32mp-2.2.r2-r0/tf-a-stm32mp-2.2.r2/../build/trusted/lib/libc.a(memset.o)
 .debug_aranges
                0x0000000000002338       0x30 /home/ming/tf-a-stm32mp-2.2.r2-r0/tf-a-stm32mp-2.2.r2/../build/trusted/lib/libc.a(printf.o)
 .debug_aranges
                0x0000000000002368       0x20 /home/ming/tf-a-stm32mp-2.2.r2-r0/tf-a-stm32mp-2.2.r2/../build/trusted/lib/libc.a(putchar.o)
 .debug_aranges
                0x0000000000002388       0x20 /home/ming/tf-a-stm32mp-2.2.r2-r0/tf-a-stm32mp-2.2.r2/../build/trusted/lib/libc.a(strchr.o)
 .debug_aranges
                0x00000000000023a8       0x20 /home/ming/tf-a-stm32mp-2.2.r2-r0/tf-a-stm32mp-2.2.r2/../build/trusted/lib/libc.a(strcmp.o)
 .debug_aranges
                0x00000000000023c8       0x20 /home/ming/tf-a-stm32mp-2.2.r2-r0/tf-a-stm32mp-2.2.r2/../build/trusted/lib/libc.a(strlcpy.o)
 .debug_aranges
                0x00000000000023e8       0x20 /home/ming/tf-a-stm32mp-2.2.r2-r0/tf-a-stm32mp-2.2.r2/../build/trusted/lib/libc.a(strlen.o)
 .debug_aranges
                0x0000000000002408       0x20 /home/ming/tf-a-stm32mp-2.2.r2-r0/tf-a-stm32mp-2.2.r2/../build/trusted/lib/libc.a(strncmp.o)
 .debug_aranges
                0x0000000000002428       0x20 /home/ming/tf-a-stm32mp-2.2.r2-r0/tf-a-stm32mp-2.2.r2/../build/trusted/lib/libc.a(strnlen.o)
 .debug_aranges
                0x0000000000002448       0x20 /home/ming/tf-a-stm32mp-2.2.r2-r0/tf-a-stm32mp-2.2.r2/../build/trusted/lib/libc.a(strrchr.o)

.debug_line     0x0000000000000000    0x11ff6
 .debug_line    0x0000000000000000       0x28 /home/ming/tf-a-stm32mp-2.2.r2-r0/tf-a-stm32mp-2.2.r2/../build/trusted/bl32/build_message.o
 .debug_line    0x0000000000000028      0x3d3 /home/ming/tf-a-stm32mp-2.2.r2-r0/tf-a-stm32mp-2.2.r2/../build/trusted/bl32/sp_min_main.o
 .debug_line    0x00000000000003fb      0x1e1 /home/ming/tf-a-stm32mp-2.2.r2-r0/tf-a-stm32mp-2.2.r2/../build/trusted/bl32/runtime_svc.o
 .debug_line    0x00000000000005dc       0xf8 /home/ming/tf-a-stm32mp-2.2.r2-r0/tf-a-stm32mp-2.2.r2/../build/trusted/bl32/plat_sp_min_common.o
 .debug_line    0x00000000000006d4      0x230 /home/ming/tf-a-stm32mp-2.2.r2-r0/tf-a-stm32mp-2.2.r2/../build/trusted/bl32/std_svc_setup.o
 .debug_line    0x0000000000000904      0x104 /home/ming/tf-a-stm32mp-2.2.r2-r0/tf-a-stm32mp-2.2.r2/../build/trusted/bl32/cpu_data_array.o
 .debug_line    0x0000000000000a08      0x2f4 /home/ming/tf-a-stm32mp-2.2.r2-r0/tf-a-stm32mp-2.2.r2/../build/trusted/bl32/context_mgmt.o
 .debug_line    0x0000000000000cfc      0x1a0 /home/ming/tf-a-stm32mp-2.2.r2-r0/tf-a-stm32mp-2.2.r2/../build/trusted/bl32/errata_report.o
 .debug_line    0x0000000000000e9c      0x215 /home/ming/tf-a-stm32mp-2.2.r2-r0/tf-a-stm32mp-2.2.r2/../build/trusted/bl32/psci_off.o
 .debug_line    0x00000000000010b1      0x328 /home/ming/tf-a-stm32mp-2.2.r2-r0/tf-a-stm32mp-2.2.r2/../build/trusted/bl32/psci_on.o
 .debug_line    0x00000000000013d9      0x317 /home/ming/tf-a-stm32mp-2.2.r2-r0/tf-a-stm32mp-2.2.r2/../build/trusted/bl32/psci_suspend.o
 .debug_line    0x00000000000016f0      0x6b0 /home/ming/tf-a-stm32mp-2.2.r2-r0/tf-a-stm32mp-2.2.r2/../build/trusted/bl32/psci_common.o
 .debug_line    0x0000000000001da0      0x48c /home/ming/tf-a-stm32mp-2.2.r2-r0/tf-a-stm32mp-2.2.r2/../build/trusted/bl32/psci_main.o
 .debug_line    0x000000000000222c      0x394 /home/ming/tf-a-stm32mp-2.2.r2-r0/tf-a-stm32mp-2.2.r2/../build/trusted/bl32/psci_setup.o
 .debug_line    0x00000000000025c0      0x20b /home/ming/tf-a-stm32mp-2.2.r2-r0/tf-a-stm32mp-2.2.r2/../build/trusted/bl32/psci_system_off.o
 .debug_line    0x00000000000027cb      0x1b6 /home/ming/tf-a-stm32mp-2.2.r2-r0/tf-a-stm32mp-2.2.r2/../build/trusted/bl32/psci_mem_protect.o
 .debug_line    0x0000000000002981      0x32b /home/ming/tf-a-stm32mp-2.2.r2-r0/tf-a-stm32mp-2.2.r2/../build/trusted/bl32/bakery_lock_normal.o
 .debug_line    0x0000000000002cac      0x469 /home/ming/tf-a-stm32mp-2.2.r2-r0/tf-a-stm32mp-2.2.r2/../build/trusted/bl32/stm32mp1_calib.o
 .debug_line    0x0000000000003115      0x397 /home/ming/tf-a-stm32mp-2.2.r2-r0/tf-a-stm32mp-2.2.r2/../build/trusted/bl32/etzpc.o
 .debug_line    0x00000000000034ac      0x2ba /home/ming/tf-a-stm32mp-2.2.r2-r0/tf-a-stm32mp-2.2.r2/../build/trusted/bl32/stm32_rng.o
 .debug_line    0x0000000000003766      0x44f /home/ming/tf-a-stm32mp-2.2.r2-r0/tf-a-stm32mp-2.2.r2/../build/trusted/bl32/stm32_rtc.o
 .debug_line    0x0000000000003bb5      0x425 /home/ming/tf-a-stm32mp-2.2.r2-r0/tf-a-stm32mp-2.2.r2/../build/trusted/bl32/stm32_tamp.o
 .debug_line    0x0000000000003fda      0x362 /home/ming/tf-a-stm32mp-2.2.r2-r0/tf-a-stm32mp-2.2.r2/../build/trusted/bl32/stm32_timer.o
 .debug_line    0x000000000000433c      0x5bb /home/ming/tf-a-stm32mp-2.2.r2-r0/tf-a-stm32mp-2.2.r2/../build/trusted/bl32/sp_min_setup.o
 .debug_line    0x00000000000048f7      0x52d /home/ming/tf-a-stm32mp-2.2.r2-r0/tf-a-stm32mp-2.2.r2/../build/trusted/bl32/stm32mp1_low_power.o
 .debug_line    0x0000000000004e24      0x401 /home/ming/tf-a-stm32mp-2.2.r2-r0/tf-a-stm32mp-2.2.r2/../build/trusted/bl32/stm32mp1_pm.o
 .debug_line    0x0000000000005225      0x280 /home/ming/tf-a-stm32mp-2.2.r2-r0/tf-a-stm32mp-2.2.r2/../build/trusted/bl32/stm32mp1_power_config.o
 .debug_line    0x00000000000054a5      0x598 /home/ming/tf-a-stm32mp-2.2.r2-r0/tf-a-stm32mp-2.2.r2/../build/trusted/bl32/stm32mp1_shared_resources.o
 .debug_line    0x0000000000005a3d       0xf2 /home/ming/tf-a-stm32mp-2.2.r2-r0/tf-a-stm32mp-2.2.r2/../build/trusted/bl32/stm32mp1_topology.o
 .debug_line    0x0000000000005b2f      0x417 /home/ming/tf-a-stm32mp-2.2.r2-r0/tf-a-stm32mp-2.2.r2/../build/trusted/bl32/gic_common.o
 .debug_line    0x0000000000005f46      0x336 /home/ming/tf-a-stm32mp-2.2.r2-r0/tf-a-stm32mp-2.2.r2/../build/trusted/bl32/gicv2_helpers.o
 .debug_line    0x000000000000627c      0x75d /home/ming/tf-a-stm32mp-2.2.r2-r0/tf-a-stm32mp-2.2.r2/../build/trusted/bl32/gicv2_main.o
 .debug_line    0x00000000000069d9      0x2e0 /home/ming/tf-a-stm32mp-2.2.r2-r0/tf-a-stm32mp-2.2.r2/../build/trusted/bl32/plat_gicv2.o
 .debug_line    0x0000000000006cb9      0x288 /home/ming/tf-a-stm32mp-2.2.r2-r0/tf-a-stm32mp-2.2.r2/../build/trusted/bl32/stm32_gic.o
 .debug_line    0x0000000000006f41      0x115 /home/ming/tf-a-stm32mp-2.2.r2-r0/tf-a-stm32mp-2.2.r2/../build/trusted/bl32/plat_psci_common.o
 .debug_line    0x0000000000007056      0x1ff /home/ming/tf-a-stm32mp-2.2.r2-r0/tf-a-stm32mp-2.2.r2/../build/trusted/bl32/bsec_svc.o
 .debug_line    0x0000000000007255       0xb7 /home/ming/tf-a-stm32mp-2.2.r2-r0/tf-a-stm32mp-2.2.r2/../build/trusted/bl32/low_power_svc.o
 .debug_line    0x000000000000730c      0x167 /home/ming/tf-a-stm32mp-2.2.r2-r0/tf-a-stm32mp-2.2.r2/../build/trusted/bl32/pwr_svc.o
 .debug_line    0x0000000000007473      0x1bc /home/ming/tf-a-stm32mp-2.2.r2-r0/tf-a-stm32mp-2.2.r2/../build/trusted/bl32/rcc_svc.o
 .debug_line    0x000000000000762f      0x220 /home/ming/tf-a-stm32mp-2.2.r2-r0/tf-a-stm32mp-2.2.r2/../build/trusted/bl32/stm32mp1_svc_setup.o
 .debug_line    0x000000000000784f      0x248 /home/ming/tf-a-stm32mp-2.2.r2-r0/tf-a-stm32mp-2.2.r2/../build/trusted/bl32/base.o
 .debug_line    0x0000000000007a97      0x3a5 /home/ming/tf-a-stm32mp-2.2.r2-r0/tf-a-stm32mp-2.2.r2/../build/trusted/bl32/clock.o
 .debug_line    0x0000000000007e3c      0x179 /home/ming/tf-a-stm32mp-2.2.r2-r0/tf-a-stm32mp-2.2.r2/../build/trusted/bl32/entry.o
 .debug_line    0x0000000000007fb5      0x281 /home/ming/tf-a-stm32mp-2.2.r2-r0/tf-a-stm32mp-2.2.r2/../build/trusted/bl32/reset_domain.o
 .debug_line    0x0000000000008236      0x21b /home/ming/tf-a-stm32mp-2.2.r2-r0/tf-a-stm32mp-2.2.r2/../build/trusted/bl32/smt.o
 .debug_line    0x0000000000008451      0x4ef /home/ming/tf-a-stm32mp-2.2.r2-r0/tf-a-stm32mp-2.2.r2/../build/trusted/bl32/stm32mp1_scmi.o
 .debug_line    0x0000000000008940      0x164 /home/ming/tf-a-stm32mp-2.2.r2-r0/tf-a-stm32mp-2.2.r2/../build/trusted/bl32/tf_log.o
 .debug_line    0x0000000000008aa4      0x220 /home/ming/tf-a-stm32mp-2.2.r2-r0/tf-a-stm32mp-2.2.r2/../build/trusted/bl32/multi_console.o
 .debug_line    0x0000000000008cc4       0xd5 /home/ming/tf-a-stm32mp-2.2.r2-r0/tf-a-stm32mp-2.2.r2/../build/trusted/bl32/plat_log_common.o
 .debug_line    0x0000000000008d99      0x102 /home/ming/tf-a-stm32mp-2.2.r2-r0/tf-a-stm32mp-2.2.r2/../build/trusted/bl32/plat_common.o
 .debug_line    0x0000000000008e9b       0x65 /home/ming/tf-a-stm32mp-2.2.r2-r0/tf-a-stm32mp-2.2.r2/../build/trusted/bl32/ctzdi2.o
 .debug_line    0x0000000000008f00      0x121 /home/ming/tf-a-stm32mp-2.2.r2-r0/tf-a-stm32mp-2.2.r2/../build/trusted/bl32/udivmoddi4.o
 .debug_line    0x0000000000009021      0x375 /home/ming/tf-a-stm32mp-2.2.r2-r0/tf-a-stm32mp-2.2.r2/../build/trusted/bl32/stm32mp_common.o
 .debug_line    0x0000000000009396      0x597 /home/ming/tf-a-stm32mp-2.2.r2-r0/tf-a-stm32mp-2.2.r2/../build/trusted/bl32/stm32mp1_private.o
 .debug_line    0x000000000000992d      0x393 /home/ming/tf-a-stm32mp-2.2.r2-r0/tf-a-stm32mp-2.2.r2/../build/trusted/bl32/xlat_tables_arch.o
 .debug_line    0x0000000000009cc0      0x282 /home/ming/tf-a-stm32mp-2.2.r2-r0/tf-a-stm32mp-2.2.r2/../build/trusted/bl32/xlat_tables_context.o
 .debug_line    0x0000000000009f42      0x6d5 /home/ming/tf-a-stm32mp-2.2.r2-r0/tf-a-stm32mp-2.2.r2/../build/trusted/bl32/xlat_tables_core.o
 .debug_line    0x000000000000a617      0x354 /home/ming/tf-a-stm32mp-2.2.r2-r0/tf-a-stm32mp-2.2.r2/../build/trusted/bl32/xlat_tables_utils.o
 .debug_line    0x000000000000a96b      0x41b /home/ming/tf-a-stm32mp-2.2.r2-r0/tf-a-stm32mp-2.2.r2/../build/trusted/bl32/tzc400.o
 .debug_line    0x000000000000ad86      0x181 /home/ming/tf-a-stm32mp-2.2.r2-r0/tf-a-stm32mp-2.2.r2/../build/trusted/bl32/delay_timer.o
 .debug_line    0x000000000000af07      0x1c7 /home/ming/tf-a-stm32mp-2.2.r2-r0/tf-a-stm32mp-2.2.r2/../build/trusted/bl32/generic_delay_timer.o
 .debug_line    0x000000000000b0ce      0x78b /home/ming/tf-a-stm32mp-2.2.r2-r0/tf-a-stm32mp-2.2.r2/../build/trusted/bl32/bsec2.o
 .debug_line    0x000000000000b859      0x44d /home/ming/tf-a-stm32mp-2.2.r2-r0/tf-a-stm32mp-2.2.r2/../build/trusted/bl32/stm32mp_clkfunc.o
 .debug_line    0x000000000000bca6     0x1382 /home/ming/tf-a-stm32mp-2.2.r2-r0/tf-a-stm32mp-2.2.r2/../build/trusted/bl32/stm32mp1_clk.o
 .debug_line    0x000000000000d028      0x74d /home/ming/tf-a-stm32mp-2.2.r2-r0/tf-a-stm32mp-2.2.r2/../build/trusted/bl32/stm32mp1_ddr_helpers.o
 .debug_line    0x000000000000d775      0x3c7 /home/ming/tf-a-stm32mp-2.2.r2-r0/tf-a-stm32mp-2.2.r2/../build/trusted/bl32/stm32_gpio.o
 .debug_line    0x000000000000db3c      0x8eb /home/ming/tf-a-stm32mp-2.2.r2-r0/tf-a-stm32mp-2.2.r2/../build/trusted/bl32/stm32_i2c.o
 .debug_line    0x000000000000e427      0x32c /home/ming/tf-a-stm32mp-2.2.r2-r0/tf-a-stm32mp-2.2.r2/../build/trusted/bl32/stm32_iwdg.o
 .debug_line    0x000000000000e753      0x50d /home/ming/tf-a-stm32mp-2.2.r2-r0/tf-a-stm32mp-2.2.r2/../build/trusted/bl32/stm32mp_pmic.o
 .debug_line    0x000000000000ec60      0x2f9 /home/ming/tf-a-stm32mp-2.2.r2-r0/tf-a-stm32mp-2.2.r2/../build/trusted/bl32/stpmic1.o
 .debug_line    0x000000000000ef59      0x223 /home/ming/tf-a-stm32mp-2.2.r2-r0/tf-a-stm32mp-2.2.r2/../build/trusted/bl32/stm32mp1_reset.o
 .debug_line    0x000000000000f17c      0x58b /home/ming/tf-a-stm32mp-2.2.r2-r0/tf-a-stm32mp-2.2.r2/../build/trusted/bl32/stm32mp_dt.o
 .debug_line    0x000000000000f707      0x1a0 /home/ming/tf-a-stm32mp-2.2.r2-r0/tf-a-stm32mp-2.2.r2/../build/trusted/bl32/stm32mp_shres_helpers.o
 .debug_line    0x000000000000f8a7      0x455 /home/ming/tf-a-stm32mp-2.2.r2-r0/tf-a-stm32mp-2.2.r2/../build/trusted/bl32/stm32mp1_context.o
 .debug_line    0x000000000000fcfc      0x1a7 /home/ming/tf-a-stm32mp-2.2.r2-r0/tf-a-stm32mp-2.2.r2/../build/trusted/bl32/stm32mp1_dbgmcu.o
 .debug_line    0x000000000000fea3      0x170 /home/ming/tf-a-stm32mp-2.2.r2-r0/tf-a-stm32mp-2.2.r2/../build/trusted/bl32/stm32mp1_security.o
 .debug_line    0x0000000000010013      0x292 /home/ming/tf-a-stm32mp-2.2.r2-r0/tf-a-stm32mp-2.2.r2/../build/trusted/bl32/stm32mp1_syscfg.o
 .debug_line    0x00000000000102a5       0xff /home/ming/tf-a-stm32mp-2.2.r2-r0/tf-a-stm32mp-2.2.r2/../build/trusted/bl32/entrypoint.o
 .debug_line    0x00000000000103a4       0x69 /home/ming/tf-a-stm32mp-2.2.r2-r0/tf-a-stm32mp-2.2.r2/../build/trusted/bl32/cpu_data.o
 .debug_line    0x000000000001040d      0x10e /home/ming/tf-a-stm32mp-2.2.r2-r0/tf-a-stm32mp-2.2.r2/../build/trusted/bl32/cpu_helpers.o
 .debug_line    0x000000000001051b       0x70 /home/ming/tf-a-stm32mp-2.2.r2-r0/tf-a-stm32mp-2.2.r2/../build/trusted/bl32/spinlock.o
 .debug_line    0x000000000001058b       0xa0 /home/ming/tf-a-stm32mp-2.2.r2-r0/tf-a-stm32mp-2.2.r2/../build/trusted/bl32/psci_helpers.o
 .debug_line    0x000000000001062b       0x6d /home/ming/tf-a-stm32mp-2.2.r2-r0/tf-a-stm32mp-2.2.r2/../build/trusted/bl32/platform_mp_stack.o
 .debug_line    0x0000000000010698      0x104 /home/ming/tf-a-stm32mp-2.2.r2-r0/tf-a-stm32mp-2.2.r2/../build/trusted/bl32/debug.o
 .debug_line    0x000000000001079c       0xef /home/ming/tf-a-stm32mp-2.2.r2-r0/tf-a-stm32mp-2.2.r2/../build/trusted/bl32/cache_helpers.o
 .debug_line    0x000000000001088b       0xbe /home/ming/tf-a-stm32mp-2.2.r2-r0/tf-a-stm32mp-2.2.r2/../build/trusted/bl32/misc_helpers.o
 .debug_line    0x0000000000010949       0xd3 /home/ming/tf-a-stm32mp-2.2.r2-r0/tf-a-stm32mp-2.2.r2/../build/trusted/bl32/platform_helpers.o
 .debug_line    0x0000000000010a1c       0x67 /home/ming/tf-a-stm32mp-2.2.r2-r0/tf-a-stm32mp-2.2.r2/../build/trusted/bl32/aeabi_uldivmod.o
 .debug_line    0x0000000000010a83       0xf0 /home/ming/tf-a-stm32mp-2.2.r2-r0/tf-a-stm32mp-2.2.r2/../build/trusted/bl32/stm32_console.o
 .debug_line    0x0000000000010b73       0xa4 /home/ming/tf-a-stm32mp-2.2.r2-r0/tf-a-stm32mp-2.2.r2/../build/trusted/bl32/enable_mmu.o
 .debug_line    0x0000000000010c17       0xb2 /home/ming/tf-a-stm32mp-2.2.r2-r0/tf-a-stm32mp-2.2.r2/../build/trusted/bl32/cortex_a7.o
 .debug_line    0x0000000000010cc9      0x1eb /home/ming/tf-a-stm32mp-2.2.r2-r0/tf-a-stm32mp-2.2.r2/../build/trusted/bl32/stm32mp1_helper.o
 .debug_line    0x0000000000010eb4      0x25e /home/ming/tf-a-stm32mp-2.2.r2-r0/tf-a-stm32mp-2.2.r2/../build/trusted/lib/libfdt.a(fdt.o)
 .debug_line    0x0000000000011112       0xd2 /home/ming/tf-a-stm32mp-2.2.r2-r0/tf-a-stm32mp-2.2.r2/../build/trusted/lib/libfdt.a(fdt_addresses.o)
 .debug_line    0x00000000000111e4      0x5db /home/ming/tf-a-stm32mp-2.2.r2-r0/tf-a-stm32mp-2.2.r2/../build/trusted/lib/libfdt.a(fdt_ro.o)
 .debug_line    0x00000000000117bf      0x123 /home/ming/tf-a-stm32mp-2.2.r2-r0/tf-a-stm32mp-2.2.r2/../build/trusted/lib/libc.a(assert.o)
 .debug_line    0x00000000000118e2       0x6d /home/ming/tf-a-stm32mp-2.2.r2-r0/tf-a-stm32mp-2.2.r2/../build/trusted/lib/libc.a(memchr.o)
 .debug_line    0x000000000001194f       0x70 /home/ming/tf-a-stm32mp-2.2.r2-r0/tf-a-stm32mp-2.2.r2/../build/trusted/lib/libc.a(memcmp.o)
 .debug_line    0x00000000000119bf       0x6a /home/ming/tf-a-stm32mp-2.2.r2-r0/tf-a-stm32mp-2.2.r2/../build/trusted/lib/libc.a(memcpy.o)
 .debug_line    0x0000000000011a29       0xa0 /home/ming/tf-a-stm32mp-2.2.r2-r0/tf-a-stm32mp-2.2.r2/../build/trusted/lib/libc.a(memmove.o)
 .debug_line    0x0000000000011ac9       0x6b /home/ming/tf-a-stm32mp-2.2.r2-r0/tf-a-stm32mp-2.2.r2/../build/trusted/lib/libc.a(memset.o)
 .debug_line    0x0000000000011b34      0x1c3 /home/ming/tf-a-stm32mp-2.2.r2-r0/tf-a-stm32mp-2.2.r2/../build/trusted/lib/libc.a(printf.o)
 .debug_line    0x0000000000011cf7       0x62 /home/ming/tf-a-stm32mp-2.2.r2-r0/tf-a-stm32mp-2.2.r2/../build/trusted/lib/libc.a(putchar.o)
 .debug_line    0x0000000000011d59       0x46 /home/ming/tf-a-stm32mp-2.2.r2-r0/tf-a-stm32mp-2.2.r2/../build/trusted/lib/libc.a(strchr.o)
 .debug_line    0x0000000000011d9f       0x45 /home/ming/tf-a-stm32mp-2.2.r2-r0/tf-a-stm32mp-2.2.r2/../build/trusted/lib/libc.a(strcmp.o)
 .debug_line    0x0000000000011de4       0x79 /home/ming/tf-a-stm32mp-2.2.r2-r0/tf-a-stm32mp-2.2.r2/../build/trusted/lib/libc.a(strlcpy.o)
 .debug_line    0x0000000000011e5d       0x69 /home/ming/tf-a-stm32mp-2.2.r2-r0/tf-a-stm32mp-2.2.r2/../build/trusted/lib/libc.a(strlen.o)
 .debug_line    0x0000000000011ec6       0x71 /home/ming/tf-a-stm32mp-2.2.r2-r0/tf-a-stm32mp-2.2.r2/../build/trusted/lib/libc.a(strncmp.o)
 .debug_line    0x0000000000011f37       0x77 /home/ming/tf-a-stm32mp-2.2.r2-r0/tf-a-stm32mp-2.2.r2/../build/trusted/lib/libc.a(strnlen.o)
 .debug_line    0x0000000000011fae       0x48 /home/ming/tf-a-stm32mp-2.2.r2-r0/tf-a-stm32mp-2.2.r2/../build/trusted/lib/libc.a(strrchr.o)

.debug_str      0x0000000000000000     0xa4ee
 .debug_str     0x0000000000000000      0x10f /home/ming/tf-a-stm32mp-2.2.r2-r0/tf-a-stm32mp-2.2.r2/../build/trusted/bl32/build_message.o
                                        0x121 (size before relaxing)
 .debug_str     0x000000000000010f      0x597 /home/ming/tf-a-stm32mp-2.2.r2-r0/tf-a-stm32mp-2.2.r2/../build/trusted/bl32/sp_min_main.o
                                        0x721 (size before relaxing)
 .debug_str     0x00000000000006a6       0xdd /home/ming/tf-a-stm32mp-2.2.r2-r0/tf-a-stm32mp-2.2.r2/../build/trusted/bl32/runtime_svc.o
                                        0x4a2 (size before relaxing)
 .debug_str     0x0000000000000783       0x3e /home/ming/tf-a-stm32mp-2.2.r2-r0/tf-a-stm32mp-2.2.r2/../build/trusted/bl32/plat_sp_min_common.o
                                        0x26d (size before relaxing)
 .debug_str     0x00000000000007c1      0x195 /home/ming/tf-a-stm32mp-2.2.r2-r0/tf-a-stm32mp-2.2.r2/../build/trusted/bl32/std_svc_setup.o
                                        0x636 (size before relaxing)
 .debug_str     0x0000000000000956       0x21 /home/ming/tf-a-stm32mp-2.2.r2-r0/tf-a-stm32mp-2.2.r2/../build/trusted/bl32/cpu_data_array.o
                                        0x319 (size before relaxing)
 .debug_str     0x0000000000000977      0x16e /home/ming/tf-a-stm32mp-2.2.r2-r0/tf-a-stm32mp-2.2.r2/../build/trusted/bl32/context_mgmt.o
                                        0x4f2 (size before relaxing)
 .debug_str     0x0000000000000ae5       0x8f /home/ming/tf-a-stm32mp-2.2.r2-r0/tf-a-stm32mp-2.2.r2/../build/trusted/bl32/errata_report.o
                                        0x3bb (size before relaxing)
 .debug_str     0x0000000000000b74      0x3bc /home/ming/tf-a-stm32mp-2.2.r2-r0/tf-a-stm32mp-2.2.r2/../build/trusted/bl32/psci_off.o
                                        0x86e (size before relaxing)
 .debug_str     0x0000000000000f30      0x24c /home/ming/tf-a-stm32mp-2.2.r2-r0/tf-a-stm32mp-2.2.r2/../build/trusted/bl32/psci_on.o
                                        0xa4f (size before relaxing)
 .debug_str     0x000000000000117c      0x160 /home/ming/tf-a-stm32mp-2.2.r2-r0/tf-a-stm32mp-2.2.r2/../build/trusted/bl32/psci_suspend.o
                                        0xb59 (size before relaxing)
 .debug_str     0x00000000000012dc      0x495 /home/ming/tf-a-stm32mp-2.2.r2-r0/tf-a-stm32mp-2.2.r2/../build/trusted/bl32/psci_common.o
                                        0xf0a (size before relaxing)
 .debug_str     0x0000000000001771      0x1ac /home/ming/tf-a-stm32mp-2.2.r2-r0/tf-a-stm32mp-2.2.r2/../build/trusted/bl32/psci_main.o
                                        0xbb0 (size before relaxing)
 .debug_str     0x000000000000191d      0x183 /home/ming/tf-a-stm32mp-2.2.r2-r0/tf-a-stm32mp-2.2.r2/../build/trusted/bl32/psci_setup.o
                                        0xb11 (size before relaxing)
 .debug_str     0x0000000000001aa0       0x30 /home/ming/tf-a-stm32mp-2.2.r2-r0/tf-a-stm32mp-2.2.r2/../build/trusted/bl32/psci_system_off.o
                                        0x770 (size before relaxing)
 .debug_str     0x0000000000001ad0       0x1c /home/ming/tf-a-stm32mp-2.2.r2-r0/tf-a-stm32mp-2.2.r2/../build/trusted/bl32/psci_mem_protect.o
                                        0x72d (size before relaxing)
 .debug_str     0x0000000000001aec      0x1a7 /home/ming/tf-a-stm32mp-2.2.r2-r0/tf-a-stm32mp-2.2.r2/../build/trusted/bl32/bakery_lock_normal.o
                                        0x553 (size before relaxing)
 .debug_str     0x0000000000001c93      0x3e9 /home/ming/tf-a-stm32mp-2.2.r2-r0/tf-a-stm32mp-2.2.r2/../build/trusted/bl32/stm32mp1_calib.o
                                        0x698 (size before relaxing)
 .debug_str     0x000000000000207c      0x2d0 /home/ming/tf-a-stm32mp-2.2.r2-r0/tf-a-stm32mp-2.2.r2/../build/trusted/bl32/etzpc.o
                                        0x5c7 (size before relaxing)
 .debug_str     0x000000000000234c      0x130 /home/ming/tf-a-stm32mp-2.2.r2-r0/tf-a-stm32mp-2.2.r2/../build/trusted/bl32/stm32_rng.o
                                        0x416 (size before relaxing)
 .debug_str     0x000000000000247c      0x31c /home/ming/tf-a-stm32mp-2.2.r2-r0/tf-a-stm32mp-2.2.r2/../build/trusted/bl32/stm32_rtc.o
                                        0x69a (size before relaxing)
 .debug_str     0x0000000000002798      0x206 /home/ming/tf-a-stm32mp-2.2.r2-r0/tf-a-stm32mp-2.2.r2/../build/trusted/bl32/stm32_tamp.o
                                        0x61f (size before relaxing)
 .debug_str     0x000000000000299e      0x12d /home/ming/tf-a-stm32mp-2.2.r2-r0/tf-a-stm32mp-2.2.r2/../build/trusted/bl32/stm32_timer.o
                                        0x54f (size before relaxing)
 .debug_str     0x0000000000002acb      0x5f7 /home/ming/tf-a-stm32mp-2.2.r2-r0/tf-a-stm32mp-2.2.r2/../build/trusted/bl32/sp_min_setup.o
                                        0xbcf (size before relaxing)
 .debug_str     0x00000000000030c2      0x4b7 /home/ming/tf-a-stm32mp-2.2.r2-r0/tf-a-stm32mp-2.2.r2/../build/trusted/bl32/stm32mp1_low_power.o
                                        0x8fb (size before relaxing)
 .debug_str     0x0000000000003579      0x24e /home/ming/tf-a-stm32mp-2.2.r2-r0/tf-a-stm32mp-2.2.r2/../build/trusted/bl32/stm32mp1_pm.o
                                        0x889 (size before relaxing)
 .debug_str     0x00000000000037c7      0x1dd /home/ming/tf-a-stm32mp-2.2.r2-r0/tf-a-stm32mp-2.2.r2/../build/trusted/bl32/stm32mp1_power_config.o
                                        0x506 (size before relaxing)
 .debug_str     0x00000000000039a4      0x57e /home/ming/tf-a-stm32mp-2.2.r2-r0/tf-a-stm32mp-2.2.r2/../build/trusted/bl32/stm32mp1_shared_resources.o
                                        0x954 (size before relaxing)
 .debug_str     0x0000000000003f22       0x62 /home/ming/tf-a-stm32mp-2.2.r2-r0/tf-a-stm32mp-2.2.r2/../build/trusted/bl32/stm32mp1_topology.o
                                        0x2c1 (size before relaxing)
 .debug_str     0x0000000000003f84      0x2a2 /home/ming/tf-a-stm32mp-2.2.r2-r0/tf-a-stm32mp-2.2.r2/../build/trusted/bl32/gic_common.o
                                        0x4f3 (size before relaxing)
 .debug_str     0x0000000000004226      0x1c2 /home/ming/tf-a-stm32mp-2.2.r2-r0/tf-a-stm32mp-2.2.r2/../build/trusted/bl32/gicv2_helpers.o
                                        0x4ea (size before relaxing)
 .debug_str     0x00000000000043e8      0x396 /home/ming/tf-a-stm32mp-2.2.r2-r0/tf-a-stm32mp-2.2.r2/../build/trusted/bl32/gicv2_main.o
                                        0x85e (size before relaxing)
 .debug_str     0x000000000000477e      0x1c6 /home/ming/tf-a-stm32mp-2.2.r2-r0/tf-a-stm32mp-2.2.r2/../build/trusted/bl32/plat_gicv2.o
                                        0x6aa (size before relaxing)
 .debug_str     0x0000000000004944      0x122 /home/ming/tf-a-stm32mp-2.2.r2-r0/tf-a-stm32mp-2.2.r2/../build/trusted/bl32/stm32_gic.o
                                        0x5dc (size before relaxing)
 .debug_str     0x0000000000004a66       0x29 /home/ming/tf-a-stm32mp-2.2.r2-r0/tf-a-stm32mp-2.2.r2/../build/trusted/bl32/plat_psci_common.o
                                        0x28a (size before relaxing)
 .debug_str     0x0000000000004a8f      0x4a8 /home/ming/tf-a-stm32mp-2.2.r2-r0/tf-a-stm32mp-2.2.r2/../build/trusted/bl32/bsec_svc.o
                                        0x81f (size before relaxing)
 .debug_str     0x0000000000004f37       0x40 /home/ming/tf-a-stm32mp-2.2.r2-r0/tf-a-stm32mp-2.2.r2/../build/trusted/bl32/low_power_svc.o
                                        0x244 (size before relaxing)
 .debug_str     0x0000000000004f77       0x9e /home/ming/tf-a-stm32mp-2.2.r2-r0/tf-a-stm32mp-2.2.r2/../build/trusted/bl32/pwr_svc.o
                                        0x348 (size before relaxing)
 .debug_str     0x0000000000005015      0x101 /home/ming/tf-a-stm32mp-2.2.r2-r0/tf-a-stm32mp-2.2.r2/../build/trusted/bl32/rcc_svc.o
                                        0x3e1 (size before relaxing)
 .debug_str     0x0000000000005116       0xc4 /home/ming/tf-a-stm32mp-2.2.r2-r0/tf-a-stm32mp-2.2.r2/../build/trusted/bl32/stm32mp1_svc_setup.o
                                        0x57f (size before relaxing)
 .debug_str     0x00000000000051da      0x4b9 /home/ming/tf-a-stm32mp-2.2.r2-r0/tf-a-stm32mp-2.2.r2/../build/trusted/bl32/base.o
                                        0x784 (size before relaxing)
 .debug_str     0x0000000000005693      0x3b0 /home/ming/tf-a-stm32mp-2.2.r2-r0/tf-a-stm32mp-2.2.r2/../build/trusted/bl32/clock.o
                                        0x869 (size before relaxing)
 .debug_str     0x0000000000005a43       0x49 /home/ming/tf-a-stm32mp-2.2.r2-r0/tf-a-stm32mp-2.2.r2/../build/trusted/bl32/entry.o
                                        0x35e (size before relaxing)
 .debug_str     0x0000000000005a8c      0x1dd /home/ming/tf-a-stm32mp-2.2.r2-r0/tf-a-stm32mp-2.2.r2/../build/trusted/bl32/reset_domain.o
                                        0x681 (size before relaxing)
 .debug_str     0x0000000000005c69      0x173 /home/ming/tf-a-stm32mp-2.2.r2-r0/tf-a-stm32mp-2.2.r2/../build/trusted/bl32/smt.o
                                        0x4c3 (size before relaxing)
 .debug_str     0x0000000000005ddc      0x17b /home/ming/tf-a-stm32mp-2.2.r2-r0/tf-a-stm32mp-2.2.r2/../build/trusted/bl32/stm32mp1_scmi.o
                                        0x773 (size before relaxing)
 .debug_str     0x0000000000005f57       0x66 /home/ming/tf-a-stm32mp-2.2.r2-r0/tf-a-stm32mp-2.2.r2/../build/trusted/bl32/tf_log.o
                                        0x2a5 (size before relaxing)
 .debug_str     0x0000000000005fbd       0xef /home/ming/tf-a-stm32mp-2.2.r2-r0/tf-a-stm32mp-2.2.r2/../build/trusted/bl32/multi_console.o
                                        0x38a (size before relaxing)
 .debug_str     0x00000000000060ac       0x2e /home/ming/tf-a-stm32mp-2.2.r2-r0/tf-a-stm32mp-2.2.r2/../build/trusted/bl32/plat_log_common.o
                                        0x267 (size before relaxing)
 .debug_str     0x00000000000060da       0x4a /home/ming/tf-a-stm32mp-2.2.r2-r0/tf-a-stm32mp-2.2.r2/../build/trusted/bl32/plat_common.o
                                        0x26e (size before relaxing)
 .debug_str     0x0000000000006124       0x71 /home/ming/tf-a-stm32mp-2.2.r2-r0/tf-a-stm32mp-2.2.r2/../build/trusted/bl32/ctzdi2.o
                                        0x20c (size before relaxing)
 .debug_str     0x0000000000006195       0x63 /home/ming/tf-a-stm32mp-2.2.r2-r0/tf-a-stm32mp-2.2.r2/../build/trusted/bl32/udivmoddi4.o
                                        0x236 (size before relaxing)
 .debug_str     0x00000000000061f8      0x247 /home/ming/tf-a-stm32mp-2.2.r2-r0/tf-a-stm32mp-2.2.r2/../build/trusted/bl32/stm32mp_common.o
                                        0x5fc (size before relaxing)
 .debug_str     0x000000000000643f      0x32d /home/ming/tf-a-stm32mp-2.2.r2-r0/tf-a-stm32mp-2.2.r2/../build/trusted/bl32/stm32mp1_private.o
                                        0x8ac (size before relaxing)
 .debug_str     0x000000000000676c      0x284 /home/ming/tf-a-stm32mp-2.2.r2-r0/tf-a-stm32mp-2.2.r2/../build/trusted/bl32/xlat_tables_arch.o
                                        0x549 (size before relaxing)
 .debug_str     0x00000000000069f0      0x241 /home/ming/tf-a-stm32mp-2.2.r2-r0/tf-a-stm32mp-2.2.r2/../build/trusted/bl32/xlat_tables_context.o
                                        0x600 (size before relaxing)
 .debug_str     0x0000000000006c31      0x3b0 /home/ming/tf-a-stm32mp-2.2.r2-r0/tf-a-stm32mp-2.2.r2/../build/trusted/bl32/xlat_tables_core.o
                                        0x913 (size before relaxing)
 .debug_str     0x0000000000006fe1      0x10e /home/ming/tf-a-stm32mp-2.2.r2-r0/tf-a-stm32mp-2.2.r2/../build/trusted/bl32/xlat_tables_utils.o
                                        0x591 (size before relaxing)
 .debug_str     0x00000000000070ef      0x2e6 /home/ming/tf-a-stm32mp-2.2.r2-r0/tf-a-stm32mp-2.2.r2/../build/trusted/bl32/tzc400.o
                                        0x61c (size before relaxing)
 .debug_str     0x00000000000073d5       0x76 /home/ming/tf-a-stm32mp-2.2.r2-r0/tf-a-stm32mp-2.2.r2/../build/trusted/bl32/delay_timer.o
                                        0x2c8 (size before relaxing)
 .debug_str     0x000000000000744b       0x62 /home/ming/tf-a-stm32mp-2.2.r2-r0/tf-a-stm32mp-2.2.r2/../build/trusted/bl32/generic_delay_timer.o
                                        0x336 (size before relaxing)
 .debug_str     0x00000000000074ad      0x2fa /home/ming/tf-a-stm32mp-2.2.r2-r0/tf-a-stm32mp-2.2.r2/../build/trusted/bl32/bsec2.o
                                        0x794 (size before relaxing)
 .debug_str     0x00000000000077a7      0x22f /home/ming/tf-a-stm32mp-2.2.r2-r0/tf-a-stm32mp-2.2.r2/../build/trusted/bl32/stm32mp_clkfunc.o
                                        0x678 (size before relaxing)
 .debug_str     0x00000000000079d6     0x1164 /home/ming/tf-a-stm32mp-2.2.r2-r0/tf-a-stm32mp-2.2.r2/../build/trusted/bl32/stm32mp1_clk.o
                                       0x1b64 (size before relaxing)
 .debug_str     0x0000000000008b3a      0x14e /home/ming/tf-a-stm32mp-2.2.r2-r0/tf-a-stm32mp-2.2.r2/../build/trusted/bl32/stm32mp1_ddr_helpers.o
                                        0x626 (size before relaxing)
 .debug_str     0x0000000000008c88       0xab /home/ming/tf-a-stm32mp-2.2.r2-r0/tf-a-stm32mp-2.2.r2/../build/trusted/bl32/stm32_gpio.o
                                        0x522 (size before relaxing)
 .debug_str     0x0000000000008d33      0x54c /home/ming/tf-a-stm32mp-2.2.r2-r0/tf-a-stm32mp-2.2.r2/../build/trusted/bl32/stm32_i2c.o
                                        0x956 (size before relaxing)
 .debug_str     0x000000000000927f       0xcc /home/ming/tf-a-stm32mp-2.2.r2-r0/tf-a-stm32mp-2.2.r2/../build/trusted/bl32/stm32_iwdg.o
                                        0x55f (size before relaxing)
 .debug_str     0x000000000000934b      0x3e8 /home/ming/tf-a-stm32mp-2.2.r2-r0/tf-a-stm32mp-2.2.r2/../build/trusted/bl32/stm32mp_pmic.o
                                        0xb34 (size before relaxing)
 .debug_str     0x0000000000009733      0x218 /home/ming/tf-a-stm32mp-2.2.r2-r0/tf-a-stm32mp-2.2.r2/../build/trusted/bl32/stpmic1.o
                                        0x71f (size before relaxing)
 .debug_str     0x000000000000994b       0x4c /home/ming/tf-a-stm32mp-2.2.r2-r0/tf-a-stm32mp-2.2.r2/../build/trusted/bl32/stm32mp1_reset.o
                                        0x3d3 (size before relaxing)
 .debug_str     0x0000000000009997      0x237 /home/ming/tf-a-stm32mp-2.2.r2-r0/tf-a-stm32mp-2.2.r2/../build/trusted/bl32/stm32mp_dt.o
                                        0x7e5 (size before relaxing)
 .debug_str     0x0000000000009bce       0x5d /home/ming/tf-a-stm32mp-2.2.r2-r0/tf-a-stm32mp-2.2.r2/../build/trusted/bl32/stm32mp_shres_helpers.o
                                        0x375 (size before relaxing)
 .debug_str     0x0000000000009c2b      0x179 /home/ming/tf-a-stm32mp-2.2.r2-r0/tf-a-stm32mp-2.2.r2/../build/trusted/bl32/stm32mp1_context.o
                                        0x821 (size before relaxing)
 .debug_str     0x0000000000009da4       0x6b /home/ming/tf-a-stm32mp-2.2.r2-r0/tf-a-stm32mp-2.2.r2/../build/trusted/bl32/stm32mp1_dbgmcu.o
                                        0x347 (size before relaxing)
 .debug_str     0x0000000000009e0f       0x65 /home/ming/tf-a-stm32mp-2.2.r2-r0/tf-a-stm32mp-2.2.r2/../build/trusted/bl32/stm32mp1_security.o
                                        0x344 (size before relaxing)
 .debug_str     0x0000000000009e74       0x50 /home/ming/tf-a-stm32mp-2.2.r2-r0/tf-a-stm32mp-2.2.r2/../build/trusted/bl32/stm32mp1_syscfg.o
                                        0x42a (size before relaxing)
 .debug_str     0x0000000000009ec4      0x15e /home/ming/tf-a-stm32mp-2.2.r2-r0/tf-a-stm32mp-2.2.r2/../build/trusted/lib/libfdt.a(fdt.o)
                                        0x367 (size before relaxing)
 .debug_str     0x000000000000a022       0x1b /home/ming/tf-a-stm32mp-2.2.r2-r0/tf-a-stm32mp-2.2.r2/../build/trusted/lib/libfdt.a(fdt_addresses.o)
                                        0x1f4 (size before relaxing)
 .debug_str     0x000000000000a03d      0x32b /home/ming/tf-a-stm32mp-2.2.r2-r0/tf-a-stm32mp-2.2.r2/../build/trusted/lib/libfdt.a(fdt_ro.o)
                                        0x788 (size before relaxing)
 .debug_str     0x000000000000a368       0x2a /home/ming/tf-a-stm32mp-2.2.r2-r0/tf-a-stm32mp-2.2.r2/../build/trusted/lib/libc.a(assert.o)
                                        0x24c (size before relaxing)
 .debug_str     0x000000000000a392       0x12 /home/ming/tf-a-stm32mp-2.2.r2-r0/tf-a-stm32mp-2.2.r2/../build/trusted/lib/libc.a(memchr.o)
                                        0x136 (size before relaxing)
 .debug_str     0x000000000000a3a4       0x12 /home/ming/tf-a-stm32mp-2.2.r2-r0/tf-a-stm32mp-2.2.r2/../build/trusted/lib/libc.a(memcmp.o)
                                        0x136 (size before relaxing)
 .debug_str     0x000000000000a3b6       0x12 /home/ming/tf-a-stm32mp-2.2.r2-r0/tf-a-stm32mp-2.2.r2/../build/trusted/lib/libc.a(memcpy.o)
                                        0x12d (size before relaxing)
 .debug_str     0x000000000000a3c8       0x13 /home/ming/tf-a-stm32mp-2.2.r2-r0/tf-a-stm32mp-2.2.r2/../build/trusted/lib/libc.a(memmove.o)
                                        0x12d (size before relaxing)
 .debug_str     0x000000000000a3db       0x12 /home/ming/tf-a-stm32mp-2.2.r2-r0/tf-a-stm32mp-2.2.r2/../build/trusted/lib/libc.a(memset.o)
                                        0x133 (size before relaxing)
 .debug_str     0x000000000000a3ed       0x54 /home/ming/tf-a-stm32mp-2.2.r2-r0/tf-a-stm32mp-2.2.r2/../build/trusted/lib/libc.a(printf.o)
                                        0x295 (size before relaxing)
 .debug_str     0x000000000000a441       0x13 /home/ming/tf-a-stm32mp-2.2.r2-r0/tf-a-stm32mp-2.2.r2/../build/trusted/lib/libc.a(putchar.o)
                                        0x1a3 (size before relaxing)
 .debug_str     0x000000000000a454       0x12 /home/ming/tf-a-stm32mp-2.2.r2-r0/tf-a-stm32mp-2.2.r2/../build/trusted/lib/libc.a(strchr.o)
                                        0x126 (size before relaxing)
 .debug_str     0x000000000000a466       0x12 /home/ming/tf-a-stm32mp-2.2.r2-r0/tf-a-stm32mp-2.2.r2/../build/trusted/lib/libc.a(strcmp.o)
                                        0x11d (size before relaxing)
 .debug_str     0x000000000000a478       0x24 /home/ming/tf-a-stm32mp-2.2.r2-r0/tf-a-stm32mp-2.2.r2/../build/trusted/lib/libc.a(strlcpy.o)
                                        0x1ae (size before relaxing)
 .debug_str     0x000000000000a49c       0x12 /home/ming/tf-a-stm32mp-2.2.r2-r0/tf-a-stm32mp-2.2.r2/../build/trusted/lib/libc.a(strlen.o)
                                        0x12b (size before relaxing)
 .debug_str     0x000000000000a4ae       0x13 /home/ming/tf-a-stm32mp-2.2.r2-r0/tf-a-stm32mp-2.2.r2/../build/trusted/lib/libc.a(strncmp.o)
                                        0x126 (size before relaxing)
 .debug_str     0x000000000000a4c1       0x1a /home/ming/tf-a-stm32mp-2.2.r2-r0/tf-a-stm32mp-2.2.r2/../build/trusted/lib/libc.a(strnlen.o)
                                        0x12d (size before relaxing)
 .debug_str     0x000000000000a4db       0x13 /home/ming/tf-a-stm32mp-2.2.r2-r0/tf-a-stm32mp-2.2.r2/../build/trusted/lib/libc.a(strrchr.o)
                                        0x12d (size before relaxing)

.comment        0x0000000000000000       0x24
 .comment       0x0000000000000000       0x24 /home/ming/tf-a-stm32mp-2.2.r2-r0/tf-a-stm32mp-2.2.r2/../build/trusted/bl32/build_message.o
                                         0x25 (size before relaxing)
 .comment       0x0000000000000024       0x25 /home/ming/tf-a-stm32mp-2.2.r2-r0/tf-a-stm32mp-2.2.r2/../build/trusted/bl32/sp_min_main.o
 .comment       0x0000000000000024       0x25 /home/ming/tf-a-stm32mp-2.2.r2-r0/tf-a-stm32mp-2.2.r2/../build/trusted/bl32/runtime_svc.o
 .comment       0x0000000000000024       0x25 /home/ming/tf-a-stm32mp-2.2.r2-r0/tf-a-stm32mp-2.2.r2/../build/trusted/bl32/plat_sp_min_common.o
 .comment       0x0000000000000024       0x25 /home/ming/tf-a-stm32mp-2.2.r2-r0/tf-a-stm32mp-2.2.r2/../build/trusted/bl32/std_svc_setup.o
 .comment       0x0000000000000024       0x25 /home/ming/tf-a-stm32mp-2.2.r2-r0/tf-a-stm32mp-2.2.r2/../build/trusted/bl32/cpu_data_array.o
 .comment       0x0000000000000024       0x25 /home/ming/tf-a-stm32mp-2.2.r2-r0/tf-a-stm32mp-2.2.r2/../build/trusted/bl32/context_mgmt.o
 .comment       0x0000000000000024       0x25 /home/ming/tf-a-stm32mp-2.2.r2-r0/tf-a-stm32mp-2.2.r2/../build/trusted/bl32/errata_report.o
 .comment       0x0000000000000024       0x25 /home/ming/tf-a-stm32mp-2.2.r2-r0/tf-a-stm32mp-2.2.r2/../build/trusted/bl32/psci_off.o
 .comment       0x0000000000000024       0x25 /home/ming/tf-a-stm32mp-2.2.r2-r0/tf-a-stm32mp-2.2.r2/../build/trusted/bl32/psci_on.o
 .comment       0x0000000000000024       0x25 /home/ming/tf-a-stm32mp-2.2.r2-r0/tf-a-stm32mp-2.2.r2/../build/trusted/bl32/psci_suspend.o
 .comment       0x0000000000000024       0x25 /home/ming/tf-a-stm32mp-2.2.r2-r0/tf-a-stm32mp-2.2.r2/../build/trusted/bl32/psci_common.o
 .comment       0x0000000000000024       0x25 /home/ming/tf-a-stm32mp-2.2.r2-r0/tf-a-stm32mp-2.2.r2/../build/trusted/bl32/psci_main.o
 .comment       0x0000000000000024       0x25 /home/ming/tf-a-stm32mp-2.2.r2-r0/tf-a-stm32mp-2.2.r2/../build/trusted/bl32/psci_setup.o
 .comment       0x0000000000000024       0x25 /home/ming/tf-a-stm32mp-2.2.r2-r0/tf-a-stm32mp-2.2.r2/../build/trusted/bl32/psci_system_off.o
 .comment       0x0000000000000024       0x25 /home/ming/tf-a-stm32mp-2.2.r2-r0/tf-a-stm32mp-2.2.r2/../build/trusted/bl32/psci_mem_protect.o
 .comment       0x0000000000000024       0x25 /home/ming/tf-a-stm32mp-2.2.r2-r0/tf-a-stm32mp-2.2.r2/../build/trusted/bl32/bakery_lock_normal.o
 .comment       0x0000000000000024       0x25 /home/ming/tf-a-stm32mp-2.2.r2-r0/tf-a-stm32mp-2.2.r2/../build/trusted/bl32/stm32mp1_calib.o
 .comment       0x0000000000000024       0x25 /home/ming/tf-a-stm32mp-2.2.r2-r0/tf-a-stm32mp-2.2.r2/../build/trusted/bl32/etzpc.o
 .comment       0x0000000000000024       0x25 /home/ming/tf-a-stm32mp-2.2.r2-r0/tf-a-stm32mp-2.2.r2/../build/trusted/bl32/stm32_rng.o
 .comment       0x0000000000000024       0x25 /home/ming/tf-a-stm32mp-2.2.r2-r0/tf-a-stm32mp-2.2.r2/../build/trusted/bl32/stm32_rtc.o
 .comment       0x0000000000000024       0x25 /home/ming/tf-a-stm32mp-2.2.r2-r0/tf-a-stm32mp-2.2.r2/../build/trusted/bl32/stm32_tamp.o
 .comment       0x0000000000000024       0x25 /home/ming/tf-a-stm32mp-2.2.r2-r0/tf-a-stm32mp-2.2.r2/../build/trusted/bl32/stm32_timer.o
 .comment       0x0000000000000024       0x25 /home/ming/tf-a-stm32mp-2.2.r2-r0/tf-a-stm32mp-2.2.r2/../build/trusted/bl32/sp_min_setup.o
 .comment       0x0000000000000024       0x25 /home/ming/tf-a-stm32mp-2.2.r2-r0/tf-a-stm32mp-2.2.r2/../build/trusted/bl32/stm32mp1_low_power.o
 .comment       0x0000000000000024       0x25 /home/ming/tf-a-stm32mp-2.2.r2-r0/tf-a-stm32mp-2.2.r2/../build/trusted/bl32/stm32mp1_pm.o
 .comment       0x0000000000000024       0x25 /home/ming/tf-a-stm32mp-2.2.r2-r0/tf-a-stm32mp-2.2.r2/../build/trusted/bl32/stm32mp1_power_config.o
 .comment       0x0000000000000024       0x25 /home/ming/tf-a-stm32mp-2.2.r2-r0/tf-a-stm32mp-2.2.r2/../build/trusted/bl32/stm32mp1_shared_resources.o
 .comment       0x0000000000000024       0x25 /home/ming/tf-a-stm32mp-2.2.r2-r0/tf-a-stm32mp-2.2.r2/../build/trusted/bl32/stm32mp1_topology.o
 .comment       0x0000000000000024       0x25 /home/ming/tf-a-stm32mp-2.2.r2-r0/tf-a-stm32mp-2.2.r2/../build/trusted/bl32/gic_common.o
 .comment       0x0000000000000024       0x25 /home/ming/tf-a-stm32mp-2.2.r2-r0/tf-a-stm32mp-2.2.r2/../build/trusted/bl32/gicv2_helpers.o
 .comment       0x0000000000000024       0x25 /home/ming/tf-a-stm32mp-2.2.r2-r0/tf-a-stm32mp-2.2.r2/../build/trusted/bl32/gicv2_main.o
 .comment       0x0000000000000024       0x25 /home/ming/tf-a-stm32mp-2.2.r2-r0/tf-a-stm32mp-2.2.r2/../build/trusted/bl32/plat_gicv2.o
 .comment       0x0000000000000024       0x25 /home/ming/tf-a-stm32mp-2.2.r2-r0/tf-a-stm32mp-2.2.r2/../build/trusted/bl32/stm32_gic.o
 .comment       0x0000000000000024       0x25 /home/ming/tf-a-stm32mp-2.2.r2-r0/tf-a-stm32mp-2.2.r2/../build/trusted/bl32/plat_psci_common.o
 .comment       0x0000000000000024       0x25 /home/ming/tf-a-stm32mp-2.2.r2-r0/tf-a-stm32mp-2.2.r2/../build/trusted/bl32/bsec_svc.o
 .comment       0x0000000000000024       0x25 /home/ming/tf-a-stm32mp-2.2.r2-r0/tf-a-stm32mp-2.2.r2/../build/trusted/bl32/low_power_svc.o
 .comment       0x0000000000000024       0x25 /home/ming/tf-a-stm32mp-2.2.r2-r0/tf-a-stm32mp-2.2.r2/../build/trusted/bl32/pwr_svc.o
 .comment       0x0000000000000024       0x25 /home/ming/tf-a-stm32mp-2.2.r2-r0/tf-a-stm32mp-2.2.r2/../build/trusted/bl32/rcc_svc.o
 .comment       0x0000000000000024       0x25 /home/ming/tf-a-stm32mp-2.2.r2-r0/tf-a-stm32mp-2.2.r2/../build/trusted/bl32/stm32mp1_svc_setup.o
 .comment       0x0000000000000024       0x25 /home/ming/tf-a-stm32mp-2.2.r2-r0/tf-a-stm32mp-2.2.r2/../build/trusted/bl32/base.o
 .comment       0x0000000000000024       0x25 /home/ming/tf-a-stm32mp-2.2.r2-r0/tf-a-stm32mp-2.2.r2/../build/trusted/bl32/clock.o
 .comment       0x0000000000000024       0x25 /home/ming/tf-a-stm32mp-2.2.r2-r0/tf-a-stm32mp-2.2.r2/../build/trusted/bl32/entry.o
 .comment       0x0000000000000024       0x25 /home/ming/tf-a-stm32mp-2.2.r2-r0/tf-a-stm32mp-2.2.r2/../build/trusted/bl32/reset_domain.o
 .comment       0x0000000000000024       0x25 /home/ming/tf-a-stm32mp-2.2.r2-r0/tf-a-stm32mp-2.2.r2/../build/trusted/bl32/smt.o
 .comment       0x0000000000000024       0x25 /home/ming/tf-a-stm32mp-2.2.r2-r0/tf-a-stm32mp-2.2.r2/../build/trusted/bl32/stm32mp1_scmi.o
 .comment       0x0000000000000024       0x25 /home/ming/tf-a-stm32mp-2.2.r2-r0/tf-a-stm32mp-2.2.r2/../build/trusted/bl32/tf_log.o
 .comment       0x0000000000000024       0x25 /home/ming/tf-a-stm32mp-2.2.r2-r0/tf-a-stm32mp-2.2.r2/../build/trusted/bl32/multi_console.o
 .comment       0x0000000000000024       0x25 /home/ming/tf-a-stm32mp-2.2.r2-r0/tf-a-stm32mp-2.2.r2/../build/trusted/bl32/plat_log_common.o
 .comment       0x0000000000000024       0x25 /home/ming/tf-a-stm32mp-2.2.r2-r0/tf-a-stm32mp-2.2.r2/../build/trusted/bl32/plat_common.o
 .comment       0x0000000000000024       0x25 /home/ming/tf-a-stm32mp-2.2.r2-r0/tf-a-stm32mp-2.2.r2/../build/trusted/bl32/ctzdi2.o
 .comment       0x0000000000000024       0x25 /home/ming/tf-a-stm32mp-2.2.r2-r0/tf-a-stm32mp-2.2.r2/../build/trusted/bl32/udivmoddi4.o
 .comment       0x0000000000000024       0x25 /home/ming/tf-a-stm32mp-2.2.r2-r0/tf-a-stm32mp-2.2.r2/../build/trusted/bl32/stm32mp_common.o
 .comment       0x0000000000000024       0x25 /home/ming/tf-a-stm32mp-2.2.r2-r0/tf-a-stm32mp-2.2.r2/../build/trusted/bl32/stm32mp1_private.o
 .comment       0x0000000000000024       0x25 /home/ming/tf-a-stm32mp-2.2.r2-r0/tf-a-stm32mp-2.2.r2/../build/trusted/bl32/xlat_tables_arch.o
 .comment       0x0000000000000024       0x25 /home/ming/tf-a-stm32mp-2.2.r2-r0/tf-a-stm32mp-2.2.r2/../build/trusted/bl32/xlat_tables_context.o
 .comment       0x0000000000000024       0x25 /home/ming/tf-a-stm32mp-2.2.r2-r0/tf-a-stm32mp-2.2.r2/../build/trusted/bl32/xlat_tables_core.o
 .comment       0x0000000000000024       0x25 /home/ming/tf-a-stm32mp-2.2.r2-r0/tf-a-stm32mp-2.2.r2/../build/trusted/bl32/xlat_tables_utils.o
 .comment       0x0000000000000024       0x25 /home/ming/tf-a-stm32mp-2.2.r2-r0/tf-a-stm32mp-2.2.r2/../build/trusted/bl32/tzc400.o
 .comment       0x0000000000000024       0x25 /home/ming/tf-a-stm32mp-2.2.r2-r0/tf-a-stm32mp-2.2.r2/../build/trusted/bl32/delay_timer.o
 .comment       0x0000000000000024       0x25 /home/ming/tf-a-stm32mp-2.2.r2-r0/tf-a-stm32mp-2.2.r2/../build/trusted/bl32/generic_delay_timer.o
 .comment       0x0000000000000024       0x25 /home/ming/tf-a-stm32mp-2.2.r2-r0/tf-a-stm32mp-2.2.r2/../build/trusted/bl32/bsec2.o
 .comment       0x0000000000000024       0x25 /home/ming/tf-a-stm32mp-2.2.r2-r0/tf-a-stm32mp-2.2.r2/../build/trusted/bl32/stm32mp_clkfunc.o
 .comment       0x0000000000000024       0x25 /home/ming/tf-a-stm32mp-2.2.r2-r0/tf-a-stm32mp-2.2.r2/../build/trusted/bl32/stm32mp1_clk.o
 .comment       0x0000000000000024       0x25 /home/ming/tf-a-stm32mp-2.2.r2-r0/tf-a-stm32mp-2.2.r2/../build/trusted/bl32/stm32mp1_ddr_helpers.o
 .comment       0x0000000000000024       0x25 /home/ming/tf-a-stm32mp-2.2.r2-r0/tf-a-stm32mp-2.2.r2/../build/trusted/bl32/stm32_gpio.o
 .comment       0x0000000000000024       0x25 /home/ming/tf-a-stm32mp-2.2.r2-r0/tf-a-stm32mp-2.2.r2/../build/trusted/bl32/stm32_i2c.o
 .comment       0x0000000000000024       0x25 /home/ming/tf-a-stm32mp-2.2.r2-r0/tf-a-stm32mp-2.2.r2/../build/trusted/bl32/stm32_iwdg.o
 .comment       0x0000000000000024       0x25 /home/ming/tf-a-stm32mp-2.2.r2-r0/tf-a-stm32mp-2.2.r2/../build/trusted/bl32/stm32mp_pmic.o
 .comment       0x0000000000000024       0x25 /home/ming/tf-a-stm32mp-2.2.r2-r0/tf-a-stm32mp-2.2.r2/../build/trusted/bl32/stpmic1.o
 .comment       0x0000000000000024       0x25 /home/ming/tf-a-stm32mp-2.2.r2-r0/tf-a-stm32mp-2.2.r2/../build/trusted/bl32/stm32mp1_reset.o
 .comment       0x0000000000000024       0x25 /home/ming/tf-a-stm32mp-2.2.r2-r0/tf-a-stm32mp-2.2.r2/../build/trusted/bl32/stm32mp_dt.o
 .comment       0x0000000000000024       0x25 /home/ming/tf-a-stm32mp-2.2.r2-r0/tf-a-stm32mp-2.2.r2/../build/trusted/bl32/stm32mp_shres_helpers.o
 .comment       0x0000000000000024       0x25 /home/ming/tf-a-stm32mp-2.2.r2-r0/tf-a-stm32mp-2.2.r2/../build/trusted/bl32/stm32mp1_context.o
 .comment       0x0000000000000024       0x25 /home/ming/tf-a-stm32mp-2.2.r2-r0/tf-a-stm32mp-2.2.r2/../build/trusted/bl32/stm32mp1_dbgmcu.o
 .comment       0x0000000000000024       0x25 /home/ming/tf-a-stm32mp-2.2.r2-r0/tf-a-stm32mp-2.2.r2/../build/trusted/bl32/stm32mp1_security.o
 .comment       0x0000000000000024       0x25 /home/ming/tf-a-stm32mp-2.2.r2-r0/tf-a-stm32mp-2.2.r2/../build/trusted/bl32/stm32mp1_syscfg.o
 .comment       0x0000000000000024       0x25 /home/ming/tf-a-stm32mp-2.2.r2-r0/tf-a-stm32mp-2.2.r2/../build/trusted/lib/libfdt.a(fdt.o)
 .comment       0x0000000000000024       0x25 /home/ming/tf-a-stm32mp-2.2.r2-r0/tf-a-stm32mp-2.2.r2/../build/trusted/lib/libfdt.a(fdt_addresses.o)
 .comment       0x0000000000000024       0x25 /home/ming/tf-a-stm32mp-2.2.r2-r0/tf-a-stm32mp-2.2.r2/../build/trusted/lib/libfdt.a(fdt_ro.o)
 .comment       0x0000000000000024       0x25 /home/ming/tf-a-stm32mp-2.2.r2-r0/tf-a-stm32mp-2.2.r2/../build/trusted/lib/libc.a(assert.o)
 .comment       0x0000000000000024       0x25 /home/ming/tf-a-stm32mp-2.2.r2-r0/tf-a-stm32mp-2.2.r2/../build/trusted/lib/libc.a(memchr.o)
 .comment       0x0000000000000024       0x25 /home/ming/tf-a-stm32mp-2.2.r2-r0/tf-a-stm32mp-2.2.r2/../build/trusted/lib/libc.a(memcmp.o)
 .comment       0x0000000000000024       0x25 /home/ming/tf-a-stm32mp-2.2.r2-r0/tf-a-stm32mp-2.2.r2/../build/trusted/lib/libc.a(memcpy.o)
 .comment       0x0000000000000024       0x25 /home/ming/tf-a-stm32mp-2.2.r2-r0/tf-a-stm32mp-2.2.r2/../build/trusted/lib/libc.a(memmove.o)
 .comment       0x0000000000000024       0x25 /home/ming/tf-a-stm32mp-2.2.r2-r0/tf-a-stm32mp-2.2.r2/../build/trusted/lib/libc.a(memset.o)
 .comment       0x0000000000000024       0x25 /home/ming/tf-a-stm32mp-2.2.r2-r0/tf-a-stm32mp-2.2.r2/../build/trusted/lib/libc.a(printf.o)
 .comment       0x0000000000000024       0x25 /home/ming/tf-a-stm32mp-2.2.r2-r0/tf-a-stm32mp-2.2.r2/../build/trusted/lib/libc.a(putchar.o)
 .comment       0x0000000000000024       0x25 /home/ming/tf-a-stm32mp-2.2.r2-r0/tf-a-stm32mp-2.2.r2/../build/trusted/lib/libc.a(strchr.o)
 .comment       0x0000000000000024       0x25 /home/ming/tf-a-stm32mp-2.2.r2-r0/tf-a-stm32mp-2.2.r2/../build/trusted/lib/libc.a(strcmp.o)
 .comment       0x0000000000000024       0x25 /home/ming/tf-a-stm32mp-2.2.r2-r0/tf-a-stm32mp-2.2.r2/../build/trusted/lib/libc.a(strlcpy.o)
 .comment       0x0000000000000024       0x25 /home/ming/tf-a-stm32mp-2.2.r2-r0/tf-a-stm32mp-2.2.r2/../build/trusted/lib/libc.a(strlen.o)
 .comment       0x0000000000000024       0x25 /home/ming/tf-a-stm32mp-2.2.r2-r0/tf-a-stm32mp-2.2.r2/../build/trusted/lib/libc.a(strncmp.o)
 .comment       0x0000000000000024       0x25 /home/ming/tf-a-stm32mp-2.2.r2-r0/tf-a-stm32mp-2.2.r2/../build/trusted/lib/libc.a(strnlen.o)
 .comment       0x0000000000000024       0x25 /home/ming/tf-a-stm32mp-2.2.r2-r0/tf-a-stm32mp-2.2.r2/../build/trusted/lib/libc.a(strrchr.o)

.note.GNU-stack
                0x0000000000000000        0x0
 .note.GNU-stack
                0x0000000000000000        0x0 /home/ming/tf-a-stm32mp-2.2.r2-r0/tf-a-stm32mp-2.2.r2/../build/trusted/bl32/build_message.o
 .note.GNU-stack
                0x0000000000000000        0x0 /home/ming/tf-a-stm32mp-2.2.r2-r0/tf-a-stm32mp-2.2.r2/../build/trusted/bl32/sp_min_main.o
 .note.GNU-stack
                0x0000000000000000        0x0 /home/ming/tf-a-stm32mp-2.2.r2-r0/tf-a-stm32mp-2.2.r2/../build/trusted/bl32/runtime_svc.o
 .note.GNU-stack
                0x0000000000000000        0x0 /home/ming/tf-a-stm32mp-2.2.r2-r0/tf-a-stm32mp-2.2.r2/../build/trusted/bl32/plat_sp_min_common.o
 .note.GNU-stack
                0x0000000000000000        0x0 /home/ming/tf-a-stm32mp-2.2.r2-r0/tf-a-stm32mp-2.2.r2/../build/trusted/bl32/std_svc_setup.o
 .note.GNU-stack
                0x0000000000000000        0x0 /home/ming/tf-a-stm32mp-2.2.r2-r0/tf-a-stm32mp-2.2.r2/../build/trusted/bl32/cpu_data_array.o
 .note.GNU-stack
                0x0000000000000000        0x0 /home/ming/tf-a-stm32mp-2.2.r2-r0/tf-a-stm32mp-2.2.r2/../build/trusted/bl32/context_mgmt.o
 .note.GNU-stack
                0x0000000000000000        0x0 /home/ming/tf-a-stm32mp-2.2.r2-r0/tf-a-stm32mp-2.2.r2/../build/trusted/bl32/errata_report.o
 .note.GNU-stack
                0x0000000000000000        0x0 /home/ming/tf-a-stm32mp-2.2.r2-r0/tf-a-stm32mp-2.2.r2/../build/trusted/bl32/psci_off.o
 .note.GNU-stack
                0x0000000000000000        0x0 /home/ming/tf-a-stm32mp-2.2.r2-r0/tf-a-stm32mp-2.2.r2/../build/trusted/bl32/psci_on.o
 .note.GNU-stack
                0x0000000000000000        0x0 /home/ming/tf-a-stm32mp-2.2.r2-r0/tf-a-stm32mp-2.2.r2/../build/trusted/bl32/psci_suspend.o
 .note.GNU-stack
                0x0000000000000000        0x0 /home/ming/tf-a-stm32mp-2.2.r2-r0/tf-a-stm32mp-2.2.r2/../build/trusted/bl32/psci_common.o
 .note.GNU-stack
                0x0000000000000000        0x0 /home/ming/tf-a-stm32mp-2.2.r2-r0/tf-a-stm32mp-2.2.r2/../build/trusted/bl32/psci_main.o
 .note.GNU-stack
                0x0000000000000000        0x0 /home/ming/tf-a-stm32mp-2.2.r2-r0/tf-a-stm32mp-2.2.r2/../build/trusted/bl32/psci_setup.o
 .note.GNU-stack
                0x0000000000000000        0x0 /home/ming/tf-a-stm32mp-2.2.r2-r0/tf-a-stm32mp-2.2.r2/../build/trusted/bl32/psci_system_off.o
 .note.GNU-stack
                0x0000000000000000        0x0 /home/ming/tf-a-stm32mp-2.2.r2-r0/tf-a-stm32mp-2.2.r2/../build/trusted/bl32/psci_mem_protect.o
 .note.GNU-stack
                0x0000000000000000        0x0 /home/ming/tf-a-stm32mp-2.2.r2-r0/tf-a-stm32mp-2.2.r2/../build/trusted/bl32/bakery_lock_normal.o
 .note.GNU-stack
                0x0000000000000000        0x0 /home/ming/tf-a-stm32mp-2.2.r2-r0/tf-a-stm32mp-2.2.r2/../build/trusted/bl32/stm32mp1_calib.o
 .note.GNU-stack
                0x0000000000000000        0x0 /home/ming/tf-a-stm32mp-2.2.r2-r0/tf-a-stm32mp-2.2.r2/../build/trusted/bl32/etzpc.o
 .note.GNU-stack
                0x0000000000000000        0x0 /home/ming/tf-a-stm32mp-2.2.r2-r0/tf-a-stm32mp-2.2.r2/../build/trusted/bl32/stm32_rng.o
 .note.GNU-stack
                0x0000000000000000        0x0 /home/ming/tf-a-stm32mp-2.2.r2-r0/tf-a-stm32mp-2.2.r2/../build/trusted/bl32/stm32_rtc.o
 .note.GNU-stack
                0x0000000000000000        0x0 /home/ming/tf-a-stm32mp-2.2.r2-r0/tf-a-stm32mp-2.2.r2/../build/trusted/bl32/stm32_tamp.o
 .note.GNU-stack
                0x0000000000000000        0x0 /home/ming/tf-a-stm32mp-2.2.r2-r0/tf-a-stm32mp-2.2.r2/../build/trusted/bl32/stm32_timer.o
 .note.GNU-stack
                0x0000000000000000        0x0 /home/ming/tf-a-stm32mp-2.2.r2-r0/tf-a-stm32mp-2.2.r2/../build/trusted/bl32/sp_min_setup.o
 .note.GNU-stack
                0x0000000000000000        0x0 /home/ming/tf-a-stm32mp-2.2.r2-r0/tf-a-stm32mp-2.2.r2/../build/trusted/bl32/stm32mp1_low_power.o
 .note.GNU-stack
                0x0000000000000000        0x0 /home/ming/tf-a-stm32mp-2.2.r2-r0/tf-a-stm32mp-2.2.r2/../build/trusted/bl32/stm32mp1_pm.o
 .note.GNU-stack
                0x0000000000000000        0x0 /home/ming/tf-a-stm32mp-2.2.r2-r0/tf-a-stm32mp-2.2.r2/../build/trusted/bl32/stm32mp1_power_config.o
 .note.GNU-stack
                0x0000000000000000        0x0 /home/ming/tf-a-stm32mp-2.2.r2-r0/tf-a-stm32mp-2.2.r2/../build/trusted/bl32/stm32mp1_shared_resources.o
 .note.GNU-stack
                0x0000000000000000        0x0 /home/ming/tf-a-stm32mp-2.2.r2-r0/tf-a-stm32mp-2.2.r2/../build/trusted/bl32/stm32mp1_topology.o
 .note.GNU-stack
                0x0000000000000000        0x0 /home/ming/tf-a-stm32mp-2.2.r2-r0/tf-a-stm32mp-2.2.r2/../build/trusted/bl32/gic_common.o
 .note.GNU-stack
                0x0000000000000000        0x0 /home/ming/tf-a-stm32mp-2.2.r2-r0/tf-a-stm32mp-2.2.r2/../build/trusted/bl32/gicv2_helpers.o
 .note.GNU-stack
                0x0000000000000000        0x0 /home/ming/tf-a-stm32mp-2.2.r2-r0/tf-a-stm32mp-2.2.r2/../build/trusted/bl32/gicv2_main.o
 .note.GNU-stack
                0x0000000000000000        0x0 /home/ming/tf-a-stm32mp-2.2.r2-r0/tf-a-stm32mp-2.2.r2/../build/trusted/bl32/plat_gicv2.o
 .note.GNU-stack
                0x0000000000000000        0x0 /home/ming/tf-a-stm32mp-2.2.r2-r0/tf-a-stm32mp-2.2.r2/../build/trusted/bl32/stm32_gic.o
 .note.GNU-stack
                0x0000000000000000        0x0 /home/ming/tf-a-stm32mp-2.2.r2-r0/tf-a-stm32mp-2.2.r2/../build/trusted/bl32/plat_psci_common.o
 .note.GNU-stack
                0x0000000000000000        0x0 /home/ming/tf-a-stm32mp-2.2.r2-r0/tf-a-stm32mp-2.2.r2/../build/trusted/bl32/bsec_svc.o
 .note.GNU-stack
                0x0000000000000000        0x0 /home/ming/tf-a-stm32mp-2.2.r2-r0/tf-a-stm32mp-2.2.r2/../build/trusted/bl32/low_power_svc.o
 .note.GNU-stack
                0x0000000000000000        0x0 /home/ming/tf-a-stm32mp-2.2.r2-r0/tf-a-stm32mp-2.2.r2/../build/trusted/bl32/pwr_svc.o
 .note.GNU-stack
                0x0000000000000000        0x0 /home/ming/tf-a-stm32mp-2.2.r2-r0/tf-a-stm32mp-2.2.r2/../build/trusted/bl32/rcc_svc.o
 .note.GNU-stack
                0x0000000000000000        0x0 /home/ming/tf-a-stm32mp-2.2.r2-r0/tf-a-stm32mp-2.2.r2/../build/trusted/bl32/stm32mp1_svc_setup.o
 .note.GNU-stack
                0x0000000000000000        0x0 /home/ming/tf-a-stm32mp-2.2.r2-r0/tf-a-stm32mp-2.2.r2/../build/trusted/bl32/base.o
 .note.GNU-stack
                0x0000000000000000        0x0 /home/ming/tf-a-stm32mp-2.2.r2-r0/tf-a-stm32mp-2.2.r2/../build/trusted/bl32/clock.o
 .note.GNU-stack
                0x0000000000000000        0x0 /home/ming/tf-a-stm32mp-2.2.r2-r0/tf-a-stm32mp-2.2.r2/../build/trusted/bl32/entry.o
 .note.GNU-stack
                0x0000000000000000        0x0 /home/ming/tf-a-stm32mp-2.2.r2-r0/tf-a-stm32mp-2.2.r2/../build/trusted/bl32/reset_domain.o
 .note.GNU-stack
                0x0000000000000000        0x0 /home/ming/tf-a-stm32mp-2.2.r2-r0/tf-a-stm32mp-2.2.r2/../build/trusted/bl32/smt.o
 .note.GNU-stack
                0x0000000000000000        0x0 /home/ming/tf-a-stm32mp-2.2.r2-r0/tf-a-stm32mp-2.2.r2/../build/trusted/bl32/stm32mp1_scmi.o
 .note.GNU-stack
                0x0000000000000000        0x0 /home/ming/tf-a-stm32mp-2.2.r2-r0/tf-a-stm32mp-2.2.r2/../build/trusted/bl32/tf_log.o
 .note.GNU-stack
                0x0000000000000000        0x0 /home/ming/tf-a-stm32mp-2.2.r2-r0/tf-a-stm32mp-2.2.r2/../build/trusted/bl32/multi_console.o
 .note.GNU-stack
                0x0000000000000000        0x0 /home/ming/tf-a-stm32mp-2.2.r2-r0/tf-a-stm32mp-2.2.r2/../build/trusted/bl32/plat_log_common.o
 .note.GNU-stack
                0x0000000000000000        0x0 /home/ming/tf-a-stm32mp-2.2.r2-r0/tf-a-stm32mp-2.2.r2/../build/trusted/bl32/plat_common.o
 .note.GNU-stack
                0x0000000000000000        0x0 /home/ming/tf-a-stm32mp-2.2.r2-r0/tf-a-stm32mp-2.2.r2/../build/trusted/bl32/ctzdi2.o
 .note.GNU-stack
                0x0000000000000000        0x0 /home/ming/tf-a-stm32mp-2.2.r2-r0/tf-a-stm32mp-2.2.r2/../build/trusted/bl32/udivmoddi4.o
 .note.GNU-stack
                0x0000000000000000        0x0 /home/ming/tf-a-stm32mp-2.2.r2-r0/tf-a-stm32mp-2.2.r2/../build/trusted/bl32/stm32mp_common.o
 .note.GNU-stack
                0x0000000000000000        0x0 /home/ming/tf-a-stm32mp-2.2.r2-r0/tf-a-stm32mp-2.2.r2/../build/trusted/bl32/stm32mp1_private.o
 .note.GNU-stack
                0x0000000000000000        0x0 /home/ming/tf-a-stm32mp-2.2.r2-r0/tf-a-stm32mp-2.2.r2/../build/trusted/bl32/xlat_tables_arch.o
 .note.GNU-stack
                0x0000000000000000        0x0 /home/ming/tf-a-stm32mp-2.2.r2-r0/tf-a-stm32mp-2.2.r2/../build/trusted/bl32/xlat_tables_context.o
 .note.GNU-stack
                0x0000000000000000        0x0 /home/ming/tf-a-stm32mp-2.2.r2-r0/tf-a-stm32mp-2.2.r2/../build/trusted/bl32/xlat_tables_core.o
 .note.GNU-stack
                0x0000000000000000        0x0 /home/ming/tf-a-stm32mp-2.2.r2-r0/tf-a-stm32mp-2.2.r2/../build/trusted/bl32/xlat_tables_utils.o
 .note.GNU-stack
                0x0000000000000000        0x0 /home/ming/tf-a-stm32mp-2.2.r2-r0/tf-a-stm32mp-2.2.r2/../build/trusted/bl32/tzc400.o
 .note.GNU-stack
                0x0000000000000000        0x0 /home/ming/tf-a-stm32mp-2.2.r2-r0/tf-a-stm32mp-2.2.r2/../build/trusted/bl32/delay_timer.o
 .note.GNU-stack
                0x0000000000000000        0x0 /home/ming/tf-a-stm32mp-2.2.r2-r0/tf-a-stm32mp-2.2.r2/../build/trusted/bl32/generic_delay_timer.o
 .note.GNU-stack
                0x0000000000000000        0x0 /home/ming/tf-a-stm32mp-2.2.r2-r0/tf-a-stm32mp-2.2.r2/../build/trusted/bl32/bsec2.o
 .note.GNU-stack
                0x0000000000000000        0x0 /home/ming/tf-a-stm32mp-2.2.r2-r0/tf-a-stm32mp-2.2.r2/../build/trusted/bl32/stm32mp_clkfunc.o
 .note.GNU-stack
                0x0000000000000000        0x0 /home/ming/tf-a-stm32mp-2.2.r2-r0/tf-a-stm32mp-2.2.r2/../build/trusted/bl32/stm32mp1_clk.o
 .note.GNU-stack
                0x0000000000000000        0x0 /home/ming/tf-a-stm32mp-2.2.r2-r0/tf-a-stm32mp-2.2.r2/../build/trusted/bl32/stm32mp1_ddr_helpers.o
 .note.GNU-stack
                0x0000000000000000        0x0 /home/ming/tf-a-stm32mp-2.2.r2-r0/tf-a-stm32mp-2.2.r2/../build/trusted/bl32/stm32_gpio.o
 .note.GNU-stack
                0x0000000000000000        0x0 /home/ming/tf-a-stm32mp-2.2.r2-r0/tf-a-stm32mp-2.2.r2/../build/trusted/bl32/stm32_i2c.o
 .note.GNU-stack
                0x0000000000000000        0x0 /home/ming/tf-a-stm32mp-2.2.r2-r0/tf-a-stm32mp-2.2.r2/../build/trusted/bl32/stm32_iwdg.o
 .note.GNU-stack
                0x0000000000000000        0x0 /home/ming/tf-a-stm32mp-2.2.r2-r0/tf-a-stm32mp-2.2.r2/../build/trusted/bl32/stm32mp_pmic.o
 .note.GNU-stack
                0x0000000000000000        0x0 /home/ming/tf-a-stm32mp-2.2.r2-r0/tf-a-stm32mp-2.2.r2/../build/trusted/bl32/stpmic1.o
 .note.GNU-stack
                0x0000000000000000        0x0 /home/ming/tf-a-stm32mp-2.2.r2-r0/tf-a-stm32mp-2.2.r2/../build/trusted/bl32/stm32mp1_reset.o
 .note.GNU-stack
                0x0000000000000000        0x0 /home/ming/tf-a-stm32mp-2.2.r2-r0/tf-a-stm32mp-2.2.r2/../build/trusted/bl32/stm32mp_dt.o
 .note.GNU-stack
                0x0000000000000000        0x0 /home/ming/tf-a-stm32mp-2.2.r2-r0/tf-a-stm32mp-2.2.r2/../build/trusted/bl32/stm32mp_shres_helpers.o
 .note.GNU-stack
                0x0000000000000000        0x0 /home/ming/tf-a-stm32mp-2.2.r2-r0/tf-a-stm32mp-2.2.r2/../build/trusted/bl32/stm32mp1_context.o
 .note.GNU-stack
                0x0000000000000000        0x0 /home/ming/tf-a-stm32mp-2.2.r2-r0/tf-a-stm32mp-2.2.r2/../build/trusted/bl32/stm32mp1_dbgmcu.o
 .note.GNU-stack
                0x0000000000000000        0x0 /home/ming/tf-a-stm32mp-2.2.r2-r0/tf-a-stm32mp-2.2.r2/../build/trusted/bl32/stm32mp1_security.o
 .note.GNU-stack
                0x0000000000000000        0x0 /home/ming/tf-a-stm32mp-2.2.r2-r0/tf-a-stm32mp-2.2.r2/../build/trusted/bl32/stm32mp1_syscfg.o
 .note.GNU-stack
                0x0000000000000000        0x0 /home/ming/tf-a-stm32mp-2.2.r2-r0/tf-a-stm32mp-2.2.r2/../build/trusted/lib/libfdt.a(fdt.o)
 .note.GNU-stack
                0x0000000000000000        0x0 /home/ming/tf-a-stm32mp-2.2.r2-r0/tf-a-stm32mp-2.2.r2/../build/trusted/lib/libfdt.a(fdt_addresses.o)
 .note.GNU-stack
                0x0000000000000000        0x0 /home/ming/tf-a-stm32mp-2.2.r2-r0/tf-a-stm32mp-2.2.r2/../build/trusted/lib/libfdt.a(fdt_ro.o)
 .note.GNU-stack
                0x0000000000000000        0x0 /home/ming/tf-a-stm32mp-2.2.r2-r0/tf-a-stm32mp-2.2.r2/../build/trusted/lib/libc.a(assert.o)
 .note.GNU-stack
                0x0000000000000000        0x0 /home/ming/tf-a-stm32mp-2.2.r2-r0/tf-a-stm32mp-2.2.r2/../build/trusted/lib/libc.a(memchr.o)
 .note.GNU-stack
                0x0000000000000000        0x0 /home/ming/tf-a-stm32mp-2.2.r2-r0/tf-a-stm32mp-2.2.r2/../build/trusted/lib/libc.a(memcmp.o)
 .note.GNU-stack
                0x0000000000000000        0x0 /home/ming/tf-a-stm32mp-2.2.r2-r0/tf-a-stm32mp-2.2.r2/../build/trusted/lib/libc.a(memcpy.o)
 .note.GNU-stack
                0x0000000000000000        0x0 /home/ming/tf-a-stm32mp-2.2.r2-r0/tf-a-stm32mp-2.2.r2/../build/trusted/lib/libc.a(memmove.o)
 .note.GNU-stack
                0x0000000000000000        0x0 /home/ming/tf-a-stm32mp-2.2.r2-r0/tf-a-stm32mp-2.2.r2/../build/trusted/lib/libc.a(memset.o)
 .note.GNU-stack
                0x0000000000000000        0x0 /home/ming/tf-a-stm32mp-2.2.r2-r0/tf-a-stm32mp-2.2.r2/../build/trusted/lib/libc.a(printf.o)
 .note.GNU-stack
                0x0000000000000000        0x0 /home/ming/tf-a-stm32mp-2.2.r2-r0/tf-a-stm32mp-2.2.r2/../build/trusted/lib/libc.a(putchar.o)
 .note.GNU-stack
                0x0000000000000000        0x0 /home/ming/tf-a-stm32mp-2.2.r2-r0/tf-a-stm32mp-2.2.r2/../build/trusted/lib/libc.a(strchr.o)
 .note.GNU-stack
                0x0000000000000000        0x0 /home/ming/tf-a-stm32mp-2.2.r2-r0/tf-a-stm32mp-2.2.r2/../build/trusted/lib/libc.a(strcmp.o)
 .note.GNU-stack
                0x0000000000000000        0x0 /home/ming/tf-a-stm32mp-2.2.r2-r0/tf-a-stm32mp-2.2.r2/../build/trusted/lib/libc.a(strlcpy.o)
 .note.GNU-stack
                0x0000000000000000        0x0 /home/ming/tf-a-stm32mp-2.2.r2-r0/tf-a-stm32mp-2.2.r2/../build/trusted/lib/libc.a(strlen.o)
 .note.GNU-stack
                0x0000000000000000        0x0 /home/ming/tf-a-stm32mp-2.2.r2-r0/tf-a-stm32mp-2.2.r2/../build/trusted/lib/libc.a(strncmp.o)
 .note.GNU-stack
                0x0000000000000000        0x0 /home/ming/tf-a-stm32mp-2.2.r2-r0/tf-a-stm32mp-2.2.r2/../build/trusted/lib/libc.a(strnlen.o)
 .note.GNU-stack
                0x0000000000000000        0x0 /home/ming/tf-a-stm32mp-2.2.r2-r0/tf-a-stm32mp-2.2.r2/../build/trusted/lib/libc.a(strrchr.o)

.ARM.attributes
                0x0000000000000000       0x3b
 .ARM.attributes
                0x0000000000000000       0x3d /home/ming/tf-a-stm32mp-2.2.r2-r0/tf-a-stm32mp-2.2.r2/../build/trusted/bl32/build_message.o
 .ARM.attributes
                0x000000000000003d       0x39 /home/ming/tf-a-stm32mp-2.2.r2-r0/tf-a-stm32mp-2.2.r2/../build/trusted/bl32/sp_min_main.o
 .ARM.attributes
                0x0000000000000076       0x39 /home/ming/tf-a-stm32mp-2.2.r2-r0/tf-a-stm32mp-2.2.r2/../build/trusted/bl32/runtime_svc.o
 .ARM.attributes
                0x00000000000000af       0x39 /home/ming/tf-a-stm32mp-2.2.r2-r0/tf-a-stm32mp-2.2.r2/../build/trusted/bl32/plat_sp_min_common.o
 .ARM.attributes
                0x00000000000000e8       0x39 /home/ming/tf-a-stm32mp-2.2.r2-r0/tf-a-stm32mp-2.2.r2/../build/trusted/bl32/std_svc_setup.o
 .ARM.attributes
                0x0000000000000121       0x3d /home/ming/tf-a-stm32mp-2.2.r2-r0/tf-a-stm32mp-2.2.r2/../build/trusted/bl32/cpu_data_array.o
 .ARM.attributes
                0x000000000000015e       0x39 /home/ming/tf-a-stm32mp-2.2.r2-r0/tf-a-stm32mp-2.2.r2/../build/trusted/bl32/context_mgmt.o
 .ARM.attributes
                0x0000000000000197       0x39 /home/ming/tf-a-stm32mp-2.2.r2-r0/tf-a-stm32mp-2.2.r2/../build/trusted/bl32/errata_report.o
 .ARM.attributes
                0x00000000000001d0       0x39 /home/ming/tf-a-stm32mp-2.2.r2-r0/tf-a-stm32mp-2.2.r2/../build/trusted/bl32/psci_off.o
 .ARM.attributes
                0x0000000000000209       0x39 /home/ming/tf-a-stm32mp-2.2.r2-r0/tf-a-stm32mp-2.2.r2/../build/trusted/bl32/psci_on.o
 .ARM.attributes
                0x0000000000000242       0x39 /home/ming/tf-a-stm32mp-2.2.r2-r0/tf-a-stm32mp-2.2.r2/../build/trusted/bl32/psci_suspend.o
 .ARM.attributes
                0x000000000000027b       0x39 /home/ming/tf-a-stm32mp-2.2.r2-r0/tf-a-stm32mp-2.2.r2/../build/trusted/bl32/psci_common.o
 .ARM.attributes
                0x00000000000002b4       0x39 /home/ming/tf-a-stm32mp-2.2.r2-r0/tf-a-stm32mp-2.2.r2/../build/trusted/bl32/psci_main.o
 .ARM.attributes
                0x00000000000002ed       0x39 /home/ming/tf-a-stm32mp-2.2.r2-r0/tf-a-stm32mp-2.2.r2/../build/trusted/bl32/psci_setup.o
 .ARM.attributes
                0x0000000000000326       0x39 /home/ming/tf-a-stm32mp-2.2.r2-r0/tf-a-stm32mp-2.2.r2/../build/trusted/bl32/psci_system_off.o
 .ARM.attributes
                0x000000000000035f       0x39 /home/ming/tf-a-stm32mp-2.2.r2-r0/tf-a-stm32mp-2.2.r2/../build/trusted/bl32/psci_mem_protect.o
 .ARM.attributes
                0x0000000000000398       0x39 /home/ming/tf-a-stm32mp-2.2.r2-r0/tf-a-stm32mp-2.2.r2/../build/trusted/bl32/bakery_lock_normal.o
 .ARM.attributes
                0x00000000000003d1       0x39 /home/ming/tf-a-stm32mp-2.2.r2-r0/tf-a-stm32mp-2.2.r2/../build/trusted/bl32/stm32mp1_calib.o
 .ARM.attributes
                0x000000000000040a       0x39 /home/ming/tf-a-stm32mp-2.2.r2-r0/tf-a-stm32mp-2.2.r2/../build/trusted/bl32/etzpc.o
 .ARM.attributes
                0x0000000000000443       0x39 /home/ming/tf-a-stm32mp-2.2.r2-r0/tf-a-stm32mp-2.2.r2/../build/trusted/bl32/stm32_rng.o
 .ARM.attributes
                0x000000000000047c       0x39 /home/ming/tf-a-stm32mp-2.2.r2-r0/tf-a-stm32mp-2.2.r2/../build/trusted/bl32/stm32_rtc.o
 .ARM.attributes
                0x00000000000004b5       0x39 /home/ming/tf-a-stm32mp-2.2.r2-r0/tf-a-stm32mp-2.2.r2/../build/trusted/bl32/stm32_tamp.o
 .ARM.attributes
                0x00000000000004ee       0x39 /home/ming/tf-a-stm32mp-2.2.r2-r0/tf-a-stm32mp-2.2.r2/../build/trusted/bl32/stm32_timer.o
 .ARM.attributes
                0x0000000000000527       0x39 /home/ming/tf-a-stm32mp-2.2.r2-r0/tf-a-stm32mp-2.2.r2/../build/trusted/bl32/sp_min_setup.o
 .ARM.attributes
                0x0000000000000560       0x39 /home/ming/tf-a-stm32mp-2.2.r2-r0/tf-a-stm32mp-2.2.r2/../build/trusted/bl32/stm32mp1_low_power.o
 .ARM.attributes
                0x0000000000000599       0x39 /home/ming/tf-a-stm32mp-2.2.r2-r0/tf-a-stm32mp-2.2.r2/../build/trusted/bl32/stm32mp1_pm.o
 .ARM.attributes
                0x00000000000005d2       0x39 /home/ming/tf-a-stm32mp-2.2.r2-r0/tf-a-stm32mp-2.2.r2/../build/trusted/bl32/stm32mp1_power_config.o
 .ARM.attributes
                0x000000000000060b       0x39 /home/ming/tf-a-stm32mp-2.2.r2-r0/tf-a-stm32mp-2.2.r2/../build/trusted/bl32/stm32mp1_shared_resources.o
 .ARM.attributes
                0x0000000000000644       0x39 /home/ming/tf-a-stm32mp-2.2.r2-r0/tf-a-stm32mp-2.2.r2/../build/trusted/bl32/stm32mp1_topology.o
 .ARM.attributes
                0x000000000000067d       0x39 /home/ming/tf-a-stm32mp-2.2.r2-r0/tf-a-stm32mp-2.2.r2/../build/trusted/bl32/gic_common.o
 .ARM.attributes
                0x00000000000006b6       0x39 /home/ming/tf-a-stm32mp-2.2.r2-r0/tf-a-stm32mp-2.2.r2/../build/trusted/bl32/gicv2_helpers.o
 .ARM.attributes
                0x00000000000006ef       0x39 /home/ming/tf-a-stm32mp-2.2.r2-r0/tf-a-stm32mp-2.2.r2/../build/trusted/bl32/gicv2_main.o
 .ARM.attributes
                0x0000000000000728       0x39 /home/ming/tf-a-stm32mp-2.2.r2-r0/tf-a-stm32mp-2.2.r2/../build/trusted/bl32/plat_gicv2.o
 .ARM.attributes
                0x0000000000000761       0x39 /home/ming/tf-a-stm32mp-2.2.r2-r0/tf-a-stm32mp-2.2.r2/../build/trusted/bl32/stm32_gic.o
 .ARM.attributes
                0x000000000000079a       0x39 /home/ming/tf-a-stm32mp-2.2.r2-r0/tf-a-stm32mp-2.2.r2/../build/trusted/bl32/plat_psci_common.o
 .ARM.attributes
                0x00000000000007d3       0x39 /home/ming/tf-a-stm32mp-2.2.r2-r0/tf-a-stm32mp-2.2.r2/../build/trusted/bl32/bsec_svc.o
 .ARM.attributes
                0x000000000000080c       0x39 /home/ming/tf-a-stm32mp-2.2.r2-r0/tf-a-stm32mp-2.2.r2/../build/trusted/bl32/low_power_svc.o
 .ARM.attributes
                0x0000000000000845       0x39 /home/ming/tf-a-stm32mp-2.2.r2-r0/tf-a-stm32mp-2.2.r2/../build/trusted/bl32/pwr_svc.o
 .ARM.attributes
                0x000000000000087e       0x39 /home/ming/tf-a-stm32mp-2.2.r2-r0/tf-a-stm32mp-2.2.r2/../build/trusted/bl32/rcc_svc.o
 .ARM.attributes
                0x00000000000008b7       0x39 /home/ming/tf-a-stm32mp-2.2.r2-r0/tf-a-stm32mp-2.2.r2/../build/trusted/bl32/stm32mp1_svc_setup.o
 .ARM.attributes
                0x00000000000008f0       0x39 /home/ming/tf-a-stm32mp-2.2.r2-r0/tf-a-stm32mp-2.2.r2/../build/trusted/bl32/base.o
 .ARM.attributes
                0x0000000000000929       0x39 /home/ming/tf-a-stm32mp-2.2.r2-r0/tf-a-stm32mp-2.2.r2/../build/trusted/bl32/clock.o
 .ARM.attributes
                0x0000000000000962       0x39 /home/ming/tf-a-stm32mp-2.2.r2-r0/tf-a-stm32mp-2.2.r2/../build/trusted/bl32/entry.o
 .ARM.attributes
                0x000000000000099b       0x39 /home/ming/tf-a-stm32mp-2.2.r2-r0/tf-a-stm32mp-2.2.r2/../build/trusted/bl32/reset_domain.o
 .ARM.attributes
                0x00000000000009d4       0x39 /home/ming/tf-a-stm32mp-2.2.r2-r0/tf-a-stm32mp-2.2.r2/../build/trusted/bl32/smt.o
 .ARM.attributes
                0x0000000000000a0d       0x39 /home/ming/tf-a-stm32mp-2.2.r2-r0/tf-a-stm32mp-2.2.r2/../build/trusted/bl32/stm32mp1_scmi.o
 .ARM.attributes
                0x0000000000000a46       0x39 /home/ming/tf-a-stm32mp-2.2.r2-r0/tf-a-stm32mp-2.2.r2/../build/trusted/bl32/tf_log.o
 .ARM.attributes
                0x0000000000000a7f       0x39 /home/ming/tf-a-stm32mp-2.2.r2-r0/tf-a-stm32mp-2.2.r2/../build/trusted/bl32/multi_console.o
 .ARM.attributes
                0x0000000000000ab8       0x39 /home/ming/tf-a-stm32mp-2.2.r2-r0/tf-a-stm32mp-2.2.r2/../build/trusted/bl32/plat_log_common.o
 .ARM.attributes
                0x0000000000000af1       0x39 /home/ming/tf-a-stm32mp-2.2.r2-r0/tf-a-stm32mp-2.2.r2/../build/trusted/bl32/plat_common.o
 .ARM.attributes
                0x0000000000000b2a       0x39 /home/ming/tf-a-stm32mp-2.2.r2-r0/tf-a-stm32mp-2.2.r2/../build/trusted/bl32/ctzdi2.o
 .ARM.attributes
                0x0000000000000b63       0x39 /home/ming/tf-a-stm32mp-2.2.r2-r0/tf-a-stm32mp-2.2.r2/../build/trusted/bl32/udivmoddi4.o
 .ARM.attributes
                0x0000000000000b9c       0x39 /home/ming/tf-a-stm32mp-2.2.r2-r0/tf-a-stm32mp-2.2.r2/../build/trusted/bl32/stm32mp_common.o
 .ARM.attributes
                0x0000000000000bd5       0x39 /home/ming/tf-a-stm32mp-2.2.r2-r0/tf-a-stm32mp-2.2.r2/../build/trusted/bl32/stm32mp1_private.o
 .ARM.attributes
                0x0000000000000c0e       0x39 /home/ming/tf-a-stm32mp-2.2.r2-r0/tf-a-stm32mp-2.2.r2/../build/trusted/bl32/xlat_tables_arch.o
 .ARM.attributes
                0x0000000000000c47       0x39 /home/ming/tf-a-stm32mp-2.2.r2-r0/tf-a-stm32mp-2.2.r2/../build/trusted/bl32/xlat_tables_context.o
 .ARM.attributes
                0x0000000000000c80       0x39 /home/ming/tf-a-stm32mp-2.2.r2-r0/tf-a-stm32mp-2.2.r2/../build/trusted/bl32/xlat_tables_core.o
 .ARM.attributes
                0x0000000000000cb9       0x39 /home/ming/tf-a-stm32mp-2.2.r2-r0/tf-a-stm32mp-2.2.r2/../build/trusted/bl32/xlat_tables_utils.o
 .ARM.attributes
                0x0000000000000cf2       0x39 /home/ming/tf-a-stm32mp-2.2.r2-r0/tf-a-stm32mp-2.2.r2/../build/trusted/bl32/tzc400.o
 .ARM.attributes
                0x0000000000000d2b       0x39 /home/ming/tf-a-stm32mp-2.2.r2-r0/tf-a-stm32mp-2.2.r2/../build/trusted/bl32/delay_timer.o
 .ARM.attributes
                0x0000000000000d64       0x39 /home/ming/tf-a-stm32mp-2.2.r2-r0/tf-a-stm32mp-2.2.r2/../build/trusted/bl32/generic_delay_timer.o
 .ARM.attributes
                0x0000000000000d9d       0x39 /home/ming/tf-a-stm32mp-2.2.r2-r0/tf-a-stm32mp-2.2.r2/../build/trusted/bl32/bsec2.o
 .ARM.attributes
                0x0000000000000dd6       0x39 /home/ming/tf-a-stm32mp-2.2.r2-r0/tf-a-stm32mp-2.2.r2/../build/trusted/bl32/stm32mp_clkfunc.o
 .ARM.attributes
                0x0000000000000e0f       0x39 /home/ming/tf-a-stm32mp-2.2.r2-r0/tf-a-stm32mp-2.2.r2/../build/trusted/bl32/stm32mp1_clk.o
 .ARM.attributes
                0x0000000000000e48       0x39 /home/ming/tf-a-stm32mp-2.2.r2-r0/tf-a-stm32mp-2.2.r2/../build/trusted/bl32/stm32mp1_ddr_helpers.o
 .ARM.attributes
                0x0000000000000e81       0x39 /home/ming/tf-a-stm32mp-2.2.r2-r0/tf-a-stm32mp-2.2.r2/../build/trusted/bl32/stm32_gpio.o
 .ARM.attributes
                0x0000000000000eba       0x39 /home/ming/tf-a-stm32mp-2.2.r2-r0/tf-a-stm32mp-2.2.r2/../build/trusted/bl32/stm32_i2c.o
 .ARM.attributes
                0x0000000000000ef3       0x39 /home/ming/tf-a-stm32mp-2.2.r2-r0/tf-a-stm32mp-2.2.r2/../build/trusted/bl32/stm32_iwdg.o
 .ARM.attributes
                0x0000000000000f2c       0x39 /home/ming/tf-a-stm32mp-2.2.r2-r0/tf-a-stm32mp-2.2.r2/../build/trusted/bl32/stm32mp_pmic.o
 .ARM.attributes
                0x0000000000000f65       0x39 /home/ming/tf-a-stm32mp-2.2.r2-r0/tf-a-stm32mp-2.2.r2/../build/trusted/bl32/stpmic1.o
 .ARM.attributes
                0x0000000000000f9e       0x39 /home/ming/tf-a-stm32mp-2.2.r2-r0/tf-a-stm32mp-2.2.r2/../build/trusted/bl32/stm32mp1_reset.o
 .ARM.attributes
                0x0000000000000fd7       0x39 /home/ming/tf-a-stm32mp-2.2.r2-r0/tf-a-stm32mp-2.2.r2/../build/trusted/bl32/stm32mp_dt.o
 .ARM.attributes
                0x0000000000001010       0x39 /home/ming/tf-a-stm32mp-2.2.r2-r0/tf-a-stm32mp-2.2.r2/../build/trusted/bl32/stm32mp_shres_helpers.o
 .ARM.attributes
                0x0000000000001049       0x39 /home/ming/tf-a-stm32mp-2.2.r2-r0/tf-a-stm32mp-2.2.r2/../build/trusted/bl32/stm32mp1_context.o
 .ARM.attributes
                0x0000000000001082       0x39 /home/ming/tf-a-stm32mp-2.2.r2-r0/tf-a-stm32mp-2.2.r2/../build/trusted/bl32/stm32mp1_dbgmcu.o
 .ARM.attributes
                0x00000000000010bb       0x39 /home/ming/tf-a-stm32mp-2.2.r2-r0/tf-a-stm32mp-2.2.r2/../build/trusted/bl32/stm32mp1_security.o
 .ARM.attributes
                0x00000000000010f4       0x39 /home/ming/tf-a-stm32mp-2.2.r2-r0/tf-a-stm32mp-2.2.r2/../build/trusted/bl32/stm32mp1_syscfg.o
 .ARM.attributes
                0x000000000000112d       0x2d /home/ming/tf-a-stm32mp-2.2.r2-r0/tf-a-stm32mp-2.2.r2/../build/trusted/bl32/entrypoint.o
 .ARM.attributes
                0x000000000000115a       0x2d /home/ming/tf-a-stm32mp-2.2.r2-r0/tf-a-stm32mp-2.2.r2/../build/trusted/bl32/cpu_data.o
 .ARM.attributes
                0x0000000000001187       0x2d /home/ming/tf-a-stm32mp-2.2.r2-r0/tf-a-stm32mp-2.2.r2/../build/trusted/bl32/cpu_helpers.o
 .ARM.attributes
                0x00000000000011b4       0x2d /home/ming/tf-a-stm32mp-2.2.r2-r0/tf-a-stm32mp-2.2.r2/../build/trusted/bl32/spinlock.o
 .ARM.attributes
                0x00000000000011e1       0x2d /home/ming/tf-a-stm32mp-2.2.r2-r0/tf-a-stm32mp-2.2.r2/../build/trusted/bl32/psci_helpers.o
 .ARM.attributes
                0x000000000000120e       0x2d /home/ming/tf-a-stm32mp-2.2.r2-r0/tf-a-stm32mp-2.2.r2/../build/trusted/bl32/platform_mp_stack.o
 .ARM.attributes
                0x000000000000123b       0x2d /home/ming/tf-a-stm32mp-2.2.r2-r0/tf-a-stm32mp-2.2.r2/../build/trusted/bl32/debug.o
 .ARM.attributes
                0x0000000000001268       0x2d /home/ming/tf-a-stm32mp-2.2.r2-r0/tf-a-stm32mp-2.2.r2/../build/trusted/bl32/cache_helpers.o
 .ARM.attributes
                0x0000000000001295       0x2d /home/ming/tf-a-stm32mp-2.2.r2-r0/tf-a-stm32mp-2.2.r2/../build/trusted/bl32/misc_helpers.o
 .ARM.attributes
                0x00000000000012c2       0x2d /home/ming/tf-a-stm32mp-2.2.r2-r0/tf-a-stm32mp-2.2.r2/../build/trusted/bl32/platform_helpers.o
 .ARM.attributes
                0x00000000000012ef       0x2d /home/ming/tf-a-stm32mp-2.2.r2-r0/tf-a-stm32mp-2.2.r2/../build/trusted/bl32/aeabi_uldivmod.o
 .ARM.attributes
                0x000000000000131c       0x2d /home/ming/tf-a-stm32mp-2.2.r2-r0/tf-a-stm32mp-2.2.r2/../build/trusted/bl32/stm32_console.o
 .ARM.attributes
                0x0000000000001349       0x2d /home/ming/tf-a-stm32mp-2.2.r2-r0/tf-a-stm32mp-2.2.r2/../build/trusted/bl32/enable_mmu.o
 .ARM.attributes
                0x0000000000001376       0x2d /home/ming/tf-a-stm32mp-2.2.r2-r0/tf-a-stm32mp-2.2.r2/../build/trusted/bl32/cortex_a7.o
 .ARM.attributes
                0x00000000000013a3       0x2d /home/ming/tf-a-stm32mp-2.2.r2-r0/tf-a-stm32mp-2.2.r2/../build/trusted/bl32/stm32mp1_helper.o
 .ARM.attributes
                0x00000000000013d0       0x39 /home/ming/tf-a-stm32mp-2.2.r2-r0/tf-a-stm32mp-2.2.r2/../build/trusted/lib/libfdt.a(fdt.o)
 .ARM.attributes
                0x0000000000001409       0x39 /home/ming/tf-a-stm32mp-2.2.r2-r0/tf-a-stm32mp-2.2.r2/../build/trusted/lib/libfdt.a(fdt_addresses.o)
 .ARM.attributes
                0x0000000000001442       0x39 /home/ming/tf-a-stm32mp-2.2.r2-r0/tf-a-stm32mp-2.2.r2/../build/trusted/lib/libfdt.a(fdt_ro.o)
 .ARM.attributes
                0x000000000000147b       0x39 /home/ming/tf-a-stm32mp-2.2.r2-r0/tf-a-stm32mp-2.2.r2/../build/trusted/lib/libc.a(assert.o)
 .ARM.attributes
                0x00000000000014b4       0x39 /home/ming/tf-a-stm32mp-2.2.r2-r0/tf-a-stm32mp-2.2.r2/../build/trusted/lib/libc.a(memchr.o)
 .ARM.attributes
                0x00000000000014ed       0x39 /home/ming/tf-a-stm32mp-2.2.r2-r0/tf-a-stm32mp-2.2.r2/../build/trusted/lib/libc.a(memcmp.o)
 .ARM.attributes
                0x0000000000001526       0x39 /home/ming/tf-a-stm32mp-2.2.r2-r0/tf-a-stm32mp-2.2.r2/../build/trusted/lib/libc.a(memcpy.o)
 .ARM.attributes
                0x000000000000155f       0x39 /home/ming/tf-a-stm32mp-2.2.r2-r0/tf-a-stm32mp-2.2.r2/../build/trusted/lib/libc.a(memmove.o)
 .ARM.attributes
                0x0000000000001598       0x39 /home/ming/tf-a-stm32mp-2.2.r2-r0/tf-a-stm32mp-2.2.r2/../build/trusted/lib/libc.a(memset.o)
 .ARM.attributes
                0x00000000000015d1       0x39 /home/ming/tf-a-stm32mp-2.2.r2-r0/tf-a-stm32mp-2.2.r2/../build/trusted/lib/libc.a(printf.o)
 .ARM.attributes
                0x000000000000160a       0x39 /home/ming/tf-a-stm32mp-2.2.r2-r0/tf-a-stm32mp-2.2.r2/../build/trusted/lib/libc.a(putchar.o)
 .ARM.attributes
                0x0000000000001643       0x39 /home/ming/tf-a-stm32mp-2.2.r2-r0/tf-a-stm32mp-2.2.r2/../build/trusted/lib/libc.a(strchr.o)
 .ARM.attributes
                0x000000000000167c       0x39 /home/ming/tf-a-stm32mp-2.2.r2-r0/tf-a-stm32mp-2.2.r2/../build/trusted/lib/libc.a(strcmp.o)
 .ARM.attributes
                0x00000000000016b5       0x39 /home/ming/tf-a-stm32mp-2.2.r2-r0/tf-a-stm32mp-2.2.r2/../build/trusted/lib/libc.a(strlcpy.o)
 .ARM.attributes
                0x00000000000016ee       0x39 /home/ming/tf-a-stm32mp-2.2.r2-r0/tf-a-stm32mp-2.2.r2/../build/trusted/lib/libc.a(strlen.o)
 .ARM.attributes
                0x0000000000001727       0x39 /home/ming/tf-a-stm32mp-2.2.r2-r0/tf-a-stm32mp-2.2.r2/../build/trusted/lib/libc.a(strncmp.o)
 .ARM.attributes
                0x0000000000001760       0x39 /home/ming/tf-a-stm32mp-2.2.r2-r0/tf-a-stm32mp-2.2.r2/../build/trusted/lib/libc.a(strnlen.o)
 .ARM.attributes
                0x0000000000001799       0x39 /home/ming/tf-a-stm32mp-2.2.r2-r0/tf-a-stm32mp-2.2.r2/../build/trusted/lib/libc.a(strrchr.o)

.debug_loc      0x0000000000000000    0x25d90
 .debug_loc     0x0000000000000000      0x461 /home/ming/tf-a-stm32mp-2.2.r2-r0/tf-a-stm32mp-2.2.r2/../build/trusted/bl32/sp_min_main.o
 .debug_loc     0x0000000000000461      0x2db /home/ming/tf-a-stm32mp-2.2.r2-r0/tf-a-stm32mp-2.2.r2/../build/trusted/bl32/runtime_svc.o
 .debug_loc     0x000000000000073c      0x2e5 /home/ming/tf-a-stm32mp-2.2.r2-r0/tf-a-stm32mp-2.2.r2/../build/trusted/bl32/std_svc_setup.o
 .debug_loc     0x0000000000000a21      0x3cd /home/ming/tf-a-stm32mp-2.2.r2-r0/tf-a-stm32mp-2.2.r2/../build/trusted/bl32/context_mgmt.o
 .debug_loc     0x0000000000000dee      0x1f6 /home/ming/tf-a-stm32mp-2.2.r2-r0/tf-a-stm32mp-2.2.r2/../build/trusted/bl32/errata_report.o
 .debug_loc     0x0000000000000fe4       0xca /home/ming/tf-a-stm32mp-2.2.r2-r0/tf-a-stm32mp-2.2.r2/../build/trusted/bl32/psci_off.o
 .debug_loc     0x00000000000010ae      0x242 /home/ming/tf-a-stm32mp-2.2.r2-r0/tf-a-stm32mp-2.2.r2/../build/trusted/bl32/psci_on.o
 .debug_loc     0x00000000000012f0      0x2a7 /home/ming/tf-a-stm32mp-2.2.r2-r0/tf-a-stm32mp-2.2.r2/../build/trusted/bl32/psci_suspend.o
 .debug_loc     0x0000000000001597      0xe53 /home/ming/tf-a-stm32mp-2.2.r2-r0/tf-a-stm32mp-2.2.r2/../build/trusted/bl32/psci_common.o
 .debug_loc     0x00000000000023ea     0x12ee /home/ming/tf-a-stm32mp-2.2.r2-r0/tf-a-stm32mp-2.2.r2/../build/trusted/bl32/psci_main.o
 .debug_loc     0x00000000000036d8      0x27d /home/ming/tf-a-stm32mp-2.2.r2-r0/tf-a-stm32mp-2.2.r2/../build/trusted/bl32/psci_setup.o
 .debug_loc     0x0000000000003955       0xf8 /home/ming/tf-a-stm32mp-2.2.r2-r0/tf-a-stm32mp-2.2.r2/../build/trusted/bl32/psci_system_off.o
 .debug_loc     0x0000000000003a4d       0xed /home/ming/tf-a-stm32mp-2.2.r2-r0/tf-a-stm32mp-2.2.r2/../build/trusted/bl32/psci_mem_protect.o
 .debug_loc     0x0000000000003b3a      0x5a5 /home/ming/tf-a-stm32mp-2.2.r2-r0/tf-a-stm32mp-2.2.r2/../build/trusted/bl32/bakery_lock_normal.o
 .debug_loc     0x00000000000040df      0x9f9 /home/ming/tf-a-stm32mp-2.2.r2-r0/tf-a-stm32mp-2.2.r2/../build/trusted/bl32/stm32mp1_calib.o
 .debug_loc     0x0000000000004ad8      0x737 /home/ming/tf-a-stm32mp-2.2.r2-r0/tf-a-stm32mp-2.2.r2/../build/trusted/bl32/etzpc.o
 .debug_loc     0x000000000000520f      0x31c /home/ming/tf-a-stm32mp-2.2.r2-r0/tf-a-stm32mp-2.2.r2/../build/trusted/bl32/stm32_rng.o
 .debug_loc     0x000000000000552b      0x81f /home/ming/tf-a-stm32mp-2.2.r2-r0/tf-a-stm32mp-2.2.r2/../build/trusted/bl32/stm32_rtc.o
 .debug_loc     0x0000000000005d4a      0xb51 /home/ming/tf-a-stm32mp-2.2.r2-r0/tf-a-stm32mp-2.2.r2/../build/trusted/bl32/stm32_tamp.o
 .debug_loc     0x000000000000689b      0x674 /home/ming/tf-a-stm32mp-2.2.r2-r0/tf-a-stm32mp-2.2.r2/../build/trusted/bl32/stm32_timer.o
 .debug_loc     0x0000000000006f0f      0x3fe /home/ming/tf-a-stm32mp-2.2.r2-r0/tf-a-stm32mp-2.2.r2/../build/trusted/bl32/sp_min_setup.o
 .debug_loc     0x000000000000730d      0x9fd /home/ming/tf-a-stm32mp-2.2.r2-r0/tf-a-stm32mp-2.2.r2/../build/trusted/bl32/stm32mp1_low_power.o
 .debug_loc     0x0000000000007d0a      0x387 /home/ming/tf-a-stm32mp-2.2.r2-r0/tf-a-stm32mp-2.2.r2/../build/trusted/bl32/stm32mp1_pm.o
 .debug_loc     0x0000000000008091      0x241 /home/ming/tf-a-stm32mp-2.2.r2-r0/tf-a-stm32mp-2.2.r2/../build/trusted/bl32/stm32mp1_power_config.o
 .debug_loc     0x00000000000082d2      0xcaa /home/ming/tf-a-stm32mp-2.2.r2-r0/tf-a-stm32mp-2.2.r2/../build/trusted/bl32/stm32mp1_shared_resources.o
 .debug_loc     0x0000000000008f7c       0xd0 /home/ming/tf-a-stm32mp-2.2.r2-r0/tf-a-stm32mp-2.2.r2/../build/trusted/bl32/stm32mp1_topology.o
 .debug_loc     0x000000000000904c     0x1518 /home/ming/tf-a-stm32mp-2.2.r2-r0/tf-a-stm32mp-2.2.r2/../build/trusted/bl32/gic_common.o
 .debug_loc     0x000000000000a564      0x909 /home/ming/tf-a-stm32mp-2.2.r2-r0/tf-a-stm32mp-2.2.r2/../build/trusted/bl32/gicv2_helpers.o
 .debug_loc     0x000000000000ae6d      0xb70 /home/ming/tf-a-stm32mp-2.2.r2-r0/tf-a-stm32mp-2.2.r2/../build/trusted/bl32/gicv2_main.o
 .debug_loc     0x000000000000b9dd      0x50b /home/ming/tf-a-stm32mp-2.2.r2-r0/tf-a-stm32mp-2.2.r2/../build/trusted/bl32/plat_gicv2.o
 .debug_loc     0x000000000000bee8      0x321 /home/ming/tf-a-stm32mp-2.2.r2-r0/tf-a-stm32mp-2.2.r2/../build/trusted/bl32/stm32_gic.o
 .debug_loc     0x000000000000c209      0x152 /home/ming/tf-a-stm32mp-2.2.r2-r0/tf-a-stm32mp-2.2.r2/../build/trusted/bl32/plat_psci_common.o
 .debug_loc     0x000000000000c35b      0x1d4 /home/ming/tf-a-stm32mp-2.2.r2-r0/tf-a-stm32mp-2.2.r2/../build/trusted/bl32/bsec_svc.o
 .debug_loc     0x000000000000c52f       0x42 /home/ming/tf-a-stm32mp-2.2.r2-r0/tf-a-stm32mp-2.2.r2/../build/trusted/bl32/low_power_svc.o
 .debug_loc     0x000000000000c571      0x464 /home/ming/tf-a-stm32mp-2.2.r2-r0/tf-a-stm32mp-2.2.r2/../build/trusted/bl32/pwr_svc.o
 .debug_loc     0x000000000000c9d5      0x366 /home/ming/tf-a-stm32mp-2.2.r2-r0/tf-a-stm32mp-2.2.r2/../build/trusted/bl32/rcc_svc.o
 .debug_loc     0x000000000000cd3b      0x5ca /home/ming/tf-a-stm32mp-2.2.r2-r0/tf-a-stm32mp-2.2.r2/../build/trusted/bl32/stm32mp1_svc_setup.o
 .debug_loc     0x000000000000d305      0x3c3 /home/ming/tf-a-stm32mp-2.2.r2-r0/tf-a-stm32mp-2.2.r2/../build/trusted/bl32/base.o
 .debug_loc     0x000000000000d6c8      0x8eb /home/ming/tf-a-stm32mp-2.2.r2-r0/tf-a-stm32mp-2.2.r2/../build/trusted/bl32/clock.o
 .debug_loc     0x000000000000dfb3      0x1d0 /home/ming/tf-a-stm32mp-2.2.r2-r0/tf-a-stm32mp-2.2.r2/../build/trusted/bl32/entry.o
 .debug_loc     0x000000000000e183      0x367 /home/ming/tf-a-stm32mp-2.2.r2-r0/tf-a-stm32mp-2.2.r2/../build/trusted/bl32/reset_domain.o
 .debug_loc     0x000000000000e4ea      0x1b9 /home/ming/tf-a-stm32mp-2.2.r2-r0/tf-a-stm32mp-2.2.r2/../build/trusted/bl32/smt.o
 .debug_loc     0x000000000000e6a3      0x9e2 /home/ming/tf-a-stm32mp-2.2.r2-r0/tf-a-stm32mp-2.2.r2/../build/trusted/bl32/stm32mp1_scmi.o
 .debug_loc     0x000000000000f085       0x9f /home/ming/tf-a-stm32mp-2.2.r2-r0/tf-a-stm32mp-2.2.r2/../build/trusted/bl32/tf_log.o
 .debug_loc     0x000000000000f124      0x252 /home/ming/tf-a-stm32mp-2.2.r2-r0/tf-a-stm32mp-2.2.r2/../build/trusted/bl32/multi_console.o
 .debug_loc     0x000000000000f376       0x8e /home/ming/tf-a-stm32mp-2.2.r2-r0/tf-a-stm32mp-2.2.r2/../build/trusted/bl32/plat_log_common.o
 .debug_loc     0x000000000000f404       0x21 /home/ming/tf-a-stm32mp-2.2.r2-r0/tf-a-stm32mp-2.2.r2/../build/trusted/bl32/plat_common.o
 .debug_loc     0x000000000000f425       0x28 /home/ming/tf-a-stm32mp-2.2.r2-r0/tf-a-stm32mp-2.2.r2/../build/trusted/bl32/ctzdi2.o
 .debug_loc     0x000000000000f44d      0x247 /home/ming/tf-a-stm32mp-2.2.r2-r0/tf-a-stm32mp-2.2.r2/../build/trusted/bl32/udivmoddi4.o
 .debug_loc     0x000000000000f694      0x258 /home/ming/tf-a-stm32mp-2.2.r2-r0/tf-a-stm32mp-2.2.r2/../build/trusted/bl32/stm32mp_common.o
 .debug_loc     0x000000000000f8ec      0x74c /home/ming/tf-a-stm32mp-2.2.r2-r0/tf-a-stm32mp-2.2.r2/../build/trusted/bl32/stm32mp1_private.o
 .debug_loc     0x0000000000010038      0x32a /home/ming/tf-a-stm32mp-2.2.r2-r0/tf-a-stm32mp-2.2.r2/../build/trusted/bl32/xlat_tables_arch.o
 .debug_loc     0x0000000000010362      0x4da /home/ming/tf-a-stm32mp-2.2.r2-r0/tf-a-stm32mp-2.2.r2/../build/trusted/bl32/xlat_tables_context.o
 .debug_loc     0x000000000001083c     0x1782 /home/ming/tf-a-stm32mp-2.2.r2-r0/tf-a-stm32mp-2.2.r2/../build/trusted/bl32/xlat_tables_core.o
 .debug_loc     0x0000000000011fbe      0x77e /home/ming/tf-a-stm32mp-2.2.r2-r0/tf-a-stm32mp-2.2.r2/../build/trusted/bl32/xlat_tables_utils.o
 .debug_loc     0x000000000001273c      0x9af /home/ming/tf-a-stm32mp-2.2.r2-r0/tf-a-stm32mp-2.2.r2/../build/trusted/bl32/tzc400.o
 .debug_loc     0x00000000000130eb       0xf6 /home/ming/tf-a-stm32mp-2.2.r2-r0/tf-a-stm32mp-2.2.r2/../build/trusted/bl32/delay_timer.o
 .debug_loc     0x00000000000131e1       0xa8 /home/ming/tf-a-stm32mp-2.2.r2-r0/tf-a-stm32mp-2.2.r2/../build/trusted/bl32/generic_delay_timer.o
 .debug_loc     0x0000000000013289     0x13f7 /home/ming/tf-a-stm32mp-2.2.r2-r0/tf-a-stm32mp-2.2.r2/../build/trusted/bl32/bsec2.o
 .debug_loc     0x0000000000014680      0xa13 /home/ming/tf-a-stm32mp-2.2.r2-r0/tf-a-stm32mp-2.2.r2/../build/trusted/bl32/stm32mp_clkfunc.o
 .debug_loc     0x0000000000015093     0x4d34 /home/ming/tf-a-stm32mp-2.2.r2-r0/tf-a-stm32mp-2.2.r2/../build/trusted/bl32/stm32mp1_clk.o
 .debug_loc     0x0000000000019dc7     0x2ba7 /home/ming/tf-a-stm32mp-2.2.r2-r0/tf-a-stm32mp-2.2.r2/../build/trusted/bl32/stm32mp1_ddr_helpers.o
 .debug_loc     0x000000000001c96e      0xd06 /home/ming/tf-a-stm32mp-2.2.r2-r0/tf-a-stm32mp-2.2.r2/../build/trusted/bl32/stm32_gpio.o
 .debug_loc     0x000000000001d674     0x2682 /home/ming/tf-a-stm32mp-2.2.r2-r0/tf-a-stm32mp-2.2.r2/../build/trusted/bl32/stm32_i2c.o
 .debug_loc     0x000000000001fcf6      0x4f5 /home/ming/tf-a-stm32mp-2.2.r2-r0/tf-a-stm32mp-2.2.r2/../build/trusted/bl32/stm32_iwdg.o
 .debug_loc     0x00000000000201eb      0x908 /home/ming/tf-a-stm32mp-2.2.r2-r0/tf-a-stm32mp-2.2.r2/../build/trusted/bl32/stm32mp_pmic.o
 .debug_loc     0x0000000000020af3      0x685 /home/ming/tf-a-stm32mp-2.2.r2-r0/tf-a-stm32mp-2.2.r2/../build/trusted/bl32/stpmic1.o
 .debug_loc     0x0000000000021178      0x1f6 /home/ming/tf-a-stm32mp-2.2.r2-r0/tf-a-stm32mp-2.2.r2/../build/trusted/bl32/stm32mp1_reset.o
 .debug_loc     0x000000000002136e      0xd2d /home/ming/tf-a-stm32mp-2.2.r2-r0/tf-a-stm32mp-2.2.r2/../build/trusted/bl32/stm32mp_dt.o
 .debug_loc     0x000000000002209b      0x272 /home/ming/tf-a-stm32mp-2.2.r2-r0/tf-a-stm32mp-2.2.r2/../build/trusted/bl32/stm32mp_shres_helpers.o
 .debug_loc     0x000000000002230d      0x3b8 /home/ming/tf-a-stm32mp-2.2.r2-r0/tf-a-stm32mp-2.2.r2/../build/trusted/bl32/stm32mp1_context.o
 .debug_loc     0x00000000000226c5      0x18b /home/ming/tf-a-stm32mp-2.2.r2-r0/tf-a-stm32mp-2.2.r2/../build/trusted/bl32/stm32mp1_dbgmcu.o
 .debug_loc     0x0000000000022850       0x91 /home/ming/tf-a-stm32mp-2.2.r2-r0/tf-a-stm32mp-2.2.r2/../build/trusted/bl32/stm32mp1_security.o
 .debug_loc     0x00000000000228e1      0x3f5 /home/ming/tf-a-stm32mp-2.2.r2-r0/tf-a-stm32mp-2.2.r2/../build/trusted/bl32/stm32mp1_syscfg.o
 .debug_loc     0x0000000000022cd6      0x522 /home/ming/tf-a-stm32mp-2.2.r2-r0/tf-a-stm32mp-2.2.r2/../build/trusted/lib/libfdt.a(fdt.o)
 .debug_loc     0x00000000000231f8      0x122 /home/ming/tf-a-stm32mp-2.2.r2-r0/tf-a-stm32mp-2.2.r2/../build/trusted/lib/libfdt.a(fdt_addresses.o)
 .debug_loc     0x000000000002331a     0x1c92 /home/ming/tf-a-stm32mp-2.2.r2-r0/tf-a-stm32mp-2.2.r2/../build/trusted/lib/libfdt.a(fdt_ro.o)
 .debug_loc     0x0000000000024fac       0x58 /home/ming/tf-a-stm32mp-2.2.r2-r0/tf-a-stm32mp-2.2.r2/../build/trusted/lib/libc.a(assert.o)
 .debug_loc     0x0000000000025004       0xb8 /home/ming/tf-a-stm32mp-2.2.r2-r0/tf-a-stm32mp-2.2.r2/../build/trusted/lib/libc.a(memchr.o)
 .debug_loc     0x00000000000250bc       0xe4 /home/ming/tf-a-stm32mp-2.2.r2-r0/tf-a-stm32mp-2.2.r2/../build/trusted/lib/libc.a(memcmp.o)
 .debug_loc     0x00000000000251a0       0x85 /home/ming/tf-a-stm32mp-2.2.r2-r0/tf-a-stm32mp-2.2.r2/../build/trusted/lib/libc.a(memcpy.o)
 .debug_loc     0x0000000000025225      0x137 /home/ming/tf-a-stm32mp-2.2.r2-r0/tf-a-stm32mp-2.2.r2/../build/trusted/lib/libc.a(memmove.o)
 .debug_loc     0x000000000002535c       0x4c /home/ming/tf-a-stm32mp-2.2.r2-r0/tf-a-stm32mp-2.2.r2/../build/trusted/lib/libc.a(memset.o)
 .debug_loc     0x00000000000253a8      0x5ae /home/ming/tf-a-stm32mp-2.2.r2-r0/tf-a-stm32mp-2.2.r2/../build/trusted/lib/libc.a(printf.o)
 .debug_loc     0x0000000000025956       0x1e /home/ming/tf-a-stm32mp-2.2.r2-r0/tf-a-stm32mp-2.2.r2/../build/trusted/lib/libc.a(putchar.o)
 .debug_loc     0x0000000000025974       0x57 /home/ming/tf-a-stm32mp-2.2.r2-r0/tf-a-stm32mp-2.2.r2/../build/trusted/lib/libc.a(strchr.o)
 .debug_loc     0x00000000000259cb       0x63 /home/ming/tf-a-stm32mp-2.2.r2-r0/tf-a-stm32mp-2.2.r2/../build/trusted/lib/libc.a(strcmp.o)
 .debug_loc     0x0000000000025a2e      0x15a /home/ming/tf-a-stm32mp-2.2.r2-r0/tf-a-stm32mp-2.2.r2/../build/trusted/lib/libc.a(strlcpy.o)
 .debug_loc     0x0000000000025b88       0x57 /home/ming/tf-a-stm32mp-2.2.r2-r0/tf-a-stm32mp-2.2.r2/../build/trusted/lib/libc.a(strlen.o)
 .debug_loc     0x0000000000025bdf      0x116 /home/ming/tf-a-stm32mp-2.2.r2-r0/tf-a-stm32mp-2.2.r2/../build/trusted/lib/libc.a(strncmp.o)
 .debug_loc     0x0000000000025cf5       0x32 /home/ming/tf-a-stm32mp-2.2.r2-r0/tf-a-stm32mp-2.2.r2/../build/trusted/lib/libc.a(strnlen.o)
 .debug_loc     0x0000000000025d27       0x69 /home/ming/tf-a-stm32mp-2.2.r2-r0/tf-a-stm32mp-2.2.r2/../build/trusted/lib/libc.a(strrchr.o)

.debug_ranges   0x0000000000000000     0x4710
 .debug_ranges  0x0000000000000000       0xc0 /home/ming/tf-a-stm32mp-2.2.r2-r0/tf-a-stm32mp-2.2.r2/../build/trusted/bl32/sp_min_main.o
 .debug_ranges  0x00000000000000c0       0x70 /home/ming/tf-a-stm32mp-2.2.r2-r0/tf-a-stm32mp-2.2.r2/../build/trusted/bl32/runtime_svc.o
 .debug_ranges  0x0000000000000130       0x10 /home/ming/tf-a-stm32mp-2.2.r2-r0/tf-a-stm32mp-2.2.r2/../build/trusted/bl32/plat_sp_min_common.o
 .debug_ranges  0x0000000000000140       0x18 /home/ming/tf-a-stm32mp-2.2.r2-r0/tf-a-stm32mp-2.2.r2/../build/trusted/bl32/std_svc_setup.o
 .debug_ranges  0x0000000000000158       0x30 /home/ming/tf-a-stm32mp-2.2.r2-r0/tf-a-stm32mp-2.2.r2/../build/trusted/bl32/context_mgmt.o
 .debug_ranges  0x0000000000000188       0x18 /home/ming/tf-a-stm32mp-2.2.r2-r0/tf-a-stm32mp-2.2.r2/../build/trusted/bl32/errata_report.o
 .debug_ranges  0x00000000000001a0       0x28 /home/ming/tf-a-stm32mp-2.2.r2-r0/tf-a-stm32mp-2.2.r2/../build/trusted/bl32/psci_off.o
 .debug_ranges  0x00000000000001c8       0x60 /home/ming/tf-a-stm32mp-2.2.r2-r0/tf-a-stm32mp-2.2.r2/../build/trusted/bl32/psci_on.o
 .debug_ranges  0x0000000000000228       0x90 /home/ming/tf-a-stm32mp-2.2.r2-r0/tf-a-stm32mp-2.2.r2/../build/trusted/bl32/psci_suspend.o
 .debug_ranges  0x00000000000002b8      0x230 /home/ming/tf-a-stm32mp-2.2.r2-r0/tf-a-stm32mp-2.2.r2/../build/trusted/bl32/psci_common.o
 .debug_ranges  0x00000000000004e8      0x130 /home/ming/tf-a-stm32mp-2.2.r2-r0/tf-a-stm32mp-2.2.r2/../build/trusted/bl32/psci_main.o
 .debug_ranges  0x0000000000000618       0x88 /home/ming/tf-a-stm32mp-2.2.r2-r0/tf-a-stm32mp-2.2.r2/../build/trusted/bl32/psci_setup.o
 .debug_ranges  0x00000000000006a0       0x20 /home/ming/tf-a-stm32mp-2.2.r2-r0/tf-a-stm32mp-2.2.r2/../build/trusted/bl32/psci_system_off.o
 .debug_ranges  0x00000000000006c0       0x18 /home/ming/tf-a-stm32mp-2.2.r2-r0/tf-a-stm32mp-2.2.r2/../build/trusted/bl32/psci_mem_protect.o
 .debug_ranges  0x00000000000006d8       0xe8 /home/ming/tf-a-stm32mp-2.2.r2-r0/tf-a-stm32mp-2.2.r2/../build/trusted/bl32/bakery_lock_normal.o
 .debug_ranges  0x00000000000007c0      0x1b8 /home/ming/tf-a-stm32mp-2.2.r2-r0/tf-a-stm32mp-2.2.r2/../build/trusted/bl32/stm32mp1_calib.o
 .debug_ranges  0x0000000000000978       0xb8 /home/ming/tf-a-stm32mp-2.2.r2-r0/tf-a-stm32mp-2.2.r2/../build/trusted/bl32/etzpc.o
 .debug_ranges  0x0000000000000a30       0x30 /home/ming/tf-a-stm32mp-2.2.r2-r0/tf-a-stm32mp-2.2.r2/../build/trusted/bl32/stm32_rng.o
 .debug_ranges  0x0000000000000a60      0x1b0 /home/ming/tf-a-stm32mp-2.2.r2-r0/tf-a-stm32mp-2.2.r2/../build/trusted/bl32/stm32_rtc.o
 .debug_ranges  0x0000000000000c10      0x1a0 /home/ming/tf-a-stm32mp-2.2.r2-r0/tf-a-stm32mp-2.2.r2/../build/trusted/bl32/stm32_tamp.o
 .debug_ranges  0x0000000000000db0       0xa8 /home/ming/tf-a-stm32mp-2.2.r2-r0/tf-a-stm32mp-2.2.r2/../build/trusted/bl32/stm32_timer.o
 .debug_ranges  0x0000000000000e58       0x98 /home/ming/tf-a-stm32mp-2.2.r2-r0/tf-a-stm32mp-2.2.r2/../build/trusted/bl32/sp_min_setup.o
 .debug_ranges  0x0000000000000ef0      0x188 /home/ming/tf-a-stm32mp-2.2.r2-r0/tf-a-stm32mp-2.2.r2/../build/trusted/bl32/stm32mp1_low_power.o
 .debug_ranges  0x0000000000001078       0xa0 /home/ming/tf-a-stm32mp-2.2.r2-r0/tf-a-stm32mp-2.2.r2/../build/trusted/bl32/stm32mp1_pm.o
 .debug_ranges  0x0000000000001118      0x118 /home/ming/tf-a-stm32mp-2.2.r2-r0/tf-a-stm32mp-2.2.r2/../build/trusted/bl32/stm32mp1_power_config.o
 .debug_ranges  0x0000000000001230      0x3e8 /home/ming/tf-a-stm32mp-2.2.r2-r0/tf-a-stm32mp-2.2.r2/../build/trusted/bl32/stm32mp1_shared_resources.o
 .debug_ranges  0x0000000000001618       0x18 /home/ming/tf-a-stm32mp-2.2.r2-r0/tf-a-stm32mp-2.2.r2/../build/trusted/bl32/stm32mp1_topology.o
 .debug_ranges  0x0000000000001630      0x108 /home/ming/tf-a-stm32mp-2.2.r2-r0/tf-a-stm32mp-2.2.r2/../build/trusted/bl32/gic_common.o
 .debug_ranges  0x0000000000001738       0x70 /home/ming/tf-a-stm32mp-2.2.r2-r0/tf-a-stm32mp-2.2.r2/../build/trusted/bl32/gicv2_helpers.o
 .debug_ranges  0x00000000000017a8       0xc8 /home/ming/tf-a-stm32mp-2.2.r2-r0/tf-a-stm32mp-2.2.r2/../build/trusted/bl32/gicv2_main.o
 .debug_ranges  0x0000000000001870       0xb8 /home/ming/tf-a-stm32mp-2.2.r2-r0/tf-a-stm32mp-2.2.r2/../build/trusted/bl32/plat_gicv2.o
 .debug_ranges  0x0000000000001928       0x50 /home/ming/tf-a-stm32mp-2.2.r2-r0/tf-a-stm32mp-2.2.r2/../build/trusted/bl32/stm32_gic.o
 .debug_ranges  0x0000000000001978       0x10 /home/ming/tf-a-stm32mp-2.2.r2-r0/tf-a-stm32mp-2.2.r2/../build/trusted/bl32/plat_psci_common.o
 .debug_ranges  0x0000000000001988       0x28 /home/ming/tf-a-stm32mp-2.2.r2-r0/tf-a-stm32mp-2.2.r2/../build/trusted/bl32/bsec_svc.o
 .debug_ranges  0x00000000000019b0       0x10 /home/ming/tf-a-stm32mp-2.2.r2-r0/tf-a-stm32mp-2.2.r2/../build/trusted/bl32/low_power_svc.o
 .debug_ranges  0x00000000000019c0       0x60 /home/ming/tf-a-stm32mp-2.2.r2-r0/tf-a-stm32mp-2.2.r2/../build/trusted/bl32/pwr_svc.o
 .debug_ranges  0x0000000000001a20       0x38 /home/ming/tf-a-stm32mp-2.2.r2-r0/tf-a-stm32mp-2.2.r2/../build/trusted/bl32/rcc_svc.o
 .debug_ranges  0x0000000000001a58       0x18 /home/ming/tf-a-stm32mp-2.2.r2-r0/tf-a-stm32mp-2.2.r2/../build/trusted/bl32/stm32mp1_svc_setup.o
 .debug_ranges  0x0000000000001a70       0x60 /home/ming/tf-a-stm32mp-2.2.r2-r0/tf-a-stm32mp-2.2.r2/../build/trusted/bl32/base.o
 .debug_ranges  0x0000000000001ad0       0xe0 /home/ming/tf-a-stm32mp-2.2.r2-r0/tf-a-stm32mp-2.2.r2/../build/trusted/bl32/clock.o
 .debug_ranges  0x0000000000001bb0       0x20 /home/ming/tf-a-stm32mp-2.2.r2-r0/tf-a-stm32mp-2.2.r2/../build/trusted/bl32/entry.o
 .debug_ranges  0x0000000000001bd0       0x58 /home/ming/tf-a-stm32mp-2.2.r2-r0/tf-a-stm32mp-2.2.r2/../build/trusted/bl32/reset_domain.o
 .debug_ranges  0x0000000000001c28       0x40 /home/ming/tf-a-stm32mp-2.2.r2-r0/tf-a-stm32mp-2.2.r2/../build/trusted/bl32/smt.o
 .debug_ranges  0x0000000000001c68      0x1d0 /home/ming/tf-a-stm32mp-2.2.r2-r0/tf-a-stm32mp-2.2.r2/../build/trusted/bl32/stm32mp1_scmi.o
 .debug_ranges  0x0000000000001e38       0x18 /home/ming/tf-a-stm32mp-2.2.r2-r0/tf-a-stm32mp-2.2.r2/../build/trusted/bl32/tf_log.o
 .debug_ranges  0x0000000000001e50       0x90 /home/ming/tf-a-stm32mp-2.2.r2-r0/tf-a-stm32mp-2.2.r2/../build/trusted/bl32/multi_console.o
 .debug_ranges  0x0000000000001ee0       0x10 /home/ming/tf-a-stm32mp-2.2.r2-r0/tf-a-stm32mp-2.2.r2/../build/trusted/bl32/plat_log_common.o
 .debug_ranges  0x0000000000001ef0       0x10 /home/ming/tf-a-stm32mp-2.2.r2-r0/tf-a-stm32mp-2.2.r2/../build/trusted/bl32/plat_common.o
 .debug_ranges  0x0000000000001f00       0x10 /home/ming/tf-a-stm32mp-2.2.r2-r0/tf-a-stm32mp-2.2.r2/../build/trusted/bl32/ctzdi2.o
 .debug_ranges  0x0000000000001f10       0x28 /home/ming/tf-a-stm32mp-2.2.r2-r0/tf-a-stm32mp-2.2.r2/../build/trusted/bl32/udivmoddi4.o
 .debug_ranges  0x0000000000001f38       0xb8 /home/ming/tf-a-stm32mp-2.2.r2-r0/tf-a-stm32mp-2.2.r2/../build/trusted/bl32/stm32mp_common.o
 .debug_ranges  0x0000000000001ff0       0xc0 /home/ming/tf-a-stm32mp-2.2.r2-r0/tf-a-stm32mp-2.2.r2/../build/trusted/bl32/stm32mp1_private.o
 .debug_ranges  0x00000000000020b0       0x78 /home/ming/tf-a-stm32mp-2.2.r2-r0/tf-a-stm32mp-2.2.r2/../build/trusted/bl32/xlat_tables_arch.o
 .debug_ranges  0x0000000000002128       0x68 /home/ming/tf-a-stm32mp-2.2.r2-r0/tf-a-stm32mp-2.2.r2/../build/trusted/bl32/xlat_tables_context.o
 .debug_ranges  0x0000000000002190      0x298 /home/ming/tf-a-stm32mp-2.2.r2-r0/tf-a-stm32mp-2.2.r2/../build/trusted/bl32/xlat_tables_core.o
 .debug_ranges  0x0000000000002428       0xf8 /home/ming/tf-a-stm32mp-2.2.r2-r0/tf-a-stm32mp-2.2.r2/../build/trusted/bl32/xlat_tables_utils.o
 .debug_ranges  0x0000000000002520      0x138 /home/ming/tf-a-stm32mp-2.2.r2-r0/tf-a-stm32mp-2.2.r2/../build/trusted/bl32/tzc400.o
 .debug_ranges  0x0000000000002658       0x38 /home/ming/tf-a-stm32mp-2.2.r2-r0/tf-a-stm32mp-2.2.r2/../build/trusted/bl32/delay_timer.o
 .debug_ranges  0x0000000000002690       0x20 /home/ming/tf-a-stm32mp-2.2.r2-r0/tf-a-stm32mp-2.2.r2/../build/trusted/bl32/generic_delay_timer.o
 .debug_ranges  0x00000000000026b0      0x1a8 /home/ming/tf-a-stm32mp-2.2.r2-r0/tf-a-stm32mp-2.2.r2/../build/trusted/bl32/bsec2.o
 .debug_ranges  0x0000000000002858      0x150 /home/ming/tf-a-stm32mp-2.2.r2-r0/tf-a-stm32mp-2.2.r2/../build/trusted/bl32/stm32mp_clkfunc.o
 .debug_ranges  0x00000000000029a8      0x740 /home/ming/tf-a-stm32mp-2.2.r2-r0/tf-a-stm32mp-2.2.r2/../build/trusted/bl32/stm32mp1_clk.o
 .debug_ranges  0x00000000000030e8      0x1b0 /home/ming/tf-a-stm32mp-2.2.r2-r0/tf-a-stm32mp-2.2.r2/../build/trusted/bl32/stm32mp1_ddr_helpers.o
 .debug_ranges  0x0000000000003298      0x1c8 /home/ming/tf-a-stm32mp-2.2.r2-r0/tf-a-stm32mp-2.2.r2/../build/trusted/bl32/stm32_gpio.o
 .debug_ranges  0x0000000000003460      0x448 /home/ming/tf-a-stm32mp-2.2.r2-r0/tf-a-stm32mp-2.2.r2/../build/trusted/bl32/stm32_i2c.o
 .debug_ranges  0x00000000000038a8       0xa0 /home/ming/tf-a-stm32mp-2.2.r2-r0/tf-a-stm32mp-2.2.r2/../build/trusted/bl32/stm32_iwdg.o
 .debug_ranges  0x0000000000003948      0x170 /home/ming/tf-a-stm32mp-2.2.r2-r0/tf-a-stm32mp-2.2.r2/../build/trusted/bl32/stm32mp_pmic.o
 .debug_ranges  0x0000000000003ab8       0xb0 /home/ming/tf-a-stm32mp-2.2.r2-r0/tf-a-stm32mp-2.2.r2/../build/trusted/bl32/stpmic1.o
 .debug_ranges  0x0000000000003b68       0x98 /home/ming/tf-a-stm32mp-2.2.r2-r0/tf-a-stm32mp-2.2.r2/../build/trusted/bl32/stm32mp1_reset.o
 .debug_ranges  0x0000000000003c00      0x170 /home/ming/tf-a-stm32mp-2.2.r2-r0/tf-a-stm32mp-2.2.r2/../build/trusted/bl32/stm32mp_dt.o
 .debug_ranges  0x0000000000003d70       0x30 /home/ming/tf-a-stm32mp-2.2.r2-r0/tf-a-stm32mp-2.2.r2/../build/trusted/bl32/stm32mp_shres_helpers.o
 .debug_ranges  0x0000000000003da0       0xb8 /home/ming/tf-a-stm32mp-2.2.r2-r0/tf-a-stm32mp-2.2.r2/../build/trusted/bl32/stm32mp1_context.o
 .debug_ranges  0x0000000000003e58       0x58 /home/ming/tf-a-stm32mp-2.2.r2-r0/tf-a-stm32mp-2.2.r2/../build/trusted/bl32/stm32mp1_dbgmcu.o
 .debug_ranges  0x0000000000003eb0       0x48 /home/ming/tf-a-stm32mp-2.2.r2-r0/tf-a-stm32mp-2.2.r2/../build/trusted/bl32/stm32mp1_security.o
 .debug_ranges  0x0000000000003ef8       0xf0 /home/ming/tf-a-stm32mp-2.2.r2-r0/tf-a-stm32mp-2.2.r2/../build/trusted/bl32/stm32mp1_syscfg.o
 .debug_ranges  0x0000000000003fe8       0x40 /home/ming/tf-a-stm32mp-2.2.r2-r0/tf-a-stm32mp-2.2.r2/../build/trusted/bl32/entrypoint.o
 .debug_ranges  0x0000000000004028       0x20 /home/ming/tf-a-stm32mp-2.2.r2-r0/tf-a-stm32mp-2.2.r2/../build/trusted/bl32/cpu_data.o
 .debug_ranges  0x0000000000004048       0x50 /home/ming/tf-a-stm32mp-2.2.r2-r0/tf-a-stm32mp-2.2.r2/../build/trusted/bl32/cpu_helpers.o
 .debug_ranges  0x0000000000004098       0x20 /home/ming/tf-a-stm32mp-2.2.r2-r0/tf-a-stm32mp-2.2.r2/../build/trusted/bl32/spinlock.o
 .debug_ranges  0x00000000000040b8       0x30 /home/ming/tf-a-stm32mp-2.2.r2-r0/tf-a-stm32mp-2.2.r2/../build/trusted/bl32/psci_helpers.o
 .debug_ranges  0x00000000000040e8       0x20 /home/ming/tf-a-stm32mp-2.2.r2-r0/tf-a-stm32mp-2.2.r2/../build/trusted/bl32/platform_mp_stack.o
 .debug_ranges  0x0000000000004108       0x50 /home/ming/tf-a-stm32mp-2.2.r2-r0/tf-a-stm32mp-2.2.r2/../build/trusted/bl32/debug.o
 .debug_ranges  0x0000000000004158       0x58 /home/ming/tf-a-stm32mp-2.2.r2-r0/tf-a-stm32mp-2.2.r2/../build/trusted/bl32/cache_helpers.o
 .debug_ranges  0x00000000000041b0       0x38 /home/ming/tf-a-stm32mp-2.2.r2-r0/tf-a-stm32mp-2.2.r2/../build/trusted/bl32/misc_helpers.o
 .debug_ranges  0x00000000000041e8       0x58 /home/ming/tf-a-stm32mp-2.2.r2-r0/tf-a-stm32mp-2.2.r2/../build/trusted/bl32/platform_helpers.o
 .debug_ranges  0x0000000000004240       0x48 /home/ming/tf-a-stm32mp-2.2.r2-r0/tf-a-stm32mp-2.2.r2/../build/trusted/bl32/stm32_console.o
 .debug_ranges  0x0000000000004288       0x20 /home/ming/tf-a-stm32mp-2.2.r2-r0/tf-a-stm32mp-2.2.r2/../build/trusted/bl32/enable_mmu.o
 .debug_ranges  0x00000000000042a8       0x40 /home/ming/tf-a-stm32mp-2.2.r2-r0/tf-a-stm32mp-2.2.r2/../build/trusted/bl32/cortex_a7.o
 .debug_ranges  0x00000000000042e8       0x90 /home/ming/tf-a-stm32mp-2.2.r2-r0/tf-a-stm32mp-2.2.r2/../build/trusted/bl32/stm32mp1_helper.o
 .debug_ranges  0x0000000000004378       0x60 /home/ming/tf-a-stm32mp-2.2.r2-r0/tf-a-stm32mp-2.2.r2/../build/trusted/lib/libfdt.a(fdt.o)
 .debug_ranges  0x00000000000043d8       0x18 /home/ming/tf-a-stm32mp-2.2.r2-r0/tf-a-stm32mp-2.2.r2/../build/trusted/lib/libfdt.a(fdt_addresses.o)
 .debug_ranges  0x00000000000043f0      0x1f0 /home/ming/tf-a-stm32mp-2.2.r2-r0/tf-a-stm32mp-2.2.r2/../build/trusted/lib/libfdt.a(fdt_ro.o)
 .debug_ranges  0x00000000000045e0       0x10 /home/ming/tf-a-stm32mp-2.2.r2-r0/tf-a-stm32mp-2.2.r2/../build/trusted/lib/libc.a(assert.o)
 .debug_ranges  0x00000000000045f0       0x10 /home/ming/tf-a-stm32mp-2.2.r2-r0/tf-a-stm32mp-2.2.r2/../build/trusted/lib/libc.a(memchr.o)
 .debug_ranges  0x0000000000004600       0x10 /home/ming/tf-a-stm32mp-2.2.r2-r0/tf-a-stm32mp-2.2.r2/../build/trusted/lib/libc.a(memcmp.o)
 .debug_ranges  0x0000000000004610       0x10 /home/ming/tf-a-stm32mp-2.2.r2-r0/tf-a-stm32mp-2.2.r2/../build/trusted/lib/libc.a(memcpy.o)
 .debug_ranges  0x0000000000004620       0x28 /home/ming/tf-a-stm32mp-2.2.r2-r0/tf-a-stm32mp-2.2.r2/../build/trusted/lib/libc.a(memmove.o)
 .debug_ranges  0x0000000000004648       0x10 /home/ming/tf-a-stm32mp-2.2.r2-r0/tf-a-stm32mp-2.2.r2/../build/trusted/lib/libc.a(memset.o)
 .debug_ranges  0x0000000000004658       0x38 /home/ming/tf-a-stm32mp-2.2.r2-r0/tf-a-stm32mp-2.2.r2/../build/trusted/lib/libc.a(printf.o)
 .debug_ranges  0x0000000000004690       0x10 /home/ming/tf-a-stm32mp-2.2.r2-r0/tf-a-stm32mp-2.2.r2/../build/trusted/lib/libc.a(putchar.o)
 .debug_ranges  0x00000000000046a0       0x10 /home/ming/tf-a-stm32mp-2.2.r2-r0/tf-a-stm32mp-2.2.r2/../build/trusted/lib/libc.a(strchr.o)
 .debug_ranges  0x00000000000046b0       0x10 /home/ming/tf-a-stm32mp-2.2.r2-r0/tf-a-stm32mp-2.2.r2/../build/trusted/lib/libc.a(strcmp.o)
 .debug_ranges  0x00000000000046c0       0x10 /home/ming/tf-a-stm32mp-2.2.r2-r0/tf-a-stm32mp-2.2.r2/../build/trusted/lib/libc.a(strlcpy.o)
 .debug_ranges  0x00000000000046d0       0x10 /home/ming/tf-a-stm32mp-2.2.r2-r0/tf-a-stm32mp-2.2.r2/../build/trusted/lib/libc.a(strlen.o)
 .debug_ranges  0x00000000000046e0       0x10 /home/ming/tf-a-stm32mp-2.2.r2-r0/tf-a-stm32mp-2.2.r2/../build/trusted/lib/libc.a(strncmp.o)
 .debug_ranges  0x00000000000046f0       0x10 /home/ming/tf-a-stm32mp-2.2.r2-r0/tf-a-stm32mp-2.2.r2/../build/trusted/lib/libc.a(strnlen.o)
 .debug_ranges  0x0000000000004700       0x10 /home/ming/tf-a-stm32mp-2.2.r2-r0/tf-a-stm32mp-2.2.r2/../build/trusted/lib/libc.a(strrchr.o)

.debug_frame    0x0000000000000000     0x5d74
 .debug_frame   0x0000000000000000      0x130 /home/ming/tf-a-stm32mp-2.2.r2-r0/tf-a-stm32mp-2.2.r2/../build/trusted/bl32/sp_min_main.o
 .debug_frame   0x0000000000000130       0x5c /home/ming/tf-a-stm32mp-2.2.r2-r0/tf-a-stm32mp-2.2.r2/../build/trusted/bl32/runtime_svc.o
 .debug_frame   0x000000000000018c       0x20 /home/ming/tf-a-stm32mp-2.2.r2-r0/tf-a-stm32mp-2.2.r2/../build/trusted/bl32/plat_sp_min_common.o
 .debug_frame   0x00000000000001ac       0x4c /home/ming/tf-a-stm32mp-2.2.r2-r0/tf-a-stm32mp-2.2.r2/../build/trusted/bl32/std_svc_setup.o
 .debug_frame   0x00000000000001f8       0x94 /home/ming/tf-a-stm32mp-2.2.r2-r0/tf-a-stm32mp-2.2.r2/../build/trusted/bl32/context_mgmt.o
 .debug_frame   0x000000000000028c       0x48 /home/ming/tf-a-stm32mp-2.2.r2-r0/tf-a-stm32mp-2.2.r2/../build/trusted/bl32/errata_report.o
 .debug_frame   0x00000000000002d4       0x30 /home/ming/tf-a-stm32mp-2.2.r2-r0/tf-a-stm32mp-2.2.r2/../build/trusted/bl32/psci_off.o
 .debug_frame   0x0000000000000304       0x60 /home/ming/tf-a-stm32mp-2.2.r2-r0/tf-a-stm32mp-2.2.r2/../build/trusted/bl32/psci_on.o
 .debug_frame   0x0000000000000364       0x64 /home/ming/tf-a-stm32mp-2.2.r2-r0/tf-a-stm32mp-2.2.r2/../build/trusted/bl32/psci_suspend.o
 .debug_frame   0x00000000000003c8      0x25c /home/ming/tf-a-stm32mp-2.2.r2-r0/tf-a-stm32mp-2.2.r2/../build/trusted/bl32/psci_common.o
 .debug_frame   0x0000000000000624      0x1e0 /home/ming/tf-a-stm32mp-2.2.r2-r0/tf-a-stm32mp-2.2.r2/../build/trusted/bl32/psci_main.o
 .debug_frame   0x0000000000000804       0x74 /home/ming/tf-a-stm32mp-2.2.r2-r0/tf-a-stm32mp-2.2.r2/../build/trusted/bl32/psci_setup.o
 .debug_frame   0x0000000000000878       0x6c /home/ming/tf-a-stm32mp-2.2.r2-r0/tf-a-stm32mp-2.2.r2/../build/trusted/bl32/psci_system_off.o
 .debug_frame   0x00000000000008e4       0x48 /home/ming/tf-a-stm32mp-2.2.r2-r0/tf-a-stm32mp-2.2.r2/../build/trusted/bl32/psci_mem_protect.o
 .debug_frame   0x000000000000092c       0x4c /home/ming/tf-a-stm32mp-2.2.r2-r0/tf-a-stm32mp-2.2.r2/../build/trusted/bl32/bakery_lock_normal.o
 .debug_frame   0x0000000000000978      0x168 /home/ming/tf-a-stm32mp-2.2.r2-r0/tf-a-stm32mp-2.2.r2/../build/trusted/bl32/stm32mp1_calib.o
 .debug_frame   0x0000000000000ae0      0x118 /home/ming/tf-a-stm32mp-2.2.r2-r0/tf-a-stm32mp-2.2.r2/../build/trusted/bl32/etzpc.o
 .debug_frame   0x0000000000000bf8       0x58 /home/ming/tf-a-stm32mp-2.2.r2-r0/tf-a-stm32mp-2.2.r2/../build/trusted/bl32/stm32_rng.o
 .debug_frame   0x0000000000000c50      0x164 /home/ming/tf-a-stm32mp-2.2.r2-r0/tf-a-stm32mp-2.2.r2/../build/trusted/bl32/stm32_rtc.o
 .debug_frame   0x0000000000000db4       0xc4 /home/ming/tf-a-stm32mp-2.2.r2-r0/tf-a-stm32mp-2.2.r2/../build/trusted/bl32/stm32_tamp.o
 .debug_frame   0x0000000000000e78       0xc0 /home/ming/tf-a-stm32mp-2.2.r2-r0/tf-a-stm32mp-2.2.r2/../build/trusted/bl32/stm32_timer.o
 .debug_frame   0x0000000000000f38       0xd0 /home/ming/tf-a-stm32mp-2.2.r2-r0/tf-a-stm32mp-2.2.r2/../build/trusted/bl32/sp_min_setup.o
 .debug_frame   0x0000000000001008      0x10c /home/ming/tf-a-stm32mp-2.2.r2-r0/tf-a-stm32mp-2.2.r2/../build/trusted/bl32/stm32mp1_low_power.o
 .debug_frame   0x0000000000001114      0x138 /home/ming/tf-a-stm32mp-2.2.r2-r0/tf-a-stm32mp-2.2.r2/../build/trusted/bl32/stm32mp1_pm.o
 .debug_frame   0x000000000000124c       0x80 /home/ming/tf-a-stm32mp-2.2.r2-r0/tf-a-stm32mp-2.2.r2/../build/trusted/bl32/stm32mp1_power_config.o
 .debug_frame   0x00000000000012cc      0x1f4 /home/ming/tf-a-stm32mp-2.2.r2-r0/tf-a-stm32mp-2.2.r2/../build/trusted/bl32/stm32mp1_shared_resources.o
 .debug_frame   0x00000000000014c0       0x30 /home/ming/tf-a-stm32mp-2.2.r2-r0/tf-a-stm32mp-2.2.r2/../build/trusted/bl32/stm32mp1_topology.o
 .debug_frame   0x00000000000014f0      0x24c /home/ming/tf-a-stm32mp-2.2.r2-r0/tf-a-stm32mp-2.2.r2/../build/trusted/bl32/gic_common.o
 .debug_frame   0x000000000000173c       0xf4 /home/ming/tf-a-stm32mp-2.2.r2-r0/tf-a-stm32mp-2.2.r2/../build/trusted/bl32/gicv2_helpers.o
 .debug_frame   0x0000000000001830      0x288 /home/ming/tf-a-stm32mp-2.2.r2-r0/tf-a-stm32mp-2.2.r2/../build/trusted/bl32/gicv2_main.o
 .debug_frame   0x0000000000001ab8      0x1b4 /home/ming/tf-a-stm32mp-2.2.r2-r0/tf-a-stm32mp-2.2.r2/../build/trusted/bl32/plat_gicv2.o
 .debug_frame   0x0000000000001c6c       0xa8 /home/ming/tf-a-stm32mp-2.2.r2-r0/tf-a-stm32mp-2.2.r2/../build/trusted/bl32/stm32_gic.o
 .debug_frame   0x0000000000001d14       0x28 /home/ming/tf-a-stm32mp-2.2.r2-r0/tf-a-stm32mp-2.2.r2/../build/trusted/bl32/plat_psci_common.o
 .debug_frame   0x0000000000001d3c       0x34 /home/ming/tf-a-stm32mp-2.2.r2-r0/tf-a-stm32mp-2.2.r2/../build/trusted/bl32/bsec_svc.o
 .debug_frame   0x0000000000001d70       0x28 /home/ming/tf-a-stm32mp-2.2.r2-r0/tf-a-stm32mp-2.2.r2/../build/trusted/bl32/low_power_svc.o
 .debug_frame   0x0000000000001d98       0x34 /home/ming/tf-a-stm32mp-2.2.r2-r0/tf-a-stm32mp-2.2.r2/../build/trusted/bl32/pwr_svc.o
 .debug_frame   0x0000000000001dcc       0x6c /home/ming/tf-a-stm32mp-2.2.r2-r0/tf-a-stm32mp-2.2.r2/../build/trusted/bl32/rcc_svc.o
 .debug_frame   0x0000000000001e38       0x40 /home/ming/tf-a-stm32mp-2.2.r2-r0/tf-a-stm32mp-2.2.r2/../build/trusted/bl32/stm32mp1_svc_setup.o
 .debug_frame   0x0000000000001e78      0x104 /home/ming/tf-a-stm32mp-2.2.r2-r0/tf-a-stm32mp-2.2.r2/../build/trusted/bl32/base.o
 .debug_frame   0x0000000000001f7c      0x1f0 /home/ming/tf-a-stm32mp-2.2.r2-r0/tf-a-stm32mp-2.2.r2/../build/trusted/bl32/clock.o
 .debug_frame   0x000000000000216c       0x6c /home/ming/tf-a-stm32mp-2.2.r2-r0/tf-a-stm32mp-2.2.r2/../build/trusted/bl32/entry.o
 .debug_frame   0x00000000000021d8      0x100 /home/ming/tf-a-stm32mp-2.2.r2-r0/tf-a-stm32mp-2.2.r2/../build/trusted/bl32/reset_domain.o
 .debug_frame   0x00000000000022d8       0x90 /home/ming/tf-a-stm32mp-2.2.r2-r0/tf-a-stm32mp-2.2.r2/../build/trusted/bl32/smt.o
 .debug_frame   0x0000000000002368      0x268 /home/ming/tf-a-stm32mp-2.2.r2-r0/tf-a-stm32mp-2.2.r2/../build/trusted/bl32/stm32mp1_scmi.o
 .debug_frame   0x00000000000025d0       0x60 /home/ming/tf-a-stm32mp-2.2.r2-r0/tf-a-stm32mp-2.2.r2/../build/trusted/bl32/tf_log.o
 .debug_frame   0x0000000000002630       0xdc /home/ming/tf-a-stm32mp-2.2.r2-r0/tf-a-stm32mp-2.2.r2/../build/trusted/bl32/multi_console.o
 .debug_frame   0x000000000000270c       0x20 /home/ming/tf-a-stm32mp-2.2.r2-r0/tf-a-stm32mp-2.2.r2/../build/trusted/bl32/plat_log_common.o
 .debug_frame   0x000000000000272c       0x20 /home/ming/tf-a-stm32mp-2.2.r2-r0/tf-a-stm32mp-2.2.r2/../build/trusted/bl32/plat_common.o
 .debug_frame   0x000000000000274c       0x20 /home/ming/tf-a-stm32mp-2.2.r2-r0/tf-a-stm32mp-2.2.r2/../build/trusted/bl32/ctzdi2.o
 .debug_frame   0x000000000000276c       0x34 /home/ming/tf-a-stm32mp-2.2.r2-r0/tf-a-stm32mp-2.2.r2/../build/trusted/bl32/udivmoddi4.o
 .debug_frame   0x00000000000027a0      0x1ac /home/ming/tf-a-stm32mp-2.2.r2-r0/tf-a-stm32mp-2.2.r2/../build/trusted/bl32/stm32mp_common.o
 .debug_frame   0x000000000000294c      0x1f4 /home/ming/tf-a-stm32mp-2.2.r2-r0/tf-a-stm32mp-2.2.r2/../build/trusted/bl32/stm32mp1_private.o
 .debug_frame   0x0000000000002b40       0xf0 /home/ming/tf-a-stm32mp-2.2.r2-r0/tf-a-stm32mp-2.2.r2/../build/trusted/bl32/xlat_tables_arch.o
 .debug_frame   0x0000000000002c30      0x13c /home/ming/tf-a-stm32mp-2.2.r2-r0/tf-a-stm32mp-2.2.r2/../build/trusted/bl32/xlat_tables_context.o
 .debug_frame   0x0000000000002d6c      0x258 /home/ming/tf-a-stm32mp-2.2.r2-r0/tf-a-stm32mp-2.2.r2/../build/trusted/bl32/xlat_tables_core.o
 .debug_frame   0x0000000000002fc4       0xc8 /home/ming/tf-a-stm32mp-2.2.r2-r0/tf-a-stm32mp-2.2.r2/../build/trusted/bl32/xlat_tables_utils.o
 .debug_frame   0x000000000000308c      0x10c /home/ming/tf-a-stm32mp-2.2.r2-r0/tf-a-stm32mp-2.2.r2/../build/trusted/bl32/tzc400.o
 .debug_frame   0x0000000000003198       0x54 /home/ming/tf-a-stm32mp-2.2.r2-r0/tf-a-stm32mp-2.2.r2/../build/trusted/bl32/delay_timer.o
 .debug_frame   0x00000000000031ec       0x58 /home/ming/tf-a-stm32mp-2.2.r2-r0/tf-a-stm32mp-2.2.r2/../build/trusted/bl32/generic_delay_timer.o
 .debug_frame   0x0000000000003244      0x358 /home/ming/tf-a-stm32mp-2.2.r2-r0/tf-a-stm32mp-2.2.r2/../build/trusted/bl32/bsec2.o
 .debug_frame   0x000000000000359c      0x228 /home/ming/tf-a-stm32mp-2.2.r2-r0/tf-a-stm32mp-2.2.r2/../build/trusted/bl32/stm32mp_clkfunc.o
 .debug_frame   0x00000000000037c4      0x678 /home/ming/tf-a-stm32mp-2.2.r2-r0/tf-a-stm32mp-2.2.r2/../build/trusted/bl32/stm32mp1_clk.o
 .debug_frame   0x0000000000003e3c      0x138 /home/ming/tf-a-stm32mp-2.2.r2-r0/tf-a-stm32mp-2.2.r2/../build/trusted/bl32/stm32mp1_ddr_helpers.o
 .debug_frame   0x0000000000003f74       0xc4 /home/ming/tf-a-stm32mp-2.2.r2-r0/tf-a-stm32mp-2.2.r2/../build/trusted/bl32/stm32_gpio.o
 .debug_frame   0x0000000000004038      0x1fc /home/ming/tf-a-stm32mp-2.2.r2-r0/tf-a-stm32mp-2.2.r2/../build/trusted/bl32/stm32_i2c.o
 .debug_frame   0x0000000000004234       0x78 /home/ming/tf-a-stm32mp-2.2.r2-r0/tf-a-stm32mp-2.2.r2/../build/trusted/bl32/stm32_iwdg.o
 .debug_frame   0x00000000000042ac      0x20c /home/ming/tf-a-stm32mp-2.2.r2-r0/tf-a-stm32mp-2.2.r2/../build/trusted/bl32/stm32mp_pmic.o
 .debug_frame   0x00000000000044b8      0x254 /home/ming/tf-a-stm32mp-2.2.r2-r0/tf-a-stm32mp-2.2.r2/../build/trusted/bl32/stpmic1.o
 .debug_frame   0x000000000000470c       0x80 /home/ming/tf-a-stm32mp-2.2.r2-r0/tf-a-stm32mp-2.2.r2/../build/trusted/bl32/stm32mp1_reset.o
 .debug_frame   0x000000000000478c      0x344 /home/ming/tf-a-stm32mp-2.2.r2-r0/tf-a-stm32mp-2.2.r2/../build/trusted/bl32/stm32mp_dt.o
 .debug_frame   0x0000000000004ad0       0xbc /home/ming/tf-a-stm32mp-2.2.r2-r0/tf-a-stm32mp-2.2.r2/../build/trusted/bl32/stm32mp_shres_helpers.o
 .debug_frame   0x0000000000004b8c      0x18c /home/ming/tf-a-stm32mp-2.2.r2-r0/tf-a-stm32mp-2.2.r2/../build/trusted/bl32/stm32mp1_context.o
 .debug_frame   0x0000000000004d18       0x70 /home/ming/tf-a-stm32mp-2.2.r2-r0/tf-a-stm32mp-2.2.r2/../build/trusted/bl32/stm32mp1_dbgmcu.o
 .debug_frame   0x0000000000004d88       0x4c /home/ming/tf-a-stm32mp-2.2.r2-r0/tf-a-stm32mp-2.2.r2/../build/trusted/bl32/stm32mp1_security.o
 .debug_frame   0x0000000000004dd4       0x60 /home/ming/tf-a-stm32mp-2.2.r2-r0/tf-a-stm32mp-2.2.r2/../build/trusted/bl32/stm32mp1_syscfg.o
 .debug_frame   0x0000000000004e34       0x60 /home/ming/tf-a-stm32mp-2.2.r2-r0/tf-a-stm32mp-2.2.r2/../build/trusted/bl32/entrypoint.o
 .debug_frame   0x0000000000004e94       0x30 /home/ming/tf-a-stm32mp-2.2.r2-r0/tf-a-stm32mp-2.2.r2/../build/trusted/bl32/cpu_data.o
 .debug_frame   0x0000000000004ec4       0x90 /home/ming/tf-a-stm32mp-2.2.r2-r0/tf-a-stm32mp-2.2.r2/../build/trusted/bl32/cpu_helpers.o
 .debug_frame   0x0000000000004f54       0x30 /home/ming/tf-a-stm32mp-2.2.r2-r0/tf-a-stm32mp-2.2.r2/../build/trusted/bl32/spinlock.o
 .debug_frame   0x0000000000004f84       0x50 /home/ming/tf-a-stm32mp-2.2.r2-r0/tf-a-stm32mp-2.2.r2/../build/trusted/bl32/psci_helpers.o
 .debug_frame   0x0000000000004fd4       0x30 /home/ming/tf-a-stm32mp-2.2.r2-r0/tf-a-stm32mp-2.2.r2/../build/trusted/bl32/platform_mp_stack.o
 .debug_frame   0x0000000000005004       0x90 /home/ming/tf-a-stm32mp-2.2.r2-r0/tf-a-stm32mp-2.2.r2/../build/trusted/bl32/debug.o
 .debug_frame   0x0000000000005094       0xa0 /home/ming/tf-a-stm32mp-2.2.r2-r0/tf-a-stm32mp-2.2.r2/../build/trusted/bl32/cache_helpers.o
 .debug_frame   0x0000000000005134       0x60 /home/ming/tf-a-stm32mp-2.2.r2-r0/tf-a-stm32mp-2.2.r2/../build/trusted/bl32/misc_helpers.o
 .debug_frame   0x0000000000005194       0xa0 /home/ming/tf-a-stm32mp-2.2.r2-r0/tf-a-stm32mp-2.2.r2/../build/trusted/bl32/platform_helpers.o
 .debug_frame   0x0000000000005234       0x80 /home/ming/tf-a-stm32mp-2.2.r2-r0/tf-a-stm32mp-2.2.r2/../build/trusted/bl32/stm32_console.o
 .debug_frame   0x00000000000052b4       0x30 /home/ming/tf-a-stm32mp-2.2.r2-r0/tf-a-stm32mp-2.2.r2/../build/trusted/bl32/enable_mmu.o
 .debug_frame   0x00000000000052e4       0x70 /home/ming/tf-a-stm32mp-2.2.r2-r0/tf-a-stm32mp-2.2.r2/../build/trusted/bl32/cortex_a7.o
 .debug_frame   0x0000000000005354      0x110 /home/ming/tf-a-stm32mp-2.2.r2-r0/tf-a-stm32mp-2.2.r2/../build/trusted/bl32/stm32mp1_helper.o
 .debug_frame   0x0000000000005464      0x14c /home/ming/tf-a-stm32mp-2.2.r2-r0/tf-a-stm32mp-2.2.r2/../build/trusted/lib/libfdt.a(fdt.o)
 .debug_frame   0x00000000000055b0       0x48 /home/ming/tf-a-stm32mp-2.2.r2-r0/tf-a-stm32mp-2.2.r2/../build/trusted/lib/libfdt.a(fdt_addresses.o)
 .debug_frame   0x00000000000055f8      0x4c4 /home/ming/tf-a-stm32mp-2.2.r2-r0/tf-a-stm32mp-2.2.r2/../build/trusted/lib/libfdt.a(fdt_ro.o)
 .debug_frame   0x0000000000005abc       0x28 /home/ming/tf-a-stm32mp-2.2.r2-r0/tf-a-stm32mp-2.2.r2/../build/trusted/lib/libc.a(assert.o)
 .debug_frame   0x0000000000005ae4       0x28 /home/ming/tf-a-stm32mp-2.2.r2-r0/tf-a-stm32mp-2.2.r2/../build/trusted/lib/libc.a(memchr.o)
 .debug_frame   0x0000000000005b0c       0x28 /home/ming/tf-a-stm32mp-2.2.r2-r0/tf-a-stm32mp-2.2.r2/../build/trusted/lib/libc.a(memcmp.o)
 .debug_frame   0x0000000000005b34       0x28 /home/ming/tf-a-stm32mp-2.2.r2-r0/tf-a-stm32mp-2.2.r2/../build/trusted/lib/libc.a(memcpy.o)
 .debug_frame   0x0000000000005b5c       0x3c /home/ming/tf-a-stm32mp-2.2.r2-r0/tf-a-stm32mp-2.2.r2/../build/trusted/lib/libc.a(memmove.o)
 .debug_frame   0x0000000000005b98       0x20 /home/ming/tf-a-stm32mp-2.2.r2-r0/tf-a-stm32mp-2.2.r2/../build/trusted/lib/libc.a(memset.o)
 .debug_frame   0x0000000000005bb8       0x98 /home/ming/tf-a-stm32mp-2.2.r2-r0/tf-a-stm32mp-2.2.r2/../build/trusted/lib/libc.a(printf.o)
 .debug_frame   0x0000000000005c50       0x28 /home/ming/tf-a-stm32mp-2.2.r2-r0/tf-a-stm32mp-2.2.r2/../build/trusted/lib/libc.a(putchar.o)
 .debug_frame   0x0000000000005c78       0x20 /home/ming/tf-a-stm32mp-2.2.r2-r0/tf-a-stm32mp-2.2.r2/../build/trusted/lib/libc.a(strchr.o)
 .debug_frame   0x0000000000005c98       0x20 /home/ming/tf-a-stm32mp-2.2.r2-r0/tf-a-stm32mp-2.2.r2/../build/trusted/lib/libc.a(strcmp.o)
 .debug_frame   0x0000000000005cb8       0x2c /home/ming/tf-a-stm32mp-2.2.r2-r0/tf-a-stm32mp-2.2.r2/../build/trusted/lib/libc.a(strlcpy.o)
 .debug_frame   0x0000000000005ce4       0x20 /home/ming/tf-a-stm32mp-2.2.r2-r0/tf-a-stm32mp-2.2.r2/../build/trusted/lib/libc.a(strlen.o)
 .debug_frame   0x0000000000005d04       0x28 /home/ming/tf-a-stm32mp-2.2.r2-r0/tf-a-stm32mp-2.2.r2/../build/trusted/lib/libc.a(strncmp.o)
 .debug_frame   0x0000000000005d2c       0x20 /home/ming/tf-a-stm32mp-2.2.r2-r0/tf-a-stm32mp-2.2.r2/../build/trusted/lib/libc.a(strnlen.o)
 .debug_frame   0x0000000000005d4c       0x28 /home/ming/tf-a-stm32mp-2.2.r2-r0/tf-a-stm32mp-2.2.r2/../build/trusted/lib/libc.a(strrchr.o)
