Archive member included to satisfy reference by file (symbol)

/home/ming/tf-a-stm32mp-2.2.r2-r0/tf-a-stm32mp-2.2.r2/../build/trusted/lib/libfdt.a(fdt.o)
                              /home/ming/tf-a-stm32mp-2.2.r2-r0/tf-a-stm32mp-2.2.r2/../build/trusted/bl2/stm32mp_dt.o (fdt_check_header)
/home/ming/tf-a-stm32mp-2.2.r2-r0/tf-a-stm32mp-2.2.r2/../build/trusted/lib/libfdt.a(fdt_addresses.o)
                              /home/ming/tf-a-stm32mp-2.2.r2-r0/tf-a-stm32mp-2.2.r2/../build/trusted/bl2/stm32mp_dt.o (fdt_address_cells)
/home/ming/tf-a-stm32mp-2.2.r2-r0/tf-a-stm32mp-2.2.r2/../build/trusted/lib/libfdt.a(fdt_ro.o)
                              /home/ming/tf-a-stm32mp-2.2.r2-r0/tf-a-stm32mp-2.2.r2/../build/trusted/bl2/stm32mp_clkfunc.o (fdt_get_name)
/home/ming/tf-a-stm32mp-2.2.r2-r0/tf-a-stm32mp-2.2.r2/../build/trusted/lib/libc.a(assert.o)
                              /home/ming/tf-a-stm32mp-2.2.r2-r0/tf-a-stm32mp-2.2.r2/../build/trusted/bl2/io_block.o (__assert)
/home/ming/tf-a-stm32mp-2.2.r2-r0/tf-a-stm32mp-2.2.r2/../build/trusted/lib/libc.a(memchr.o)
                              /home/ming/tf-a-stm32mp-2.2.r2-r0/tf-a-stm32mp-2.2.r2/../build/trusted/lib/libfdt.a(fdt_ro.o) (memchr)
/home/ming/tf-a-stm32mp-2.2.r2-r0/tf-a-stm32mp-2.2.r2/../build/trusted/lib/libc.a(memcmp.o)
                              /home/ming/tf-a-stm32mp-2.2.r2-r0/tf-a-stm32mp-2.2.r2/../build/trusted/bl2/stm32mp_crypto_lib.o (memcmp)
/home/ming/tf-a-stm32mp-2.2.r2-r0/tf-a-stm32mp-2.2.r2/../build/trusted/lib/libc.a(memcpy.o)
                              /home/ming/tf-a-stm32mp-2.2.r2-r0/tf-a-stm32mp-2.2.r2/../build/trusted/bl2/io_block.o (memcpy)
/home/ming/tf-a-stm32mp-2.2.r2-r0/tf-a-stm32mp-2.2.r2/../build/trusted/lib/libc.a(memmove.o)
                              /home/ming/tf-a-stm32mp-2.2.r2-r0/tf-a-stm32mp-2.2.r2/../build/trusted/bl2/xlat_tables_core.o (memmove)
/home/ming/tf-a-stm32mp-2.2.r2-r0/tf-a-stm32mp-2.2.r2/../build/trusted/lib/libc.a(memset.o)
                              /home/ming/tf-a-stm32mp-2.2.r2-r0/tf-a-stm32mp-2.2.r2/../build/trusted/bl2/stm32_fmc2_nand.o (memset)
/home/ming/tf-a-stm32mp-2.2.r2-r0/tf-a-stm32mp-2.2.r2/../build/trusted/lib/libc.a(printf.o)
                              /home/ming/tf-a-stm32mp-2.2.r2-r0/tf-a-stm32mp-2.2.r2/../build/trusted/bl2/tf_log.o (vprintf)
/home/ming/tf-a-stm32mp-2.2.r2-r0/tf-a-stm32mp-2.2.r2/../build/trusted/lib/libc.a(putchar.o)
                              /home/ming/tf-a-stm32mp-2.2.r2-r0/tf-a-stm32mp-2.2.r2/../build/trusted/bl2/tf_log.o (putchar)
/home/ming/tf-a-stm32mp-2.2.r2-r0/tf-a-stm32mp-2.2.r2/../build/trusted/lib/libc.a(snprintf.o)
                              /home/ming/tf-a-stm32mp-2.2.r2-r0/tf-a-stm32mp-2.2.r2/../build/trusted/bl2/stm32mp1_clk.o (snprintf)
/home/ming/tf-a-stm32mp-2.2.r2-r0/tf-a-stm32mp-2.2.r2/../build/trusted/lib/libc.a(strchr.o)
                              /home/ming/tf-a-stm32mp-2.2.r2-r0/tf-a-stm32mp-2.2.r2/../build/trusted/bl2/stm32mp_dt.o (strchr)
/home/ming/tf-a-stm32mp-2.2.r2-r0/tf-a-stm32mp-2.2.r2/../build/trusted/lib/libc.a(strcmp.o)
                              /home/ming/tf-a-stm32mp-2.2.r2-r0/tf-a-stm32mp-2.2.r2/../build/trusted/bl2/partition.o (strcmp)
/home/ming/tf-a-stm32mp-2.2.r2-r0/tf-a-stm32mp-2.2.r2/../build/trusted/lib/libc.a(strlen.o)
                              /home/ming/tf-a-stm32mp-2.2.r2-r0/tf-a-stm32mp-2.2.r2/../build/trusted/bl2/stpmic1.o (strlen)
/home/ming/tf-a-stm32mp-2.2.r2-r0/tf-a-stm32mp-2.2.r2/../build/trusted/lib/libc.a(strncmp.o)
                              /home/ming/tf-a-stm32mp-2.2.r2-r0/tf-a-stm32mp-2.2.r2/../build/trusted/bl2/raw_nand.o (strncmp)
/home/ming/tf-a-stm32mp-2.2.r2-r0/tf-a-stm32mp-2.2.r2/../build/trusted/lib/libc.a(strnlen.o)
                              /home/ming/tf-a-stm32mp-2.2.r2-r0/tf-a-stm32mp-2.2.r2/../build/trusted/lib/libfdt.a(fdt_ro.o) (strnlen)
/home/ming/tf-a-stm32mp-2.2.r2-r0/tf-a-stm32mp-2.2.r2/../build/trusted/lib/libc.a(strrchr.o)
                              /home/ming/tf-a-stm32mp-2.2.r2-r0/tf-a-stm32mp-2.2.r2/../build/trusted/lib/libfdt.a(fdt_ro.o) (strrchr)

Allocating common symbols
Common symbol       size              file

mmu_cfg_params      0x18              /home/ming/tf-a-stm32mp-2.2.r2-r0/tf-a-stm32mp-2.2.r2/../build/trusted/bl2/xlat_tables_context.o
auth_img_flags      0x78              /home/ming/tf-a-stm32mp-2.2.r2-r0/tf-a-stm32mp-2.2.r2/../build/trusted/bl2/stm32mp_cot.o
console_list        0x4               /home/ming/tf-a-stm32mp-2.2.r2-r0/tf-a-stm32mp-2.2.r2/../build/trusted/bl2/multi_console.o

Discarded input sections

 .text          0x0000000000000000        0x0 /home/ming/tf-a-stm32mp-2.2.r2-r0/tf-a-stm32mp-2.2.r2/../build/trusted/bl2/build_message.o
 .data          0x0000000000000000        0x0 /home/ming/tf-a-stm32mp-2.2.r2-r0/tf-a-stm32mp-2.2.r2/../build/trusted/bl2/build_message.o
 .bss           0x0000000000000000        0x0 /home/ming/tf-a-stm32mp-2.2.r2-r0/tf-a-stm32mp-2.2.r2/../build/trusted/bl2/build_message.o
 .text          0x0000000000000000        0x0 /home/ming/tf-a-stm32mp-2.2.r2-r0/tf-a-stm32mp-2.2.r2/../build/trusted/bl2/io_block.o
 .data          0x0000000000000000        0x0 /home/ming/tf-a-stm32mp-2.2.r2-r0/tf-a-stm32mp-2.2.r2/../build/trusted/bl2/io_block.o
 .bss           0x0000000000000000        0x0 /home/ming/tf-a-stm32mp-2.2.r2-r0/tf-a-stm32mp-2.2.r2/../build/trusted/bl2/io_block.o
 .text          0x0000000000000000        0x0 /home/ming/tf-a-stm32mp-2.2.r2-r0/tf-a-stm32mp-2.2.r2/../build/trusted/bl2/io_dummy.o
 .data          0x0000000000000000        0x0 /home/ming/tf-a-stm32mp-2.2.r2-r0/tf-a-stm32mp-2.2.r2/../build/trusted/bl2/io_dummy.o
 .bss           0x0000000000000000        0x0 /home/ming/tf-a-stm32mp-2.2.r2-r0/tf-a-stm32mp-2.2.r2/../build/trusted/bl2/io_dummy.o
 .text          0x0000000000000000        0x0 /home/ming/tf-a-stm32mp-2.2.r2-r0/tf-a-stm32mp-2.2.r2/../build/trusted/bl2/io_mtd.o
 .data          0x0000000000000000        0x0 /home/ming/tf-a-stm32mp-2.2.r2-r0/tf-a-stm32mp-2.2.r2/../build/trusted/bl2/io_mtd.o
 .bss           0x0000000000000000        0x0 /home/ming/tf-a-stm32mp-2.2.r2-r0/tf-a-stm32mp-2.2.r2/../build/trusted/bl2/io_mtd.o
 .text          0x0000000000000000        0x0 /home/ming/tf-a-stm32mp-2.2.r2-r0/tf-a-stm32mp-2.2.r2/../build/trusted/bl2/io_storage.o
 .data          0x0000000000000000        0x0 /home/ming/tf-a-stm32mp-2.2.r2-r0/tf-a-stm32mp-2.2.r2/../build/trusted/bl2/io_storage.o
 .bss           0x0000000000000000        0x0 /home/ming/tf-a-stm32mp-2.2.r2-r0/tf-a-stm32mp-2.2.r2/../build/trusted/bl2/io_storage.o
 .text.io_write
                0x0000000000000000       0x40 /home/ming/tf-a-stm32mp-2.2.r2-r0/tf-a-stm32mp-2.2.r2/../build/trusted/bl2/io_storage.o
 .text          0x0000000000000000        0x0 /home/ming/tf-a-stm32mp-2.2.r2-r0/tf-a-stm32mp-2.2.r2/../build/trusted/bl2/stm32_hash.o
 .data          0x0000000000000000        0x0 /home/ming/tf-a-stm32mp-2.2.r2-r0/tf-a-stm32mp-2.2.r2/../build/trusted/bl2/stm32_hash.o
 .bss           0x0000000000000000        0x0 /home/ming/tf-a-stm32mp-2.2.r2-r0/tf-a-stm32mp-2.2.r2/../build/trusted/bl2/stm32_hash.o
 .text          0x0000000000000000        0x0 /home/ming/tf-a-stm32mp-2.2.r2-r0/tf-a-stm32mp-2.2.r2/../build/trusted/bl2/io_stm32image.o
 .data          0x0000000000000000        0x0 /home/ming/tf-a-stm32mp-2.2.r2-r0/tf-a-stm32mp-2.2.r2/../build/trusted/bl2/io_stm32image.o
 .bss           0x0000000000000000        0x0 /home/ming/tf-a-stm32mp-2.2.r2-r0/tf-a-stm32mp-2.2.r2/../build/trusted/bl2/io_stm32image.o
 .text          0x0000000000000000        0x0 /home/ming/tf-a-stm32mp-2.2.r2-r0/tf-a-stm32mp-2.2.r2/../build/trusted/bl2/bl2_io_storage.o
 .data          0x0000000000000000        0x0 /home/ming/tf-a-stm32mp-2.2.r2-r0/tf-a-stm32mp-2.2.r2/../build/trusted/bl2/bl2_io_storage.o
 .bss           0x0000000000000000        0x0 /home/ming/tf-a-stm32mp-2.2.r2-r0/tf-a-stm32mp-2.2.r2/../build/trusted/bl2/bl2_io_storage.o
 .text          0x0000000000000000        0x0 /home/ming/tf-a-stm32mp-2.2.r2-r0/tf-a-stm32mp-2.2.r2/../build/trusted/bl2/bl2_plat_setup.o
 .data          0x0000000000000000        0x0 /home/ming/tf-a-stm32mp-2.2.r2-r0/tf-a-stm32mp-2.2.r2/../build/trusted/bl2/bl2_plat_setup.o
 .bss           0x0000000000000000        0x0 /home/ming/tf-a-stm32mp-2.2.r2-r0/tf-a-stm32mp-2.2.r2/../build/trusted/bl2/bl2_plat_setup.o
 .text          0x0000000000000000        0x0 /home/ming/tf-a-stm32mp-2.2.r2-r0/tf-a-stm32mp-2.2.r2/../build/trusted/bl2/auth_mod.o
 .data          0x0000000000000000        0x0 /home/ming/tf-a-stm32mp-2.2.r2-r0/tf-a-stm32mp-2.2.r2/../build/trusted/bl2/auth_mod.o
 .bss           0x0000000000000000        0x0 /home/ming/tf-a-stm32mp-2.2.r2-r0/tf-a-stm32mp-2.2.r2/../build/trusted/bl2/auth_mod.o
 .text          0x0000000000000000        0x0 /home/ming/tf-a-stm32mp-2.2.r2-r0/tf-a-stm32mp-2.2.r2/../build/trusted/bl2/crypto_mod.o
 .data          0x0000000000000000        0x0 /home/ming/tf-a-stm32mp-2.2.r2-r0/tf-a-stm32mp-2.2.r2/../build/trusted/bl2/crypto_mod.o
 .bss           0x0000000000000000        0x0 /home/ming/tf-a-stm32mp-2.2.r2-r0/tf-a-stm32mp-2.2.r2/../build/trusted/bl2/crypto_mod.o
 .text          0x0000000000000000        0x0 /home/ming/tf-a-stm32mp-2.2.r2-r0/tf-a-stm32mp-2.2.r2/../build/trusted/bl2/img_parser_mod.o
 .data          0x0000000000000000        0x0 /home/ming/tf-a-stm32mp-2.2.r2-r0/tf-a-stm32mp-2.2.r2/../build/trusted/bl2/img_parser_mod.o
 .bss           0x0000000000000000        0x0 /home/ming/tf-a-stm32mp-2.2.r2-r0/tf-a-stm32mp-2.2.r2/../build/trusted/bl2/img_parser_mod.o
 .text          0x0000000000000000        0x0 /home/ming/tf-a-stm32mp-2.2.r2-r0/tf-a-stm32mp-2.2.r2/../build/trusted/bl2/stm32mp_cot.o
 .data          0x0000000000000000        0x0 /home/ming/tf-a-stm32mp-2.2.r2-r0/tf-a-stm32mp-2.2.r2/../build/trusted/bl2/stm32mp_cot.o
 .bss           0x0000000000000000        0x0 /home/ming/tf-a-stm32mp-2.2.r2-r0/tf-a-stm32mp-2.2.r2/../build/trusted/bl2/stm32mp_cot.o
 .text          0x0000000000000000        0x0 /home/ming/tf-a-stm32mp-2.2.r2-r0/tf-a-stm32mp-2.2.r2/../build/trusted/bl2/stm32mp_crypto_lib.o
 .data          0x0000000000000000        0x0 /home/ming/tf-a-stm32mp-2.2.r2-r0/tf-a-stm32mp-2.2.r2/../build/trusted/bl2/stm32mp_crypto_lib.o
 .bss           0x0000000000000000        0x0 /home/ming/tf-a-stm32mp-2.2.r2-r0/tf-a-stm32mp-2.2.r2/../build/trusted/bl2/stm32mp_crypto_lib.o
 .text          0x0000000000000000        0x0 /home/ming/tf-a-stm32mp-2.2.r2-r0/tf-a-stm32mp-2.2.r2/../build/trusted/bl2/stm32mp_img_parser_lib.o
 .data          0x0000000000000000        0x0 /home/ming/tf-a-stm32mp-2.2.r2-r0/tf-a-stm32mp-2.2.r2/../build/trusted/bl2/stm32mp_img_parser_lib.o
 .bss           0x0000000000000000        0x0 /home/ming/tf-a-stm32mp-2.2.r2-r0/tf-a-stm32mp-2.2.r2/../build/trusted/bl2/stm32mp_img_parser_lib.o
 .text          0x0000000000000000        0x0 /home/ming/tf-a-stm32mp-2.2.r2-r0/tf-a-stm32mp-2.2.r2/../build/trusted/bl2/stm32mp_trusted_boot.o
 .data          0x0000000000000000        0x0 /home/ming/tf-a-stm32mp-2.2.r2-r0/tf-a-stm32mp-2.2.r2/../build/trusted/bl2/stm32mp_trusted_boot.o
 .bss           0x0000000000000000        0x0 /home/ming/tf-a-stm32mp-2.2.r2-r0/tf-a-stm32mp-2.2.r2/../build/trusted/bl2/stm32mp_trusted_boot.o
 .text          0x0000000000000000        0x0 /home/ming/tf-a-stm32mp-2.2.r2-r0/tf-a-stm32mp-2.2.r2/../build/trusted/bl2/mmc.o
 .data          0x0000000000000000        0x0 /home/ming/tf-a-stm32mp-2.2.r2-r0/tf-a-stm32mp-2.2.r2/../build/trusted/bl2/mmc.o
 .bss           0x0000000000000000        0x0 /home/ming/tf-a-stm32mp-2.2.r2-r0/tf-a-stm32mp-2.2.r2/../build/trusted/bl2/mmc.o
 .text.mmc_write_blocks
                0x0000000000000000       0xc8 /home/ming/tf-a-stm32mp-2.2.r2-r0/tf-a-stm32mp-2.2.r2/../build/trusted/bl2/mmc.o
 .text.mmc_erase_blocks
                0x0000000000000000       0x6c /home/ming/tf-a-stm32mp-2.2.r2-r0/tf-a-stm32mp-2.2.r2/../build/trusted/bl2/mmc.o
 .text.mmc_rpmb_read_blocks
                0x0000000000000000       0x28 /home/ming/tf-a-stm32mp-2.2.r2-r0/tf-a-stm32mp-2.2.r2/../build/trusted/bl2/mmc.o
 .text.mmc_rpmb_write_blocks
                0x0000000000000000       0x28 /home/ming/tf-a-stm32mp-2.2.r2-r0/tf-a-stm32mp-2.2.r2/../build/trusted/bl2/mmc.o
 .text.mmc_rpmb_erase_blocks
                0x0000000000000000       0x24 /home/ming/tf-a-stm32mp-2.2.r2-r0/tf-a-stm32mp-2.2.r2/../build/trusted/bl2/mmc.o
 .text          0x0000000000000000        0x0 /home/ming/tf-a-stm32mp-2.2.r2-r0/tf-a-stm32mp-2.2.r2/../build/trusted/bl2/gpt.o
 .data          0x0000000000000000        0x0 /home/ming/tf-a-stm32mp-2.2.r2-r0/tf-a-stm32mp-2.2.r2/../build/trusted/bl2/gpt.o
 .bss           0x0000000000000000        0x0 /home/ming/tf-a-stm32mp-2.2.r2-r0/tf-a-stm32mp-2.2.r2/../build/trusted/bl2/gpt.o
 .text          0x0000000000000000        0x0 /home/ming/tf-a-stm32mp-2.2.r2-r0/tf-a-stm32mp-2.2.r2/../build/trusted/bl2/partition.o
 .data          0x0000000000000000        0x0 /home/ming/tf-a-stm32mp-2.2.r2-r0/tf-a-stm32mp-2.2.r2/../build/trusted/bl2/partition.o
 .bss           0x0000000000000000        0x0 /home/ming/tf-a-stm32mp-2.2.r2-r0/tf-a-stm32mp-2.2.r2/../build/trusted/bl2/partition.o
 .text.get_partition_entry_list
                0x0000000000000000        0x8 /home/ming/tf-a-stm32mp-2.2.r2-r0/tf-a-stm32mp-2.2.r2/../build/trusted/bl2/partition.o
 .text          0x0000000000000000        0x0 /home/ming/tf-a-stm32mp-2.2.r2-r0/tf-a-stm32mp-2.2.r2/../build/trusted/bl2/io_mmc.o
 .data          0x0000000000000000        0x0 /home/ming/tf-a-stm32mp-2.2.r2-r0/tf-a-stm32mp-2.2.r2/../build/trusted/bl2/io_mmc.o
 .bss           0x0000000000000000        0x0 /home/ming/tf-a-stm32mp-2.2.r2-r0/tf-a-stm32mp-2.2.r2/../build/trusted/bl2/io_mmc.o
 .text          0x0000000000000000        0x0 /home/ming/tf-a-stm32mp-2.2.r2-r0/tf-a-stm32mp-2.2.r2/../build/trusted/bl2/stm32_sdmmc2.o
 .data          0x0000000000000000        0x0 /home/ming/tf-a-stm32mp-2.2.r2-r0/tf-a-stm32mp-2.2.r2/../build/trusted/bl2/stm32_sdmmc2.o
 .bss           0x0000000000000000        0x0 /home/ming/tf-a-stm32mp-2.2.r2-r0/tf-a-stm32mp-2.2.r2/../build/trusted/bl2/stm32_sdmmc2.o
 .text          0x0000000000000000        0x0 /home/ming/tf-a-stm32mp-2.2.r2-r0/tf-a-stm32mp-2.2.r2/../build/trusted/bl2/raw_nand.o
 .data          0x0000000000000000        0x0 /home/ming/tf-a-stm32mp-2.2.r2-r0/tf-a-stm32mp-2.2.r2/../build/trusted/bl2/raw_nand.o
 .bss           0x0000000000000000        0x0 /home/ming/tf-a-stm32mp-2.2.r2-r0/tf-a-stm32mp-2.2.r2/../build/trusted/bl2/raw_nand.o
 .text.plat_get_raw_nand_data
                0x0000000000000000        0x4 /home/ming/tf-a-stm32mp-2.2.r2-r0/tf-a-stm32mp-2.2.r2/../build/trusted/bl2/raw_nand.o
 .text          0x0000000000000000        0x0 /home/ming/tf-a-stm32mp-2.2.r2-r0/tf-a-stm32mp-2.2.r2/../build/trusted/bl2/stm32_fmc2_nand.o
 .data          0x0000000000000000        0x0 /home/ming/tf-a-stm32mp-2.2.r2-r0/tf-a-stm32mp-2.2.r2/../build/trusted/bl2/stm32_fmc2_nand.o
 .bss           0x0000000000000000        0x0 /home/ming/tf-a-stm32mp-2.2.r2-r0/tf-a-stm32mp-2.2.r2/../build/trusted/bl2/stm32_fmc2_nand.o
 .text          0x0000000000000000        0x0 /home/ming/tf-a-stm32mp-2.2.r2-r0/tf-a-stm32mp-2.2.r2/../build/trusted/bl2/spi_nand.o
 .data          0x0000000000000000        0x0 /home/ming/tf-a-stm32mp-2.2.r2-r0/tf-a-stm32mp-2.2.r2/../build/trusted/bl2/spi_nand.o
 .bss           0x0000000000000000        0x0 /home/ming/tf-a-stm32mp-2.2.r2-r0/tf-a-stm32mp-2.2.r2/../build/trusted/bl2/spi_nand.o
 .text.plat_get_spi_nand_data
                0x0000000000000000        0x4 /home/ming/tf-a-stm32mp-2.2.r2-r0/tf-a-stm32mp-2.2.r2/../build/trusted/bl2/spi_nand.o
 .text          0x0000000000000000        0x0 /home/ming/tf-a-stm32mp-2.2.r2-r0/tf-a-stm32mp-2.2.r2/../build/trusted/bl2/spi_nor.o
 .data          0x0000000000000000        0x0 /home/ming/tf-a-stm32mp-2.2.r2-r0/tf-a-stm32mp-2.2.r2/../build/trusted/bl2/spi_nor.o
 .bss           0x0000000000000000        0x0 /home/ming/tf-a-stm32mp-2.2.r2-r0/tf-a-stm32mp-2.2.r2/../build/trusted/bl2/spi_nor.o
 .text.plat_get_nor_data
                0x0000000000000000        0x4 /home/ming/tf-a-stm32mp-2.2.r2-r0/tf-a-stm32mp-2.2.r2/../build/trusted/bl2/spi_nor.o
 .text          0x0000000000000000        0x0 /home/ming/tf-a-stm32mp-2.2.r2-r0/tf-a-stm32mp-2.2.r2/../build/trusted/bl2/spi_mem.o
 .data          0x0000000000000000        0x0 /home/ming/tf-a-stm32mp-2.2.r2-r0/tf-a-stm32mp-2.2.r2/../build/trusted/bl2/spi_mem.o
 .bss           0x0000000000000000        0x0 /home/ming/tf-a-stm32mp-2.2.r2-r0/tf-a-stm32mp-2.2.r2/../build/trusted/bl2/spi_mem.o
 .text          0x0000000000000000        0x0 /home/ming/tf-a-stm32mp-2.2.r2-r0/tf-a-stm32mp-2.2.r2/../build/trusted/bl2/stm32_qspi.o
 .data          0x0000000000000000        0x0 /home/ming/tf-a-stm32mp-2.2.r2-r0/tf-a-stm32mp-2.2.r2/../build/trusted/bl2/stm32_qspi.o
 .bss           0x0000000000000000        0x0 /home/ming/tf-a-stm32mp-2.2.r2-r0/tf-a-stm32mp-2.2.r2/../build/trusted/bl2/stm32_qspi.o
 .text          0x0000000000000000        0x0 /home/ming/tf-a-stm32mp-2.2.r2-r0/tf-a-stm32mp-2.2.r2/../build/trusted/bl2/core.o
 .data          0x0000000000000000        0x0 /home/ming/tf-a-stm32mp-2.2.r2-r0/tf-a-stm32mp-2.2.r2/../build/trusted/bl2/core.o
 .bss           0x0000000000000000        0x0 /home/ming/tf-a-stm32mp-2.2.r2-r0/tf-a-stm32mp-2.2.r2/../build/trusted/bl2/core.o
 .text          0x0000000000000000        0x0 /home/ming/tf-a-stm32mp-2.2.r2-r0/tf-a-stm32mp-2.2.r2/../build/trusted/bl2/stm32mp1_boot_device.o
 .data          0x0000000000000000        0x0 /home/ming/tf-a-stm32mp-2.2.r2-r0/tf-a-stm32mp-2.2.r2/../build/trusted/bl2/stm32mp1_boot_device.o
 .bss           0x0000000000000000        0x0 /home/ming/tf-a-stm32mp-2.2.r2-r0/tf-a-stm32mp-2.2.r2/../build/trusted/bl2/stm32mp1_boot_device.o
 .text          0x0000000000000000        0x0 /home/ming/tf-a-stm32mp-2.2.r2-r0/tf-a-stm32mp-2.2.r2/../build/trusted/bl2/stm32mp1_ddr.o
 .data          0x0000000000000000        0x0 /home/ming/tf-a-stm32mp-2.2.r2-r0/tf-a-stm32mp-2.2.r2/../build/trusted/bl2/stm32mp1_ddr.o
 .bss           0x0000000000000000        0x0 /home/ming/tf-a-stm32mp-2.2.r2-r0/tf-a-stm32mp-2.2.r2/../build/trusted/bl2/stm32mp1_ddr.o
 .text          0x0000000000000000        0x0 /home/ming/tf-a-stm32mp-2.2.r2-r0/tf-a-stm32mp-2.2.r2/../build/trusted/bl2/stm32mp1_ram.o
 .data          0x0000000000000000        0x0 /home/ming/tf-a-stm32mp-2.2.r2-r0/tf-a-stm32mp-2.2.r2/../build/trusted/bl2/stm32mp1_ram.o
 .bss           0x0000000000000000        0x0 /home/ming/tf-a-stm32mp-2.2.r2-r0/tf-a-stm32mp-2.2.r2/../build/trusted/bl2/stm32mp1_ram.o
 .text          0x0000000000000000        0x0 /home/ming/tf-a-stm32mp-2.2.r2-r0/tf-a-stm32mp-2.2.r2/../build/trusted/bl2/desc_image_load.o
 .data          0x0000000000000000        0x0 /home/ming/tf-a-stm32mp-2.2.r2-r0/tf-a-stm32mp-2.2.r2/../build/trusted/bl2/desc_image_load.o
 .bss           0x0000000000000000        0x0 /home/ming/tf-a-stm32mp-2.2.r2-r0/tf-a-stm32mp-2.2.r2/../build/trusted/bl2/desc_image_load.o
 .text.populate_next_bl_params_config
                0x0000000000000000       0x70 /home/ming/tf-a-stm32mp-2.2.r2-r0/tf-a-stm32mp-2.2.r2/../build/trusted/bl2/desc_image_load.o
 .text.bl31_params_parse_helper
                0x0000000000000000       0x98 /home/ming/tf-a-stm32mp-2.2.r2-r0/tf-a-stm32mp-2.2.r2/../build/trusted/bl2/desc_image_load.o
 .text          0x0000000000000000        0x0 /home/ming/tf-a-stm32mp-2.2.r2-r0/tf-a-stm32mp-2.2.r2/../build/trusted/bl2/plat_bl2_mem_params_desc.o
 .data          0x0000000000000000        0x0 /home/ming/tf-a-stm32mp-2.2.r2-r0/tf-a-stm32mp-2.2.r2/../build/trusted/bl2/plat_bl2_mem_params_desc.o
 .bss           0x0000000000000000        0x0 /home/ming/tf-a-stm32mp-2.2.r2-r0/tf-a-stm32mp-2.2.r2/../build/trusted/bl2/plat_bl2_mem_params_desc.o
 .text          0x0000000000000000        0x0 /home/ming/tf-a-stm32mp-2.2.r2-r0/tf-a-stm32mp-2.2.r2/../build/trusted/bl2/plat_image_load.o
 .data          0x0000000000000000        0x0 /home/ming/tf-a-stm32mp-2.2.r2-r0/tf-a-stm32mp-2.2.r2/../build/trusted/bl2/plat_image_load.o
 .bss           0x0000000000000000        0x0 /home/ming/tf-a-stm32mp-2.2.r2-r0/tf-a-stm32mp-2.2.r2/../build/trusted/bl2/plat_image_load.o
 .text          0x0000000000000000        0x0 /home/ming/tf-a-stm32mp-2.2.r2-r0/tf-a-stm32mp-2.2.r2/../build/trusted/bl2/bl2_image_load_v2.o
 .data          0x0000000000000000        0x0 /home/ming/tf-a-stm32mp-2.2.r2-r0/tf-a-stm32mp-2.2.r2/../build/trusted/bl2/bl2_image_load_v2.o
 .bss           0x0000000000000000        0x0 /home/ming/tf-a-stm32mp-2.2.r2-r0/tf-a-stm32mp-2.2.r2/../build/trusted/bl2/bl2_image_load_v2.o
 .text          0x0000000000000000        0x0 /home/ming/tf-a-stm32mp-2.2.r2-r0/tf-a-stm32mp-2.2.r2/../build/trusted/bl2/bl2_main.o
 .data          0x0000000000000000        0x0 /home/ming/tf-a-stm32mp-2.2.r2-r0/tf-a-stm32mp-2.2.r2/../build/trusted/bl2/bl2_main.o
 .bss           0x0000000000000000        0x0 /home/ming/tf-a-stm32mp-2.2.r2-r0/tf-a-stm32mp-2.2.r2/../build/trusted/bl2/bl2_main.o
 .text          0x0000000000000000        0x0 /home/ming/tf-a-stm32mp-2.2.r2-r0/tf-a-stm32mp-2.2.r2/../build/trusted/bl2/bl2_arch_setup.o
 .data          0x0000000000000000        0x0 /home/ming/tf-a-stm32mp-2.2.r2-r0/tf-a-stm32mp-2.2.r2/../build/trusted/bl2/bl2_arch_setup.o
 .bss           0x0000000000000000        0x0 /home/ming/tf-a-stm32mp-2.2.r2-r0/tf-a-stm32mp-2.2.r2/../build/trusted/bl2/bl2_arch_setup.o
 .text          0x0000000000000000        0x0 /home/ming/tf-a-stm32mp-2.2.r2-r0/tf-a-stm32mp-2.2.r2/../build/trusted/bl2/errata_report.o
 .data          0x0000000000000000        0x0 /home/ming/tf-a-stm32mp-2.2.r2-r0/tf-a-stm32mp-2.2.r2/../build/trusted/bl2/errata_report.o
 .bss           0x0000000000000000        0x0 /home/ming/tf-a-stm32mp-2.2.r2-r0/tf-a-stm32mp-2.2.r2/../build/trusted/bl2/errata_report.o
 .text.errata_needs_reporting
                0x0000000000000000       0x2a /home/ming/tf-a-stm32mp-2.2.r2-r0/tf-a-stm32mp-2.2.r2/../build/trusted/bl2/errata_report.o
 .text.errata_print_msg
                0x0000000000000000       0x60 /home/ming/tf-a-stm32mp-2.2.r2-r0/tf-a-stm32mp-2.2.r2/../build/trusted/bl2/errata_report.o
 .rodata.errata_print_msg.str1.1
                0x0000000000000000       0x7c /home/ming/tf-a-stm32mp-2.2.r2-r0/tf-a-stm32mp-2.2.r2/../build/trusted/bl2/errata_report.o
 .debug_info    0x0000000000000000      0x3d3 /home/ming/tf-a-stm32mp-2.2.r2-r0/tf-a-stm32mp-2.2.r2/../build/trusted/bl2/errata_report.o
 .debug_abbrev  0x0000000000000000      0x1d5 /home/ming/tf-a-stm32mp-2.2.r2-r0/tf-a-stm32mp-2.2.r2/../build/trusted/bl2/errata_report.o
 .debug_loc     0x0000000000000000      0x1f6 /home/ming/tf-a-stm32mp-2.2.r2-r0/tf-a-stm32mp-2.2.r2/../build/trusted/bl2/errata_report.o
 .debug_aranges
                0x0000000000000000       0x28 /home/ming/tf-a-stm32mp-2.2.r2-r0/tf-a-stm32mp-2.2.r2/../build/trusted/bl2/errata_report.o
 .debug_ranges  0x0000000000000000       0x18 /home/ming/tf-a-stm32mp-2.2.r2-r0/tf-a-stm32mp-2.2.r2/../build/trusted/bl2/errata_report.o
 .debug_line    0x0000000000000000      0x1a0 /home/ming/tf-a-stm32mp-2.2.r2-r0/tf-a-stm32mp-2.2.r2/../build/trusted/bl2/errata_report.o
 .debug_str     0x0000000000000000      0x3b9 /home/ming/tf-a-stm32mp-2.2.r2-r0/tf-a-stm32mp-2.2.r2/../build/trusted/bl2/errata_report.o
 .comment       0x0000000000000000       0x25 /home/ming/tf-a-stm32mp-2.2.r2-r0/tf-a-stm32mp-2.2.r2/../build/trusted/bl2/errata_report.o
 .note.GNU-stack
                0x0000000000000000        0x0 /home/ming/tf-a-stm32mp-2.2.r2-r0/tf-a-stm32mp-2.2.r2/../build/trusted/bl2/errata_report.o
 .debug_frame   0x0000000000000000       0x48 /home/ming/tf-a-stm32mp-2.2.r2-r0/tf-a-stm32mp-2.2.r2/../build/trusted/bl2/errata_report.o
 .ARM.attributes
                0x0000000000000000       0x39 /home/ming/tf-a-stm32mp-2.2.r2-r0/tf-a-stm32mp-2.2.r2/../build/trusted/bl2/errata_report.o
 .text          0x0000000000000000        0x0 /home/ming/tf-a-stm32mp-2.2.r2-r0/tf-a-stm32mp-2.2.r2/../build/trusted/bl2/bl_common.o
 .data          0x0000000000000000        0x0 /home/ming/tf-a-stm32mp-2.2.r2-r0/tf-a-stm32mp-2.2.r2/../build/trusted/bl2/bl_common.o
 .bss           0x0000000000000000        0x0 /home/ming/tf-a-stm32mp-2.2.r2-r0/tf-a-stm32mp-2.2.r2/../build/trusted/bl2/bl_common.o
 .text.page_align
                0x0000000000000000       0x18 /home/ming/tf-a-stm32mp-2.2.r2-r0/tf-a-stm32mp-2.2.r2/../build/trusted/bl2/bl_common.o
 .text          0x0000000000000000        0x0 /home/ming/tf-a-stm32mp-2.2.r2-r0/tf-a-stm32mp-2.2.r2/../build/trusted/bl2/tf_log.o
 .data          0x0000000000000000        0x0 /home/ming/tf-a-stm32mp-2.2.r2-r0/tf-a-stm32mp-2.2.r2/../build/trusted/bl2/tf_log.o
 .bss           0x0000000000000000        0x0 /home/ming/tf-a-stm32mp-2.2.r2-r0/tf-a-stm32mp-2.2.r2/../build/trusted/bl2/tf_log.o
 .text.tf_log_set_max_level
                0x0000000000000000       0x30 /home/ming/tf-a-stm32mp-2.2.r2-r0/tf-a-stm32mp-2.2.r2/../build/trusted/bl2/tf_log.o
 .text          0x0000000000000000        0x0 /home/ming/tf-a-stm32mp-2.2.r2-r0/tf-a-stm32mp-2.2.r2/../build/trusted/bl2/multi_console.o
 .data          0x0000000000000000        0x0 /home/ming/tf-a-stm32mp-2.2.r2-r0/tf-a-stm32mp-2.2.r2/../build/trusted/bl2/multi_console.o
 .bss           0x0000000000000000        0x0 /home/ming/tf-a-stm32mp-2.2.r2-r0/tf-a-stm32mp-2.2.r2/../build/trusted/bl2/multi_console.o
 .text.console_unregister
                0x0000000000000000       0x2c /home/ming/tf-a-stm32mp-2.2.r2-r0/tf-a-stm32mp-2.2.r2/../build/trusted/bl2/multi_console.o
 .text.console_switch_state
                0x0000000000000000        0xc /home/ming/tf-a-stm32mp-2.2.r2-r0/tf-a-stm32mp-2.2.r2/../build/trusted/bl2/multi_console.o
 .text.console_getc
                0x0000000000000000       0x3c /home/ming/tf-a-stm32mp-2.2.r2-r0/tf-a-stm32mp-2.2.r2/../build/trusted/bl2/multi_console.o
 .text          0x0000000000000000        0x0 /home/ming/tf-a-stm32mp-2.2.r2-r0/tf-a-stm32mp-2.2.r2/../build/trusted/bl2/plat_bl_common.o
 .data          0x0000000000000000        0x0 /home/ming/tf-a-stm32mp-2.2.r2-r0/tf-a-stm32mp-2.2.r2/../build/trusted/bl2/plat_bl_common.o
 .bss           0x0000000000000000        0x0 /home/ming/tf-a-stm32mp-2.2.r2-r0/tf-a-stm32mp-2.2.r2/../build/trusted/bl2/plat_bl_common.o
 .text.bl2_plat_handle_post_image_load
                0x0000000000000000        0x4 /home/ming/tf-a-stm32mp-2.2.r2-r0/tf-a-stm32mp-2.2.r2/../build/trusted/bl2/plat_bl_common.o
 .text.plat_try_next_boot_source
                0x0000000000000000        0x4 /home/ming/tf-a-stm32mp-2.2.r2-r0/tf-a-stm32mp-2.2.r2/../build/trusted/bl2/plat_bl_common.o
 .text.setup_page_tables
                0x0000000000000000       0x16 /home/ming/tf-a-stm32mp-2.2.r2-r0/tf-a-stm32mp-2.2.r2/../build/trusted/bl2/plat_bl_common.o
 .text          0x0000000000000000        0x0 /home/ming/tf-a-stm32mp-2.2.r2-r0/tf-a-stm32mp-2.2.r2/../build/trusted/bl2/plat_log_common.o
 .data          0x0000000000000000        0x0 /home/ming/tf-a-stm32mp-2.2.r2-r0/tf-a-stm32mp-2.2.r2/../build/trusted/bl2/plat_log_common.o
 .bss           0x0000000000000000        0x0 /home/ming/tf-a-stm32mp-2.2.r2-r0/tf-a-stm32mp-2.2.r2/../build/trusted/bl2/plat_log_common.o
 .text          0x0000000000000000        0x0 /home/ming/tf-a-stm32mp-2.2.r2-r0/tf-a-stm32mp-2.2.r2/../build/trusted/bl2/plat_common.o
 .data          0x0000000000000000        0x0 /home/ming/tf-a-stm32mp-2.2.r2-r0/tf-a-stm32mp-2.2.r2/../build/trusted/bl2/plat_common.o
 .bss           0x0000000000000000        0x0 /home/ming/tf-a-stm32mp-2.2.r2-r0/tf-a-stm32mp-2.2.r2/../build/trusted/bl2/plat_common.o
 .text.bl32_plat_enable_mmu
                0x0000000000000000        0x4 /home/ming/tf-a-stm32mp-2.2.r2-r0/tf-a-stm32mp-2.2.r2/../build/trusted/bl2/plat_common.o
 .debug_info    0x0000000000000000      0x1b2 /home/ming/tf-a-stm32mp-2.2.r2-r0/tf-a-stm32mp-2.2.r2/../build/trusted/bl2/plat_common.o
 .debug_abbrev  0x0000000000000000       0xdf /home/ming/tf-a-stm32mp-2.2.r2-r0/tf-a-stm32mp-2.2.r2/../build/trusted/bl2/plat_common.o
 .debug_loc     0x0000000000000000       0x21 /home/ming/tf-a-stm32mp-2.2.r2-r0/tf-a-stm32mp-2.2.r2/../build/trusted/bl2/plat_common.o
 .debug_aranges
                0x0000000000000000       0x20 /home/ming/tf-a-stm32mp-2.2.r2-r0/tf-a-stm32mp-2.2.r2/../build/trusted/bl2/plat_common.o
 .debug_ranges  0x0000000000000000       0x10 /home/ming/tf-a-stm32mp-2.2.r2-r0/tf-a-stm32mp-2.2.r2/../build/trusted/bl2/plat_common.o
 .debug_line    0x0000000000000000      0x102 /home/ming/tf-a-stm32mp-2.2.r2-r0/tf-a-stm32mp-2.2.r2/../build/trusted/bl2/plat_common.o
 .debug_str     0x0000000000000000      0x26c /home/ming/tf-a-stm32mp-2.2.r2-r0/tf-a-stm32mp-2.2.r2/../build/trusted/bl2/plat_common.o
 .comment       0x0000000000000000       0x25 /home/ming/tf-a-stm32mp-2.2.r2-r0/tf-a-stm32mp-2.2.r2/../build/trusted/bl2/plat_common.o
 .note.GNU-stack
                0x0000000000000000        0x0 /home/ming/tf-a-stm32mp-2.2.r2-r0/tf-a-stm32mp-2.2.r2/../build/trusted/bl2/plat_common.o
 .debug_frame   0x0000000000000000       0x20 /home/ming/tf-a-stm32mp-2.2.r2-r0/tf-a-stm32mp-2.2.r2/../build/trusted/bl2/plat_common.o
 .ARM.attributes
                0x0000000000000000       0x39 /home/ming/tf-a-stm32mp-2.2.r2-r0/tf-a-stm32mp-2.2.r2/../build/trusted/bl2/plat_common.o
 .text          0x0000000000000000        0x0 /home/ming/tf-a-stm32mp-2.2.r2-r0/tf-a-stm32mp-2.2.r2/../build/trusted/bl2/popcountdi2.o
 .data          0x0000000000000000        0x0 /home/ming/tf-a-stm32mp-2.2.r2-r0/tf-a-stm32mp-2.2.r2/../build/trusted/bl2/popcountdi2.o
 .bss           0x0000000000000000        0x0 /home/ming/tf-a-stm32mp-2.2.r2-r0/tf-a-stm32mp-2.2.r2/../build/trusted/bl2/popcountdi2.o
 .text.__popcountdi2
                0x0000000000000000       0x58 /home/ming/tf-a-stm32mp-2.2.r2-r0/tf-a-stm32mp-2.2.r2/../build/trusted/bl2/popcountdi2.o
 .debug_info    0x0000000000000000      0x100 /home/ming/tf-a-stm32mp-2.2.r2-r0/tf-a-stm32mp-2.2.r2/../build/trusted/bl2/popcountdi2.o
 .debug_abbrev  0x0000000000000000       0x6f /home/ming/tf-a-stm32mp-2.2.r2-r0/tf-a-stm32mp-2.2.r2/../build/trusted/bl2/popcountdi2.o
 .debug_loc     0x0000000000000000       0x83 /home/ming/tf-a-stm32mp-2.2.r2-r0/tf-a-stm32mp-2.2.r2/../build/trusted/bl2/popcountdi2.o
 .debug_aranges
                0x0000000000000000       0x20 /home/ming/tf-a-stm32mp-2.2.r2-r0/tf-a-stm32mp-2.2.r2/../build/trusted/bl2/popcountdi2.o
 .debug_ranges  0x0000000000000000       0x10 /home/ming/tf-a-stm32mp-2.2.r2-r0/tf-a-stm32mp-2.2.r2/../build/trusted/bl2/popcountdi2.o
 .debug_line    0x0000000000000000       0x6c /home/ming/tf-a-stm32mp-2.2.r2-r0/tf-a-stm32mp-2.2.r2/../build/trusted/bl2/popcountdi2.o
 .debug_str     0x0000000000000000      0x211 /home/ming/tf-a-stm32mp-2.2.r2-r0/tf-a-stm32mp-2.2.r2/../build/trusted/bl2/popcountdi2.o
 .comment       0x0000000000000000       0x25 /home/ming/tf-a-stm32mp-2.2.r2-r0/tf-a-stm32mp-2.2.r2/../build/trusted/bl2/popcountdi2.o
 .note.GNU-stack
                0x0000000000000000        0x0 /home/ming/tf-a-stm32mp-2.2.r2-r0/tf-a-stm32mp-2.2.r2/../build/trusted/bl2/popcountdi2.o
 .debug_frame   0x0000000000000000       0x30 /home/ming/tf-a-stm32mp-2.2.r2-r0/tf-a-stm32mp-2.2.r2/../build/trusted/bl2/popcountdi2.o
 .ARM.attributes
                0x0000000000000000       0x39 /home/ming/tf-a-stm32mp-2.2.r2-r0/tf-a-stm32mp-2.2.r2/../build/trusted/bl2/popcountdi2.o
 .text          0x0000000000000000        0x0 /home/ming/tf-a-stm32mp-2.2.r2-r0/tf-a-stm32mp-2.2.r2/../build/trusted/bl2/popcountsi2.o
 .data          0x0000000000000000        0x0 /home/ming/tf-a-stm32mp-2.2.r2-r0/tf-a-stm32mp-2.2.r2/../build/trusted/bl2/popcountsi2.o
 .bss           0x0000000000000000        0x0 /home/ming/tf-a-stm32mp-2.2.r2-r0/tf-a-stm32mp-2.2.r2/../build/trusted/bl2/popcountsi2.o
 .text          0x0000000000000000        0x0 /home/ming/tf-a-stm32mp-2.2.r2-r0/tf-a-stm32mp-2.2.r2/../build/trusted/bl2/ctzdi2.o
 .data          0x0000000000000000        0x0 /home/ming/tf-a-stm32mp-2.2.r2-r0/tf-a-stm32mp-2.2.r2/../build/trusted/bl2/ctzdi2.o
 .bss           0x0000000000000000        0x0 /home/ming/tf-a-stm32mp-2.2.r2-r0/tf-a-stm32mp-2.2.r2/../build/trusted/bl2/ctzdi2.o
 .text          0x0000000000000000        0x0 /home/ming/tf-a-stm32mp-2.2.r2-r0/tf-a-stm32mp-2.2.r2/../build/trusted/bl2/divdi3.o
 .data          0x0000000000000000        0x0 /home/ming/tf-a-stm32mp-2.2.r2-r0/tf-a-stm32mp-2.2.r2/../build/trusted/bl2/divdi3.o
 .bss           0x0000000000000000        0x0 /home/ming/tf-a-stm32mp-2.2.r2-r0/tf-a-stm32mp-2.2.r2/../build/trusted/bl2/divdi3.o
 .text.__divdi3
                0x0000000000000000       0x4a /home/ming/tf-a-stm32mp-2.2.r2-r0/tf-a-stm32mp-2.2.r2/../build/trusted/bl2/divdi3.o
 .debug_info    0x0000000000000000      0x12a /home/ming/tf-a-stm32mp-2.2.r2-r0/tf-a-stm32mp-2.2.r2/../build/trusted/bl2/divdi3.o
 .debug_abbrev  0x0000000000000000       0xaf /home/ming/tf-a-stm32mp-2.2.r2-r0/tf-a-stm32mp-2.2.r2/../build/trusted/bl2/divdi3.o
 .debug_loc     0x0000000000000000       0x90 /home/ming/tf-a-stm32mp-2.2.r2-r0/tf-a-stm32mp-2.2.r2/../build/trusted/bl2/divdi3.o
 .debug_aranges
                0x0000000000000000       0x20 /home/ming/tf-a-stm32mp-2.2.r2-r0/tf-a-stm32mp-2.2.r2/../build/trusted/bl2/divdi3.o
 .debug_ranges  0x0000000000000000       0x10 /home/ming/tf-a-stm32mp-2.2.r2-r0/tf-a-stm32mp-2.2.r2/../build/trusted/bl2/divdi3.o
 .debug_line    0x0000000000000000       0x7a /home/ming/tf-a-stm32mp-2.2.r2-r0/tf-a-stm32mp-2.2.r2/../build/trusted/bl2/divdi3.o
 .debug_str     0x0000000000000000      0x217 /home/ming/tf-a-stm32mp-2.2.r2-r0/tf-a-stm32mp-2.2.r2/../build/trusted/bl2/divdi3.o
 .comment       0x0000000000000000       0x25 /home/ming/tf-a-stm32mp-2.2.r2-r0/tf-a-stm32mp-2.2.r2/../build/trusted/bl2/divdi3.o
 .note.GNU-stack
                0x0000000000000000        0x0 /home/ming/tf-a-stm32mp-2.2.r2-r0/tf-a-stm32mp-2.2.r2/../build/trusted/bl2/divdi3.o
 .debug_frame   0x0000000000000000       0x34 /home/ming/tf-a-stm32mp-2.2.r2-r0/tf-a-stm32mp-2.2.r2/../build/trusted/bl2/divdi3.o
 .ARM.attributes
                0x0000000000000000       0x39 /home/ming/tf-a-stm32mp-2.2.r2-r0/tf-a-stm32mp-2.2.r2/../build/trusted/bl2/divdi3.o
 .text          0x0000000000000000        0x0 /home/ming/tf-a-stm32mp-2.2.r2-r0/tf-a-stm32mp-2.2.r2/../build/trusted/bl2/divmoddi4.o
 .data          0x0000000000000000        0x0 /home/ming/tf-a-stm32mp-2.2.r2-r0/tf-a-stm32mp-2.2.r2/../build/trusted/bl2/divmoddi4.o
 .bss           0x0000000000000000        0x0 /home/ming/tf-a-stm32mp-2.2.r2-r0/tf-a-stm32mp-2.2.r2/../build/trusted/bl2/divmoddi4.o
 .text.__divmoddi4
                0x0000000000000000       0x2e /home/ming/tf-a-stm32mp-2.2.r2-r0/tf-a-stm32mp-2.2.r2/../build/trusted/bl2/divmoddi4.o
 .debug_info    0x0000000000000000      0x12a /home/ming/tf-a-stm32mp-2.2.r2-r0/tf-a-stm32mp-2.2.r2/../build/trusted/bl2/divmoddi4.o
 .debug_abbrev  0x0000000000000000       0xb1 /home/ming/tf-a-stm32mp-2.2.r2-r0/tf-a-stm32mp-2.2.r2/../build/trusted/bl2/divmoddi4.o
 .debug_loc     0x0000000000000000       0x50 /home/ming/tf-a-stm32mp-2.2.r2-r0/tf-a-stm32mp-2.2.r2/../build/trusted/bl2/divmoddi4.o
 .debug_aranges
                0x0000000000000000       0x20 /home/ming/tf-a-stm32mp-2.2.r2-r0/tf-a-stm32mp-2.2.r2/../build/trusted/bl2/divmoddi4.o
 .debug_ranges  0x0000000000000000       0x10 /home/ming/tf-a-stm32mp-2.2.r2-r0/tf-a-stm32mp-2.2.r2/../build/trusted/bl2/divmoddi4.o
 .debug_line    0x0000000000000000       0x74 /home/ming/tf-a-stm32mp-2.2.r2-r0/tf-a-stm32mp-2.2.r2/../build/trusted/bl2/divmoddi4.o
 .debug_str     0x0000000000000000      0x201 /home/ming/tf-a-stm32mp-2.2.r2-r0/tf-a-stm32mp-2.2.r2/../build/trusted/bl2/divmoddi4.o
 .comment       0x0000000000000000       0x25 /home/ming/tf-a-stm32mp-2.2.r2-r0/tf-a-stm32mp-2.2.r2/../build/trusted/bl2/divmoddi4.o
 .note.GNU-stack
                0x0000000000000000        0x0 /home/ming/tf-a-stm32mp-2.2.r2-r0/tf-a-stm32mp-2.2.r2/../build/trusted/bl2/divmoddi4.o
 .debug_frame   0x0000000000000000       0x30 /home/ming/tf-a-stm32mp-2.2.r2-r0/tf-a-stm32mp-2.2.r2/../build/trusted/bl2/divmoddi4.o
 .ARM.attributes
                0x0000000000000000       0x39 /home/ming/tf-a-stm32mp-2.2.r2-r0/tf-a-stm32mp-2.2.r2/../build/trusted/bl2/divmoddi4.o
 .text          0x0000000000000000        0x0 /home/ming/tf-a-stm32mp-2.2.r2-r0/tf-a-stm32mp-2.2.r2/../build/trusted/bl2/lshrdi3.o
 .data          0x0000000000000000        0x0 /home/ming/tf-a-stm32mp-2.2.r2-r0/tf-a-stm32mp-2.2.r2/../build/trusted/bl2/lshrdi3.o
 .bss           0x0000000000000000        0x0 /home/ming/tf-a-stm32mp-2.2.r2-r0/tf-a-stm32mp-2.2.r2/../build/trusted/bl2/lshrdi3.o
 .text.__lshrdi3
                0x0000000000000000       0x28 /home/ming/tf-a-stm32mp-2.2.r2-r0/tf-a-stm32mp-2.2.r2/../build/trusted/bl2/lshrdi3.o
 .debug_info    0x0000000000000000      0x160 /home/ming/tf-a-stm32mp-2.2.r2-r0/tf-a-stm32mp-2.2.r2/../build/trusted/bl2/lshrdi3.o
 .debug_abbrev  0x0000000000000000       0xd7 /home/ming/tf-a-stm32mp-2.2.r2-r0/tf-a-stm32mp-2.2.r2/../build/trusted/bl2/lshrdi3.o
 .debug_loc     0x0000000000000000       0x48 /home/ming/tf-a-stm32mp-2.2.r2-r0/tf-a-stm32mp-2.2.r2/../build/trusted/bl2/lshrdi3.o
 .debug_aranges
                0x0000000000000000       0x20 /home/ming/tf-a-stm32mp-2.2.r2-r0/tf-a-stm32mp-2.2.r2/../build/trusted/bl2/lshrdi3.o
 .debug_ranges  0x0000000000000000       0x10 /home/ming/tf-a-stm32mp-2.2.r2-r0/tf-a-stm32mp-2.2.r2/../build/trusted/bl2/lshrdi3.o
 .debug_line    0x0000000000000000       0x70 /home/ming/tf-a-stm32mp-2.2.r2-r0/tf-a-stm32mp-2.2.r2/../build/trusted/bl2/lshrdi3.o
 .debug_str     0x0000000000000000      0x230 /home/ming/tf-a-stm32mp-2.2.r2-r0/tf-a-stm32mp-2.2.r2/../build/trusted/bl2/lshrdi3.o
 .comment       0x0000000000000000       0x25 /home/ming/tf-a-stm32mp-2.2.r2-r0/tf-a-stm32mp-2.2.r2/../build/trusted/bl2/lshrdi3.o
 .note.GNU-stack
                0x0000000000000000        0x0 /home/ming/tf-a-stm32mp-2.2.r2-r0/tf-a-stm32mp-2.2.r2/../build/trusted/bl2/lshrdi3.o
 .debug_frame   0x0000000000000000       0x28 /home/ming/tf-a-stm32mp-2.2.r2-r0/tf-a-stm32mp-2.2.r2/../build/trusted/bl2/lshrdi3.o
 .ARM.attributes
                0x0000000000000000       0x39 /home/ming/tf-a-stm32mp-2.2.r2-r0/tf-a-stm32mp-2.2.r2/../build/trusted/bl2/lshrdi3.o
 .text          0x0000000000000000        0x0 /home/ming/tf-a-stm32mp-2.2.r2-r0/tf-a-stm32mp-2.2.r2/../build/trusted/bl2/udivmoddi4.o
 .data          0x0000000000000000        0x0 /home/ming/tf-a-stm32mp-2.2.r2-r0/tf-a-stm32mp-2.2.r2/../build/trusted/bl2/udivmoddi4.o
 .bss           0x0000000000000000        0x0 /home/ming/tf-a-stm32mp-2.2.r2-r0/tf-a-stm32mp-2.2.r2/../build/trusted/bl2/udivmoddi4.o
 .text          0x0000000000000000        0x0 /home/ming/tf-a-stm32mp-2.2.r2-r0/tf-a-stm32mp-2.2.r2/../build/trusted/bl2/stm32mp_common.o
 .data          0x0000000000000000        0x0 /home/ming/tf-a-stm32mp-2.2.r2-r0/tf-a-stm32mp-2.2.r2/../build/trusted/bl2/stm32mp_common.o
 .bss           0x0000000000000000        0x0 /home/ming/tf-a-stm32mp-2.2.r2-r0/tf-a-stm32mp-2.2.r2/../build/trusted/bl2/stm32mp_common.o
 .text.plat_get_ns_image_entrypoint
                0x0000000000000000        0x8 /home/ming/tf-a-stm32mp-2.2.r2-r0/tf-a-stm32mp-2.2.r2/../build/trusted/bl2/stm32mp_common.o
 .text.stm32mp_plat_reset
                0x0000000000000000        0xa /home/ming/tf-a-stm32mp-2.2.r2-r0/tf-a-stm32mp-2.2.r2/../build/trusted/bl2/stm32mp_common.o
 .text.stm32mp_pwr_regs_lock
                0x0000000000000000       0x18 /home/ming/tf-a-stm32mp-2.2.r2-r0/tf-a-stm32mp-2.2.r2/../build/trusted/bl2/stm32mp_common.o
 .text.stm32mp_pwr_regs_unlock
                0x0000000000000000       0x18 /home/ming/tf-a-stm32mp-2.2.r2-r0/tf-a-stm32mp-2.2.r2/../build/trusted/bl2/stm32mp_common.o
 .bss.lock      0x0000000000000000        0x4 /home/ming/tf-a-stm32mp-2.2.r2-r0/tf-a-stm32mp-2.2.r2/../build/trusted/bl2/stm32mp_common.o
 .text          0x0000000000000000        0x0 /home/ming/tf-a-stm32mp-2.2.r2-r0/tf-a-stm32mp-2.2.r2/../build/trusted/bl2/stm32mp1_private.o
 .data          0x0000000000000000        0x0 /home/ming/tf-a-stm32mp-2.2.r2-r0/tf-a-stm32mp-2.2.r2/../build/trusted/bl2/stm32mp1_private.o
 .bss           0x0000000000000000        0x0 /home/ming/tf-a-stm32mp-2.2.r2-r0/tf-a-stm32mp-2.2.r2/../build/trusted/bl2/stm32mp1_private.o
 .text.stm32mp_mask_timer
                0x0000000000000000       0x1a /home/ming/tf-a-stm32mp-2.2.r2-r0/tf-a-stm32mp-2.2.r2/../build/trusted/bl2/stm32mp1_private.o
 .text.stm32mp_wait_cpu_reset
                0x0000000000000000       0x42 /home/ming/tf-a-stm32mp-2.2.r2-r0/tf-a-stm32mp-2.2.r2/../build/trusted/bl2/stm32mp1_private.o
 .text.stm32mp_is_single_core
                0x0000000000000000       0x28 /home/ming/tf-a-stm32mp-2.2.r2-r0/tf-a-stm32mp-2.2.r2/../build/trusted/bl2/stm32mp1_private.o
 .text.stm32mp_plat_reset
                0x0000000000000000       0xac /home/ming/tf-a-stm32mp-2.2.r2-r0/tf-a-stm32mp-2.2.r2/../build/trusted/bl2/stm32mp1_private.o
 .text.stm32mp_etzpc_binding2decprot
                0x0000000000000000       0x26 /home/ming/tf-a-stm32mp-2.2.r2-r0/tf-a-stm32mp-2.2.r2/../build/trusted/bl2/stm32mp1_private.o
 .rodata.tzc_source_ip
                0x0000000000000000       0x84 /home/ming/tf-a-stm32mp-2.2.r2-r0/tf-a-stm32mp-2.2.r2/../build/trusted/bl2/stm32mp1_private.o
 .text          0x0000000000000000        0x0 /home/ming/tf-a-stm32mp-2.2.r2-r0/tf-a-stm32mp-2.2.r2/../build/trusted/bl2/xlat_tables_arch.o
 .data          0x0000000000000000        0x0 /home/ming/tf-a-stm32mp-2.2.r2-r0/tf-a-stm32mp-2.2.r2/../build/trusted/bl2/xlat_tables_arch.o
 .bss           0x0000000000000000        0x0 /home/ming/tf-a-stm32mp-2.2.r2-r0/tf-a-stm32mp-2.2.r2/../build/trusted/bl2/xlat_tables_arch.o
 .text.xlat_arch_is_granule_size_supported
                0x0000000000000000        0xa /home/ming/tf-a-stm32mp-2.2.r2-r0/tf-a-stm32mp-2.2.r2/../build/trusted/bl2/xlat_tables_arch.o
 .text.xlat_arch_get_max_supported_granule_size
                0x0000000000000000        0x6 /home/ming/tf-a-stm32mp-2.2.r2-r0/tf-a-stm32mp-2.2.r2/../build/trusted/bl2/xlat_tables_arch.o
 .text          0x0000000000000000        0x0 /home/ming/tf-a-stm32mp-2.2.r2-r0/tf-a-stm32mp-2.2.r2/../build/trusted/bl2/xlat_tables_context.o
 .data          0x0000000000000000        0x0 /home/ming/tf-a-stm32mp-2.2.r2-r0/tf-a-stm32mp-2.2.r2/../build/trusted/bl2/xlat_tables_context.o
 .bss           0x0000000000000000        0x0 /home/ming/tf-a-stm32mp-2.2.r2-r0/tf-a-stm32mp-2.2.r2/../build/trusted/bl2/xlat_tables_context.o
 .text.mmap_add_region_alloc_va
                0x0000000000000000       0x30 /home/ming/tf-a-stm32mp-2.2.r2-r0/tf-a-stm32mp-2.2.r2/../build/trusted/bl2/xlat_tables_context.o
 .text.mmap_add_alloc_va
                0x0000000000000000       0x2c /home/ming/tf-a-stm32mp-2.2.r2-r0/tf-a-stm32mp-2.2.r2/../build/trusted/bl2/xlat_tables_context.o
 .text.mmap_add_dynamic_region_alloc_va
                0x0000000000000000       0x30 /home/ming/tf-a-stm32mp-2.2.r2-r0/tf-a-stm32mp-2.2.r2/../build/trusted/bl2/xlat_tables_context.o
 .text.xlat_get_mem_attributes
                0x0000000000000000       0x10 /home/ming/tf-a-stm32mp-2.2.r2-r0/tf-a-stm32mp-2.2.r2/../build/trusted/bl2/xlat_tables_context.o
 .text.xlat_change_mem_attributes
                0x0000000000000000       0x10 /home/ming/tf-a-stm32mp-2.2.r2-r0/tf-a-stm32mp-2.2.r2/../build/trusted/bl2/xlat_tables_context.o
 .text.enable_mmu_hyp
                0x0000000000000000       0x34 /home/ming/tf-a-stm32mp-2.2.r2-r0/tf-a-stm32mp-2.2.r2/../build/trusted/bl2/xlat_tables_context.o
 .text          0x0000000000000000        0x0 /home/ming/tf-a-stm32mp-2.2.r2-r0/tf-a-stm32mp-2.2.r2/../build/trusted/bl2/xlat_tables_core.o
 .data          0x0000000000000000        0x0 /home/ming/tf-a-stm32mp-2.2.r2-r0/tf-a-stm32mp-2.2.r2/../build/trusted/bl2/xlat_tables_core.o
 .bss           0x0000000000000000        0x0 /home/ming/tf-a-stm32mp-2.2.r2-r0/tf-a-stm32mp-2.2.r2/../build/trusted/bl2/xlat_tables_core.o
 .text.mmap_alloc_va_align_ctx.isra.1
                0x0000000000000000       0x42 /home/ming/tf-a-stm32mp-2.2.r2-r0/tf-a-stm32mp-2.2.r2/../build/trusted/bl2/xlat_tables_core.o
 .text.mmap_add_region_alloc_va_ctx
                0x0000000000000000       0x3c /home/ming/tf-a-stm32mp-2.2.r2-r0/tf-a-stm32mp-2.2.r2/../build/trusted/bl2/xlat_tables_core.o
 .text.mmap_add_dynamic_region_alloc_va_ctx
                0x0000000000000000       0x2c /home/ming/tf-a-stm32mp-2.2.r2-r0/tf-a-stm32mp-2.2.r2/../build/trusted/bl2/xlat_tables_core.o
 .text.xlat_setup_dynamic_ctx
                0x0000000000000000       0x5e /home/ming/tf-a-stm32mp-2.2.r2-r0/tf-a-stm32mp-2.2.r2/../build/trusted/bl2/xlat_tables_core.o
 .text          0x0000000000000000        0x0 /home/ming/tf-a-stm32mp-2.2.r2-r0/tf-a-stm32mp-2.2.r2/../build/trusted/bl2/xlat_tables_utils.o
 .data          0x0000000000000000        0x0 /home/ming/tf-a-stm32mp-2.2.r2-r0/tf-a-stm32mp-2.2.r2/../build/trusted/bl2/xlat_tables_utils.o
 .bss           0x0000000000000000        0x0 /home/ming/tf-a-stm32mp-2.2.r2-r0/tf-a-stm32mp-2.2.r2/../build/trusted/bl2/xlat_tables_utils.o
 .text.find_xlat_table_entry
                0x0000000000000000       0xb0 /home/ming/tf-a-stm32mp-2.2.r2-r0/tf-a-stm32mp-2.2.r2/../build/trusted/bl2/xlat_tables_utils.o
 .text.xlat_get_mem_attributes_internal
                0x0000000000000000      0x134 /home/ming/tf-a-stm32mp-2.2.r2-r0/tf-a-stm32mp-2.2.r2/../build/trusted/bl2/xlat_tables_utils.o
 .text.xlat_get_mem_attributes_ctx
                0x0000000000000000       0x12 /home/ming/tf-a-stm32mp-2.2.r2-r0/tf-a-stm32mp-2.2.r2/../build/trusted/bl2/xlat_tables_utils.o
 .text.xlat_change_mem_attributes_ctx
                0x0000000000000000      0x1b8 /home/ming/tf-a-stm32mp-2.2.r2-r0/tf-a-stm32mp-2.2.r2/../build/trusted/bl2/xlat_tables_utils.o
 .rodata.__func__.6720
                0x0000000000000000       0x1f /home/ming/tf-a-stm32mp-2.2.r2-r0/tf-a-stm32mp-2.2.r2/../build/trusted/bl2/xlat_tables_utils.o
 .rodata.find_xlat_table_entry.str1.1
                0x0000000000000000       0x53 /home/ming/tf-a-stm32mp-2.2.r2-r0/tf-a-stm32mp-2.2.r2/../build/trusted/bl2/xlat_tables_utils.o
 .rodata.xlat_change_mem_attributes_ctx.str1.1
                0x0000000000000000      0x152 /home/ming/tf-a-stm32mp-2.2.r2-r0/tf-a-stm32mp-2.2.r2/../build/trusted/bl2/xlat_tables_utils.o
 .rodata.xlat_get_mem_attributes_internal.str1.1
                0x0000000000000000       0x1f /home/ming/tf-a-stm32mp-2.2.r2-r0/tf-a-stm32mp-2.2.r2/../build/trusted/bl2/xlat_tables_utils.o
 .text          0x0000000000000000        0x0 /home/ming/tf-a-stm32mp-2.2.r2-r0/tf-a-stm32mp-2.2.r2/../build/trusted/bl2/tzc400.o
 .data          0x0000000000000000        0x0 /home/ming/tf-a-stm32mp-2.2.r2-r0/tf-a-stm32mp-2.2.r2/../build/trusted/bl2/tzc400.o
 .bss           0x0000000000000000        0x0 /home/ming/tf-a-stm32mp-2.2.r2-r0/tf-a-stm32mp-2.2.r2/../build/trusted/bl2/tzc400.o
 .text.tzc400_configure_region0
                0x0000000000000000       0x2c /home/ming/tf-a-stm32mp-2.2.r2-r0/tf-a-stm32mp-2.2.r2/../build/trusted/bl2/tzc400.o
 .text.tzc400_clear_all_interrupts
                0x0000000000000000       0x30 /home/ming/tf-a-stm32mp-2.2.r2-r0/tf-a-stm32mp-2.2.r2/../build/trusted/bl2/tzc400.o
 .text.tzc400_is_pending_interrupt
                0x0000000000000000       0x3c /home/ming/tf-a-stm32mp-2.2.r2-r0/tf-a-stm32mp-2.2.r2/../build/trusted/bl2/tzc400.o
 .text.tzc400_it_handler
                0x0000000000000000       0xbc /home/ming/tf-a-stm32mp-2.2.r2-r0/tf-a-stm32mp-2.2.r2/../build/trusted/bl2/tzc400.o
 .rodata.tzc400_it_handler.str1.1
                0x0000000000000000       0x7a /home/ming/tf-a-stm32mp-2.2.r2-r0/tf-a-stm32mp-2.2.r2/../build/trusted/bl2/tzc400.o
 .text          0x0000000000000000        0x0 /home/ming/tf-a-stm32mp-2.2.r2-r0/tf-a-stm32mp-2.2.r2/../build/trusted/bl2/delay_timer.o
 .data          0x0000000000000000        0x0 /home/ming/tf-a-stm32mp-2.2.r2-r0/tf-a-stm32mp-2.2.r2/../build/trusted/bl2/delay_timer.o
 .bss           0x0000000000000000        0x0 /home/ming/tf-a-stm32mp-2.2.r2-r0/tf-a-stm32mp-2.2.r2/../build/trusted/bl2/delay_timer.o
 .text          0x0000000000000000        0x0 /home/ming/tf-a-stm32mp-2.2.r2-r0/tf-a-stm32mp-2.2.r2/../build/trusted/bl2/generic_delay_timer.o
 .data          0x0000000000000000        0x0 /home/ming/tf-a-stm32mp-2.2.r2-r0/tf-a-stm32mp-2.2.r2/../build/trusted/bl2/generic_delay_timer.o
 .bss           0x0000000000000000        0x0 /home/ming/tf-a-stm32mp-2.2.r2-r0/tf-a-stm32mp-2.2.r2/../build/trusted/bl2/generic_delay_timer.o
 .text          0x0000000000000000        0x0 /home/ming/tf-a-stm32mp-2.2.r2-r0/tf-a-stm32mp-2.2.r2/../build/trusted/bl2/bsec2.o
 .data          0x0000000000000000        0x0 /home/ming/tf-a-stm32mp-2.2.r2-r0/tf-a-stm32mp-2.2.r2/../build/trusted/bl2/bsec2.o
 .bss           0x0000000000000000        0x0 /home/ming/tf-a-stm32mp-2.2.r2-r0/tf-a-stm32mp-2.2.r2/../build/trusted/bl2/bsec2.o
 .text.bsec_get_base
                0x0000000000000000        0xc /home/ming/tf-a-stm32mp-2.2.r2-r0/tf-a-stm32mp-2.2.r2/../build/trusted/bl2/bsec2.o
 .text.bsec_get_config
                0x0000000000000000       0x44 /home/ming/tf-a-stm32mp-2.2.r2-r0/tf-a-stm32mp-2.2.r2/../build/trusted/bl2/bsec2.o
 .text.bsec_write_debug_conf
                0x0000000000000000       0x24 /home/ming/tf-a-stm32mp-2.2.r2-r0/tf-a-stm32mp-2.2.r2/../build/trusted/bl2/bsec2.o
 .text.bsec_set_config
                0x0000000000000000       0x6c /home/ming/tf-a-stm32mp-2.2.r2-r0/tf-a-stm32mp-2.2.r2/../build/trusted/bl2/bsec2.o
 .text.bsec_permanent_lock_otp
                0x0000000000000000       0x90 /home/ming/tf-a-stm32mp-2.2.r2-r0/tf-a-stm32mp-2.2.r2/../build/trusted/bl2/bsec2.o
 .text.bsec_get_hw_conf
                0x0000000000000000       0x10 /home/ming/tf-a-stm32mp-2.2.r2-r0/tf-a-stm32mp-2.2.r2/../build/trusted/bl2/bsec2.o
 .text.bsec_get_magic_id
                0x0000000000000000       0x10 /home/ming/tf-a-stm32mp-2.2.r2-r0/tf-a-stm32mp-2.2.r2/../build/trusted/bl2/bsec2.o
 .text.bsec_set_sp_lock
                0x0000000000000000       0x38 /home/ming/tf-a-stm32mp-2.2.r2-r0/tf-a-stm32mp-2.2.r2/../build/trusted/bl2/bsec2.o
 .text.bsec_otp_lock
                0x0000000000000000       0x2c /home/ming/tf-a-stm32mp-2.2.r2-r0/tf-a-stm32mp-2.2.r2/../build/trusted/bl2/bsec2.o
 .text.bsec_check_nsec_access_rights
                0x0000000000000000        0x4 /home/ming/tf-a-stm32mp-2.2.r2-r0/tf-a-stm32mp-2.2.r2/../build/trusted/bl2/bsec2.o
 .text          0x0000000000000000        0x0 /home/ming/tf-a-stm32mp-2.2.r2-r0/tf-a-stm32mp-2.2.r2/../build/trusted/bl2/stm32mp_clkfunc.o
 .data          0x0000000000000000        0x0 /home/ming/tf-a-stm32mp-2.2.r2-r0/tf-a-stm32mp-2.2.r2/../build/trusted/bl2/stm32mp_clkfunc.o
 .bss           0x0000000000000000        0x0 /home/ming/tf-a-stm32mp-2.2.r2-r0/tf-a-stm32mp-2.2.r2/../build/trusted/bl2/stm32mp_clkfunc.o
 .text.fdt_rcc_read_uint32_default
                0x0000000000000000       0x1e /home/ming/tf-a-stm32mp-2.2.r2-r0/tf-a-stm32mp-2.2.r2/../build/trusted/bl2/stm32mp_clkfunc.o
 .text.fdt_rcc_enable_it
                0x0000000000000000       0x1c /home/ming/tf-a-stm32mp-2.2.r2-r0/tf-a-stm32mp-2.2.r2/../build/trusted/bl2/stm32mp_clkfunc.o
 .text.fdt_get_clock_id_by_name
                0x0000000000000000       0x70 /home/ming/tf-a-stm32mp-2.2.r2-r0/tf-a-stm32mp-2.2.r2/../build/trusted/bl2/stm32mp_clkfunc.o
 .text.fdt_get_uart_clock_freq
                0x0000000000000000       0x30 /home/ming/tf-a-stm32mp-2.2.r2-r0/tf-a-stm32mp-2.2.r2/../build/trusted/bl2/stm32mp_clkfunc.o
 .text.stm32mp_stgen_restore_counter
                0x0000000000000000       0x48 /home/ming/tf-a-stm32mp-2.2.r2-r0/tf-a-stm32mp-2.2.r2/../build/trusted/bl2/stm32mp_clkfunc.o
 .rodata.fdt_get_clock_id_by_name.str1.1
                0x0000000000000000        0xc /home/ming/tf-a-stm32mp-2.2.r2-r0/tf-a-stm32mp-2.2.r2/../build/trusted/bl2/stm32mp_clkfunc.o
 .rodata.fdt_get_uart_clock_freq.str1.1
                0x0000000000000000       0x10 /home/ming/tf-a-stm32mp-2.2.r2-r0/tf-a-stm32mp-2.2.r2/../build/trusted/bl2/stm32mp_clkfunc.o
 .text          0x0000000000000000        0x0 /home/ming/tf-a-stm32mp-2.2.r2-r0/tf-a-stm32mp-2.2.r2/../build/trusted/bl2/stm32mp1_clk.o
 .data          0x0000000000000000        0x0 /home/ming/tf-a-stm32mp-2.2.r2-r0/tf-a-stm32mp-2.2.r2/../build/trusted/bl2/stm32mp1_clk.o
 .bss           0x0000000000000000        0x0 /home/ming/tf-a-stm32mp-2.2.r2-r0/tf-a-stm32mp-2.2.r2/../build/trusted/bl2/stm32mp1_clk.o
 .text.stm32mp1_pll1_config_from_opp_khz
                0x0000000000000000      0x14c /home/ming/tf-a-stm32mp-2.2.r2-r0/tf-a-stm32mp-2.2.r2/../build/trusted/bl2/stm32mp1_clk.o
 .text.stm32mp1_rcc_is_secure
                0x0000000000000000        0xe /home/ming/tf-a-stm32mp-2.2.r2-r0/tf-a-stm32mp-2.2.r2/../build/trusted/bl2/stm32mp1_clk.o
 .text.stm32mp1_rcc_is_mckprot
                0x0000000000000000       0x14 /home/ming/tf-a-stm32mp-2.2.r2-r0/tf-a-stm32mp-2.2.r2/../build/trusted/bl2/stm32mp1_clk.o
 .text.stm32mp1_clk_force_disable
                0x0000000000000000        0x6 /home/ming/tf-a-stm32mp-2.2.r2-r0/tf-a-stm32mp-2.2.r2/../build/trusted/bl2/stm32mp1_clk.o
 .text.stm32mp_clk_is_enabled
                0x0000000000000000       0x40 /home/ming/tf-a-stm32mp-2.2.r2-r0/tf-a-stm32mp-2.2.r2/../build/trusted/bl2/stm32mp1_clk.o
 .text.stm32mp_clk_timer_get_rate
                0x0000000000000000       0x3c /home/ming/tf-a-stm32mp-2.2.r2-r0/tf-a-stm32mp-2.2.r2/../build/trusted/bl2/stm32mp1_clk.o
 .text.stm32mp1_rtc_get_read_twice
                0x0000000000000000       0x5e /home/ming/tf-a-stm32mp-2.2.r2-r0/tf-a-stm32mp-2.2.r2/../build/trusted/bl2/stm32mp1_clk.o
 .text.stm32mp1_round_opp_khz
                0x0000000000000000       0x38 /home/ming/tf-a-stm32mp-2.2.r2-r0/tf-a-stm32mp-2.2.r2/../build/trusted/bl2/stm32mp1_clk.o
 .text.stm32mp1_set_opp_khz
                0x0000000000000000       0x70 /home/ming/tf-a-stm32mp-2.2.r2-r0/tf-a-stm32mp-2.2.r2/../build/trusted/bl2/stm32mp1_clk.o
 .text.stm32mp1_clk_compute_all_pll1_settings
                0x0000000000000000      0x138 /home/ming/tf-a-stm32mp-2.2.r2-r0/tf-a-stm32mp-2.2.r2/../build/trusted/bl2/stm32mp1_clk.o
 .text.stm32mp1_clk_lp_save_opp_pll1_settings
                0x0000000000000000       0x2c /home/ming/tf-a-stm32mp-2.2.r2-r0/tf-a-stm32mp-2.2.r2/../build/trusted/bl2/stm32mp1_clk.o
 .text.stm32mp1_clk_rcc2id
                0x0000000000000000       0x48 /home/ming/tf-a-stm32mp-2.2.r2-r0/tf-a-stm32mp-2.2.r2/../build/trusted/bl2/stm32mp1_clk.o
 .text.stm32mp1_register_clock_parents_secure
                0x0000000000000000        0x2 /home/ming/tf-a-stm32mp-2.2.r2-r0/tf-a-stm32mp-2.2.r2/../build/trusted/bl2/stm32mp1_clk.o
 .text.save_clock_pm_context
                0x0000000000000000       0x50 /home/ming/tf-a-stm32mp-2.2.r2-r0/tf-a-stm32mp-2.2.r2/../build/trusted/bl2/stm32mp1_clk.o
 .text.restore_clock_pm_context
                0x0000000000000000       0x50 /home/ming/tf-a-stm32mp-2.2.r2-r0/tf-a-stm32mp-2.2.r2/../build/trusted/bl2/stm32mp1_clk.o
 .text.stm32mp1_clock_suspend
                0x0000000000000000       0x8c /home/ming/tf-a-stm32mp-2.2.r2-r0/tf-a-stm32mp-2.2.r2/../build/trusted/bl2/stm32mp1_clk.o
 .text.stm32mp1_clock_resume
                0x0000000000000000       0xd4 /home/ming/tf-a-stm32mp-2.2.r2-r0/tf-a-stm32mp-2.2.r2/../build/trusted/bl2/stm32mp1_clk.o
 .text.stm32mp1_clock_stopmode_save
                0x0000000000000000       0x4c /home/ming/tf-a-stm32mp-2.2.r2-r0/tf-a-stm32mp-2.2.r2/../build/trusted/bl2/stm32mp1_clk.o
 .text.stm32mp1_clock_stopmode_resume
                0x0000000000000000       0x98 /home/ming/tf-a-stm32mp-2.2.r2-r0/tf-a-stm32mp-2.2.r2/../build/trusted/bl2/stm32mp1_clk.o
 .text.stm32mp1_dump_clocks_state
                0x0000000000000000        0x2 /home/ming/tf-a-stm32mp-2.2.r2-r0/tf-a-stm32mp-2.2.r2/../build/trusted/bl2/stm32mp1_clk.o
 .bss.mcudivr   0x0000000000000000        0x4 /home/ming/tf-a-stm32mp-2.2.r2-r0/tf-a-stm32mp-2.2.r2/../build/trusted/bl2/stm32mp1_clk.o
 .bss.mssckselr
                0x0000000000000000        0x4 /home/ming/tf-a-stm32mp-2.2.r2-r0/tf-a-stm32mp-2.2.r2/../build/trusted/bl2/stm32mp1_clk.o
 .bss.pll3cr    0x0000000000000000        0x4 /home/ming/tf-a-stm32mp-2.2.r2-r0/tf-a-stm32mp-2.2.r2/../build/trusted/bl2/stm32mp1_clk.o
 .bss.pll4cr    0x0000000000000000        0x4 /home/ming/tf-a-stm32mp-2.2.r2-r0/tf-a-stm32mp-2.2.r2/../build/trusted/bl2/stm32mp1_clk.o
 .data.backup_clock_cfg
                0x0000000000000000       0x38 /home/ming/tf-a-stm32mp-2.2.r2-r0/tf-a-stm32mp-2.2.r2/../build/trusted/bl2/stm32mp1_clk.o
 .data.backup_clock_sc_cfg
                0x0000000000000000       0x58 /home/ming/tf-a-stm32mp-2.2.r2-r0/tf-a-stm32mp-2.2.r2/../build/trusted/bl2/stm32mp1_clk.o
 .data.backup_mux0_cfg
                0x0000000000000000       0x88 /home/ming/tf-a-stm32mp-2.2.r2-r0/tf-a-stm32mp-2.2.r2/../build/trusted/bl2/stm32mp1_clk.o
 .data.backup_mux4_cfg
                0x0000000000000000        0x4 /home/ming/tf-a-stm32mp-2.2.r2-r0/tf-a-stm32mp-2.2.r2/../build/trusted/bl2/stm32mp1_clk.o
 .rodata.stm32mp1_clk_compute_all_pll1_settings.str1.1
                0x0000000000000000       0x32 /home/ming/tf-a-stm32mp-2.2.r2-r0/tf-a-stm32mp-2.2.r2/../build/trusted/bl2/stm32mp1_clk.o
 .rodata.stm32mp1_set_opp_khz.str1.1
                0x0000000000000000       0x24 /home/ming/tf-a-stm32mp-2.2.r2-r0/tf-a-stm32mp-2.2.r2/../build/trusted/bl2/stm32mp1_clk.o
 .text          0x0000000000000000        0x0 /home/ming/tf-a-stm32mp-2.2.r2-r0/tf-a-stm32mp-2.2.r2/../build/trusted/bl2/stm32mp1_ddr_helpers.o
 .data          0x0000000000000000        0x0 /home/ming/tf-a-stm32mp-2.2.r2-r0/tf-a-stm32mp-2.2.r2/../build/trusted/bl2/stm32mp1_ddr_helpers.o
 .bss           0x0000000000000000        0x0 /home/ming/tf-a-stm32mp-2.2.r2-r0/tf-a-stm32mp-2.2.r2/../build/trusted/bl2/stm32mp1_ddr_helpers.o
 .text.do_sw_handshake
                0x0000000000000000       0x14 /home/ming/tf-a-stm32mp-2.2.r2-r0/tf-a-stm32mp-2.2.r2/../build/trusted/bl2/stm32mp1_ddr_helpers.o
 .text.do_sw_ack
                0x0000000000000000       0x5c /home/ming/tf-a-stm32mp-2.2.r2-r0/tf-a-stm32mp-2.2.r2/../build/trusted/bl2/stm32mp1_ddr_helpers.o
 .text.ddr_sw_self_refresh_exit
                0x0000000000000000      0x1f4 /home/ming/tf-a-stm32mp-2.2.r2-r0/tf-a-stm32mp-2.2.r2/../build/trusted/bl2/stm32mp1_ddr_helpers.o
 .text.ddr_standby_sr_entry
                0x0000000000000000      0x238 /home/ming/tf-a-stm32mp-2.2.r2-r0/tf-a-stm32mp-2.2.r2/../build/trusted/bl2/stm32mp1_ddr_helpers.o
 .text.ddr_save_sr_mode
                0x0000000000000000       0x10 /home/ming/tf-a-stm32mp-2.2.r2-r0/tf-a-stm32mp-2.2.r2/../build/trusted/bl2/stm32mp1_ddr_helpers.o
 .text.ddr_restore_sr_mode
                0x0000000000000000        0xc /home/ming/tf-a-stm32mp-2.2.r2-r0/tf-a-stm32mp-2.2.r2/../build/trusted/bl2/stm32mp1_ddr_helpers.o
 .text.ddr_is_nonsecured_area
                0x0000000000000000       0x58 /home/ming/tf-a-stm32mp-2.2.r2-r0/tf-a-stm32mp-2.2.r2/../build/trusted/bl2/stm32mp1_ddr_helpers.o
 .bss.saved_ddr_sr_mode
                0x0000000000000000        0x4 /home/ming/tf-a-stm32mp-2.2.r2-r0/tf-a-stm32mp-2.2.r2/../build/trusted/bl2/stm32mp1_ddr_helpers.o
 .text          0x0000000000000000        0x0 /home/ming/tf-a-stm32mp-2.2.r2-r0/tf-a-stm32mp-2.2.r2/../build/trusted/bl2/stm32_gpio.o
 .data          0x0000000000000000        0x0 /home/ming/tf-a-stm32mp-2.2.r2-r0/tf-a-stm32mp-2.2.r2/../build/trusted/bl2/stm32_gpio.o
 .bss           0x0000000000000000        0x0 /home/ming/tf-a-stm32mp-2.2.r2-r0/tf-a-stm32mp-2.2.r2/../build/trusted/bl2/stm32_gpio.o
 .text.set_gpio_secure_cfg
                0x0000000000000000       0x48 /home/ming/tf-a-stm32mp-2.2.r2-r0/tf-a-stm32mp-2.2.r2/../build/trusted/bl2/stm32_gpio.o
 .text          0x0000000000000000        0x0 /home/ming/tf-a-stm32mp-2.2.r2-r0/tf-a-stm32mp-2.2.r2/../build/trusted/bl2/stm32_i2c.o
 .data          0x0000000000000000        0x0 /home/ming/tf-a-stm32mp-2.2.r2-r0/tf-a-stm32mp-2.2.r2/../build/trusted/bl2/stm32_i2c.o
 .bss           0x0000000000000000        0x0 /home/ming/tf-a-stm32mp-2.2.r2-r0/tf-a-stm32mp-2.2.r2/../build/trusted/bl2/stm32_i2c.o
 .text.stm32_i2c_master_transmit
                0x0000000000000000       0x18 /home/ming/tf-a-stm32mp-2.2.r2-r0/tf-a-stm32mp-2.2.r2/../build/trusted/bl2/stm32_i2c.o
 .text.stm32_i2c_master_receive
                0x0000000000000000       0x14 /home/ming/tf-a-stm32mp-2.2.r2-r0/tf-a-stm32mp-2.2.r2/../build/trusted/bl2/stm32_i2c.o
 .text          0x0000000000000000        0x0 /home/ming/tf-a-stm32mp-2.2.r2-r0/tf-a-stm32mp-2.2.r2/../build/trusted/bl2/stm32_iwdg.o
 .data          0x0000000000000000        0x0 /home/ming/tf-a-stm32mp-2.2.r2-r0/tf-a-stm32mp-2.2.r2/../build/trusted/bl2/stm32_iwdg.o
 .bss           0x0000000000000000        0x0 /home/ming/tf-a-stm32mp-2.2.r2-r0/tf-a-stm32mp-2.2.r2/../build/trusted/bl2/stm32_iwdg.o
 .text          0x0000000000000000        0x0 /home/ming/tf-a-stm32mp-2.2.r2-r0/tf-a-stm32mp-2.2.r2/../build/trusted/bl2/stm32mp_pmic.o
 .data          0x0000000000000000        0x0 /home/ming/tf-a-stm32mp-2.2.r2-r0/tf-a-stm32mp-2.2.r2/../build/trusted/bl2/stm32mp_pmic.o
 .bss           0x0000000000000000        0x0 /home/ming/tf-a-stm32mp-2.2.r2-r0/tf-a-stm32mp-2.2.r2/../build/trusted/bl2/stm32mp_pmic.o
 .text.pmic_set_lp_config
                0x0000000000000000        0xa /home/ming/tf-a-stm32mp-2.2.r2-r0/tf-a-stm32mp-2.2.r2/../build/trusted/bl2/stm32mp_pmic.o
 .text.pmic_set_regulator_min_voltage
                0x0000000000000000       0x2e /home/ming/tf-a-stm32mp-2.2.r2-r0/tf-a-stm32mp-2.2.r2/../build/trusted/bl2/stm32mp_pmic.o
 .text          0x0000000000000000        0x0 /home/ming/tf-a-stm32mp-2.2.r2-r0/tf-a-stm32mp-2.2.r2/../build/trusted/bl2/stpmic1.o
 .data          0x0000000000000000        0x0 /home/ming/tf-a-stm32mp-2.2.r2-r0/tf-a-stm32mp-2.2.r2/../build/trusted/bl2/stpmic1.o
 .bss           0x0000000000000000        0x0 /home/ming/tf-a-stm32mp-2.2.r2-r0/tf-a-stm32mp-2.2.r2/../build/trusted/bl2/stpmic1.o
 .text.stpmic1_lp_copy_reg
                0x0000000000000000       0x26 /home/ming/tf-a-stm32mp-2.2.r2-r0/tf-a-stm32mp-2.2.r2/../build/trusted/bl2/stpmic1.o
 .text.stpmic1_powerctrl_on
                0x0000000000000000        0xa /home/ming/tf-a-stm32mp-2.2.r2-r0/tf-a-stm32mp-2.2.r2/../build/trusted/bl2/stpmic1.o
 .text.stpmic1_switch_off
                0x0000000000000000        0xa /home/ming/tf-a-stm32mp-2.2.r2-r0/tf-a-stm32mp-2.2.r2/../build/trusted/bl2/stpmic1.o
 .text.stpmic1_lp_reg_on_off
                0x0000000000000000       0x16 /home/ming/tf-a-stm32mp-2.2.r2-r0/tf-a-stm32mp-2.2.r2/../build/trusted/bl2/stpmic1.o
 .text.stpmic1_lp_set_mode
                0x0000000000000000       0x1a /home/ming/tf-a-stm32mp-2.2.r2-r0/tf-a-stm32mp-2.2.r2/../build/trusted/bl2/stpmic1.o
 .text.stpmic1_lp_set_voltage
                0x0000000000000000       0x5c /home/ming/tf-a-stm32mp-2.2.r2-r0/tf-a-stm32mp-2.2.r2/../build/trusted/bl2/stpmic1.o
 .text          0x0000000000000000        0x0 /home/ming/tf-a-stm32mp-2.2.r2-r0/tf-a-stm32mp-2.2.r2/../build/trusted/bl2/stm32mp_dummy_regulator.o
 .data          0x0000000000000000        0x0 /home/ming/tf-a-stm32mp-2.2.r2-r0/tf-a-stm32mp-2.2.r2/../build/trusted/bl2/stm32mp_dummy_regulator.o
 .bss           0x0000000000000000        0x0 /home/ming/tf-a-stm32mp-2.2.r2-r0/tf-a-stm32mp-2.2.r2/../build/trusted/bl2/stm32mp_dummy_regulator.o
 .text          0x0000000000000000        0x0 /home/ming/tf-a-stm32mp-2.2.r2-r0/tf-a-stm32mp-2.2.r2/../build/trusted/bl2/stm32mp_regulator.o
 .data          0x0000000000000000        0x0 /home/ming/tf-a-stm32mp-2.2.r2-r0/tf-a-stm32mp-2.2.r2/../build/trusted/bl2/stm32mp_regulator.o
 .bss           0x0000000000000000        0x0 /home/ming/tf-a-stm32mp-2.2.r2-r0/tf-a-stm32mp-2.2.r2/../build/trusted/bl2/stm32mp_regulator.o
 .text.plat_bind_regulator
                0x0000000000000000        0x6 /home/ming/tf-a-stm32mp-2.2.r2-r0/tf-a-stm32mp-2.2.r2/../build/trusted/bl2/stm32mp_regulator.o
 .text          0x0000000000000000        0x0 /home/ming/tf-a-stm32mp-2.2.r2-r0/tf-a-stm32mp-2.2.r2/../build/trusted/bl2/stm32mp1_reset.o
 .data          0x0000000000000000        0x0 /home/ming/tf-a-stm32mp-2.2.r2-r0/tf-a-stm32mp-2.2.r2/../build/trusted/bl2/stm32mp1_reset.o
 .bss           0x0000000000000000        0x0 /home/ming/tf-a-stm32mp-2.2.r2-r0/tf-a-stm32mp-2.2.r2/../build/trusted/bl2/stm32mp1_reset.o
 .text.stm32mp_reset_assert_deassert_to_mcu
                0x0000000000000000       0x1e /home/ming/tf-a-stm32mp-2.2.r2-r0/tf-a-stm32mp-2.2.r2/../build/trusted/bl2/stm32mp1_reset.o
 .text          0x0000000000000000        0x0 /home/ming/tf-a-stm32mp-2.2.r2-r0/tf-a-stm32mp-2.2.r2/../build/trusted/bl2/stm32mp_dt.o
 .data          0x0000000000000000        0x0 /home/ming/tf-a-stm32mp-2.2.r2-r0/tf-a-stm32mp-2.2.r2/../build/trusted/bl2/stm32mp_dt.o
 .bss           0x0000000000000000        0x0 /home/ming/tf-a-stm32mp-2.2.r2-r0/tf-a-stm32mp-2.2.r2/../build/trusted/bl2/stm32mp_dt.o
 .text.fdt_get_interrupt
                0x0000000000000000       0x5c /home/ming/tf-a-stm32mp-2.2.r2-r0/tf-a-stm32mp-2.2.r2/../build/trusted/bl2/stm32mp_dt.o
 .text.dt_get_all_opp_freqvolt
                0x0000000000000000       0x94 /home/ming/tf-a-stm32mp-2.2.r2-r0/tf-a-stm32mp-2.2.r2/../build/trusted/bl2/stm32mp_dt.o
 .text.fdt_get_gpio_bank_pinctrl_node
                0x0000000000000000       0x30 /home/ming/tf-a-stm32mp-2.2.r2-r0/tf-a-stm32mp-2.2.r2/../build/trusted/bl2/stm32mp_dt.o
 .text.fdt_get_gpioz_nbpins_from_dt
                0x0000000000000000       0x9c /home/ming/tf-a-stm32mp-2.2.r2-r0/tf-a-stm32mp-2.2.r2/../build/trusted/bl2/stm32mp_dt.o
 .rodata.fdt_get_gpio_bank_pinctrl_node.str1.1
                0x0000000000000000       0x2a /home/ming/tf-a-stm32mp-2.2.r2-r0/tf-a-stm32mp-2.2.r2/../build/trusted/bl2/stm32mp_dt.o
 .rodata.fdt_get_gpioz_nbpins_from_dt.str1.1
                0x0000000000000000       0x17 /home/ming/tf-a-stm32mp-2.2.r2-r0/tf-a-stm32mp-2.2.r2/../build/trusted/bl2/stm32mp_dt.o
 .rodata.fdt_get_interrupt.str1.1
                0x0000000000000000       0x31 /home/ming/tf-a-stm32mp-2.2.r2-r0/tf-a-stm32mp-2.2.r2/../build/trusted/bl2/stm32mp_dt.o
 .text          0x0000000000000000        0x0 /home/ming/tf-a-stm32mp-2.2.r2-r0/tf-a-stm32mp-2.2.r2/../build/trusted/bl2/stm32mp_shres_helpers.o
 .data          0x0000000000000000        0x0 /home/ming/tf-a-stm32mp-2.2.r2-r0/tf-a-stm32mp-2.2.r2/../build/trusted/bl2/stm32mp_shres_helpers.o
 .bss           0x0000000000000000        0x0 /home/ming/tf-a-stm32mp-2.2.r2-r0/tf-a-stm32mp-2.2.r2/../build/trusted/bl2/stm32mp_shres_helpers.o
 .text.stm32mp_mmio_clrsetbits_32_shregs
                0x0000000000000000       0x1e /home/ming/tf-a-stm32mp-2.2.r2-r0/tf-a-stm32mp-2.2.r2/../build/trusted/bl2/stm32mp_shres_helpers.o
 .text          0x0000000000000000        0x0 /home/ming/tf-a-stm32mp-2.2.r2-r0/tf-a-stm32mp-2.2.r2/../build/trusted/bl2/stm32mp1_context.o
 .data          0x0000000000000000        0x0 /home/ming/tf-a-stm32mp-2.2.r2-r0/tf-a-stm32mp-2.2.r2/../build/trusted/bl2/stm32mp1_context.o
 .bss           0x0000000000000000        0x0 /home/ming/tf-a-stm32mp-2.2.r2-r0/tf-a-stm32mp-2.2.r2/../build/trusted/bl2/stm32mp1_context.o
 .text.stm32_clean_context
                0x0000000000000000       0x1e /home/ming/tf-a-stm32mp-2.2.r2-r0/tf-a-stm32mp-2.2.r2/../build/trusted/bl2/stm32mp1_context.o
 .text.stm32mp1_pm_save_clock_cfg
                0x0000000000000000       0x38 /home/ming/tf-a-stm32mp-2.2.r2-r0/tf-a-stm32mp-2.2.r2/../build/trusted/bl2/stm32mp1_context.o
 .text.stm32mp1_pm_restore_clock_cfg
                0x0000000000000000       0x38 /home/ming/tf-a-stm32mp-2.2.r2-r0/tf-a-stm32mp-2.2.r2/../build/trusted/bl2/stm32mp1_context.o
 .text.stm32_save_context
                0x0000000000000000       0x84 /home/ming/tf-a-stm32mp-2.2.r2-r0/tf-a-stm32mp-2.2.r2/../build/trusted/bl2/stm32mp1_context.o
 .text.stm32_restore_context
                0x0000000000000000       0x84 /home/ming/tf-a-stm32mp-2.2.r2-r0/tf-a-stm32mp-2.2.r2/../build/trusted/bl2/stm32mp1_context.o
 .text.stm32_get_stgen_from_context
                0x0000000000000000       0x1c /home/ming/tf-a-stm32mp-2.2.r2-r0/tf-a-stm32mp-2.2.r2/../build/trusted/bl2/stm32mp1_context.o
 .text.stm32_are_pll1_settings_valid_in_context
                0x0000000000000000       0x2c /home/ming/tf-a-stm32mp-2.2.r2-r0/tf-a-stm32mp-2.2.r2/../build/trusted/bl2/stm32mp1_context.o
 .text.stm32_get_boot_interface
                0x0000000000000000       0x2c /home/ming/tf-a-stm32mp-2.2.r2-r0/tf-a-stm32mp-2.2.r2/../build/trusted/bl2/stm32mp1_context.o
 .text          0x0000000000000000        0x0 /home/ming/tf-a-stm32mp-2.2.r2-r0/tf-a-stm32mp-2.2.r2/../build/trusted/bl2/stm32mp1_dbgmcu.o
 .data          0x0000000000000000        0x0 /home/ming/tf-a-stm32mp-2.2.r2-r0/tf-a-stm32mp-2.2.r2/../build/trusted/bl2/stm32mp1_dbgmcu.o
 .bss           0x0000000000000000        0x0 /home/ming/tf-a-stm32mp-2.2.r2-r0/tf-a-stm32mp-2.2.r2/../build/trusted/bl2/stm32mp1_dbgmcu.o
 .text          0x0000000000000000        0x0 /home/ming/tf-a-stm32mp-2.2.r2-r0/tf-a-stm32mp-2.2.r2/../build/trusted/bl2/stm32mp1_security.o
 .data          0x0000000000000000        0x0 /home/ming/tf-a-stm32mp-2.2.r2-r0/tf-a-stm32mp-2.2.r2/../build/trusted/bl2/stm32mp1_security.o
 .bss           0x0000000000000000        0x0 /home/ming/tf-a-stm32mp-2.2.r2-r0/tf-a-stm32mp-2.2.r2/../build/trusted/bl2/stm32mp1_security.o
 .text.stm32mp1_security_setup
                0x0000000000000000       0x58 /home/ming/tf-a-stm32mp-2.2.r2-r0/tf-a-stm32mp-2.2.r2/../build/trusted/bl2/stm32mp1_security.o
 .text          0x0000000000000000        0x0 /home/ming/tf-a-stm32mp-2.2.r2-r0/tf-a-stm32mp-2.2.r2/../build/trusted/bl2/stm32mp1_syscfg.o
 .data          0x0000000000000000        0x0 /home/ming/tf-a-stm32mp-2.2.r2-r0/tf-a-stm32mp-2.2.r2/../build/trusted/bl2/stm32mp1_syscfg.o
 .bss           0x0000000000000000        0x0 /home/ming/tf-a-stm32mp-2.2.r2-r0/tf-a-stm32mp-2.2.r2/../build/trusted/bl2/stm32mp1_syscfg.o
 .text.stm32mp1_syscfg_disable_io_compensation
                0x0000000000000000       0x34 /home/ming/tf-a-stm32mp-2.2.r2-r0/tf-a-stm32mp-2.2.r2/../build/trusted/bl2/stm32mp1_syscfg.o
 .text          0x0000000000000000        0x0 /home/ming/tf-a-stm32mp-2.2.r2-r0/tf-a-stm32mp-2.2.r2/../build/trusted/bl2/spinlock.o
 .data          0x0000000000000000        0x0 /home/ming/tf-a-stm32mp-2.2.r2-r0/tf-a-stm32mp-2.2.r2/../build/trusted/bl2/spinlock.o
 .bss           0x0000000000000000        0x0 /home/ming/tf-a-stm32mp-2.2.r2-r0/tf-a-stm32mp-2.2.r2/../build/trusted/bl2/spinlock.o
 .text          0x0000000000000000        0x0 /home/ming/tf-a-stm32mp-2.2.r2-r0/tf-a-stm32mp-2.2.r2/../build/trusted/bl2/platform_up_stack.o
 .data          0x0000000000000000        0x0 /home/ming/tf-a-stm32mp-2.2.r2-r0/tf-a-stm32mp-2.2.r2/../build/trusted/bl2/platform_up_stack.o
 .bss           0x0000000000000000        0x0 /home/ming/tf-a-stm32mp-2.2.r2-r0/tf-a-stm32mp-2.2.r2/../build/trusted/bl2/platform_up_stack.o
 .text.asm.plat_get_my_stack
                0x0000000000000000        0xc /home/ming/tf-a-stm32mp-2.2.r2-r0/tf-a-stm32mp-2.2.r2/../build/trusted/bl2/platform_up_stack.o
 .text          0x0000000000000000        0x0 /home/ming/tf-a-stm32mp-2.2.r2-r0/tf-a-stm32mp-2.2.r2/../build/trusted/bl2/bl2_el3_entrypoint.o
 .data          0x0000000000000000        0x0 /home/ming/tf-a-stm32mp-2.2.r2-r0/tf-a-stm32mp-2.2.r2/../build/trusted/bl2/bl2_el3_entrypoint.o
 .bss           0x0000000000000000        0x0 /home/ming/tf-a-stm32mp-2.2.r2-r0/tf-a-stm32mp-2.2.r2/../build/trusted/bl2/bl2_el3_entrypoint.o
 .text          0x0000000000000000        0x0 /home/ming/tf-a-stm32mp-2.2.r2-r0/tf-a-stm32mp-2.2.r2/../build/trusted/bl2/bl2_el3_exceptions.o
 .data          0x0000000000000000        0x0 /home/ming/tf-a-stm32mp-2.2.r2-r0/tf-a-stm32mp-2.2.r2/../build/trusted/bl2/bl2_el3_exceptions.o
 .bss           0x0000000000000000        0x0 /home/ming/tf-a-stm32mp-2.2.r2-r0/tf-a-stm32mp-2.2.r2/../build/trusted/bl2/bl2_el3_exceptions.o
 .text          0x0000000000000000        0x0 /home/ming/tf-a-stm32mp-2.2.r2-r0/tf-a-stm32mp-2.2.r2/../build/trusted/bl2/cpu_helpers.o
 .data          0x0000000000000000        0x0 /home/ming/tf-a-stm32mp-2.2.r2-r0/tf-a-stm32mp-2.2.r2/../build/trusted/bl2/cpu_helpers.o
 .bss           0x0000000000000000        0x0 /home/ming/tf-a-stm32mp-2.2.r2-r0/tf-a-stm32mp-2.2.r2/../build/trusted/bl2/cpu_helpers.o
 .text.asm.cpu_get_rev_var
                0x0000000000000000       0x10 /home/ming/tf-a-stm32mp-2.2.r2-r0/tf-a-stm32mp-2.2.r2/../build/trusted/bl2/cpu_helpers.o
 .text.asm.cpu_rev_var_ls
                0x0000000000000000       0x10 /home/ming/tf-a-stm32mp-2.2.r2-r0/tf-a-stm32mp-2.2.r2/../build/trusted/bl2/cpu_helpers.o
 .text.asm.cpu_rev_var_hs
                0x0000000000000000       0x10 /home/ming/tf-a-stm32mp-2.2.r2-r0/tf-a-stm32mp-2.2.r2/../build/trusted/bl2/cpu_helpers.o
 .text          0x0000000000000000        0x0 /home/ming/tf-a-stm32mp-2.2.r2-r0/tf-a-stm32mp-2.2.r2/../build/trusted/bl2/debug.o
 .data          0x0000000000000000        0x0 /home/ming/tf-a-stm32mp-2.2.r2-r0/tf-a-stm32mp-2.2.r2/../build/trusted/bl2/debug.o
 .bss           0x0000000000000000        0x0 /home/ming/tf-a-stm32mp-2.2.r2-r0/tf-a-stm32mp-2.2.r2/../build/trusted/bl2/debug.o
 .text          0x0000000000000000        0x0 /home/ming/tf-a-stm32mp-2.2.r2-r0/tf-a-stm32mp-2.2.r2/../build/trusted/bl2/cache_helpers.o
 .data          0x0000000000000000        0x0 /home/ming/tf-a-stm32mp-2.2.r2-r0/tf-a-stm32mp-2.2.r2/../build/trusted/bl2/cache_helpers.o
 .bss           0x0000000000000000        0x0 /home/ming/tf-a-stm32mp-2.2.r2-r0/tf-a-stm32mp-2.2.r2/../build/trusted/bl2/cache_helpers.o
 .text.asm.do_dcsw_op
                0x0000000000000000       0x9c /home/ming/tf-a-stm32mp-2.2.r2-r0/tf-a-stm32mp-2.2.r2/../build/trusted/bl2/cache_helpers.o
 .text.asm.dcsw_op_louis
                0x0000000000000000       0x14 /home/ming/tf-a-stm32mp-2.2.r2-r0/tf-a-stm32mp-2.2.r2/../build/trusted/bl2/cache_helpers.o
 .text.asm.dcsw_op_all
                0x0000000000000000       0x14 /home/ming/tf-a-stm32mp-2.2.r2-r0/tf-a-stm32mp-2.2.r2/../build/trusted/bl2/cache_helpers.o
 .text.asm.dcsw_op_level1
                0x0000000000000000       0x10 /home/ming/tf-a-stm32mp-2.2.r2-r0/tf-a-stm32mp-2.2.r2/../build/trusted/bl2/cache_helpers.o
 .text.asm.dcsw_op_level2
                0x0000000000000000       0x10 /home/ming/tf-a-stm32mp-2.2.r2-r0/tf-a-stm32mp-2.2.r2/../build/trusted/bl2/cache_helpers.o
 .text.asm.dcsw_op_level3
                0x0000000000000000       0x10 /home/ming/tf-a-stm32mp-2.2.r2-r0/tf-a-stm32mp-2.2.r2/../build/trusted/bl2/cache_helpers.o
 .text          0x0000000000000000        0x0 /home/ming/tf-a-stm32mp-2.2.r2-r0/tf-a-stm32mp-2.2.r2/../build/trusted/bl2/misc_helpers.o
 .data          0x0000000000000000        0x0 /home/ming/tf-a-stm32mp-2.2.r2-r0/tf-a-stm32mp-2.2.r2/../build/trusted/bl2/misc_helpers.o
 .bss           0x0000000000000000        0x0 /home/ming/tf-a-stm32mp-2.2.r2-r0/tf-a-stm32mp-2.2.r2/../build/trusted/bl2/misc_helpers.o
 .text.asm.smc  0x0000000000000000        0x8 /home/ming/tf-a-stm32mp-2.2.r2-r0/tf-a-stm32mp-2.2.r2/../build/trusted/bl2/misc_helpers.o
 .text.asm.memcpy4
                0x0000000000000000       0x50 /home/ming/tf-a-stm32mp-2.2.r2-r0/tf-a-stm32mp-2.2.r2/../build/trusted/bl2/misc_helpers.o
 .rodata.str1.1
                0x0000000000000000       0x1b /home/ming/tf-a-stm32mp-2.2.r2-r0/tf-a-stm32mp-2.2.r2/../build/trusted/bl2/misc_helpers.o
 .text          0x0000000000000000        0x0 /home/ming/tf-a-stm32mp-2.2.r2-r0/tf-a-stm32mp-2.2.r2/../build/trusted/bl2/platform_helpers.o
 .data          0x0000000000000000        0x0 /home/ming/tf-a-stm32mp-2.2.r2-r0/tf-a-stm32mp-2.2.r2/../build/trusted/bl2/platform_helpers.o
 .bss           0x0000000000000000        0x0 /home/ming/tf-a-stm32mp-2.2.r2-r0/tf-a-stm32mp-2.2.r2/../build/trusted/bl2/platform_helpers.o
 .text.asm.plat_report_exception
                0x0000000000000000        0x4 /home/ming/tf-a-stm32mp-2.2.r2-r0/tf-a-stm32mp-2.2.r2/../build/trusted/bl2/platform_helpers.o
 .text.asm.plat_report_undef_inst
                0x0000000000000000        0x4 /home/ming/tf-a-stm32mp-2.2.r2-r0/tf-a-stm32mp-2.2.r2/../build/trusted/bl2/platform_helpers.o
 .text.asm.plat_report_prefetch_abort
                0x0000000000000000        0x4 /home/ming/tf-a-stm32mp-2.2.r2-r0/tf-a-stm32mp-2.2.r2/../build/trusted/bl2/platform_helpers.o
 .text.asm.plat_report_data_abort
                0x0000000000000000        0x4 /home/ming/tf-a-stm32mp-2.2.r2-r0/tf-a-stm32mp-2.2.r2/../build/trusted/bl2/platform_helpers.o
 .text.asm.plat_reset_handler
                0x0000000000000000        0x4 /home/ming/tf-a-stm32mp-2.2.r2-r0/tf-a-stm32mp-2.2.r2/../build/trusted/bl2/platform_helpers.o
 .text.asm.plat_disable_acp
                0x0000000000000000        0x4 /home/ming/tf-a-stm32mp-2.2.r2-r0/tf-a-stm32mp-2.2.r2/../build/trusted/bl2/platform_helpers.o
 .text.asm.platform_mem_init
                0x0000000000000000        0x4 /home/ming/tf-a-stm32mp-2.2.r2-r0/tf-a-stm32mp-2.2.r2/../build/trusted/bl2/platform_helpers.o
 .text.asm.bl1_plat_prepare_exit
                0x0000000000000000        0x4 /home/ming/tf-a-stm32mp-2.2.r2-r0/tf-a-stm32mp-2.2.r2/../build/trusted/bl2/platform_helpers.o
 .text.asm.plat_panic_handler
                0x0000000000000000        0x4 /home/ming/tf-a-stm32mp-2.2.r2-r0/tf-a-stm32mp-2.2.r2/../build/trusted/bl2/platform_helpers.o
 .debug_line    0x0000000000000000       0xd3 /home/ming/tf-a-stm32mp-2.2.r2-r0/tf-a-stm32mp-2.2.r2/../build/trusted/bl2/platform_helpers.o
 .debug_info    0x0000000000000000       0x81 /home/ming/tf-a-stm32mp-2.2.r2-r0/tf-a-stm32mp-2.2.r2/../build/trusted/bl2/platform_helpers.o
 .debug_abbrev  0x0000000000000000       0x12 /home/ming/tf-a-stm32mp-2.2.r2-r0/tf-a-stm32mp-2.2.r2/../build/trusted/bl2/platform_helpers.o
 .debug_aranges
                0x0000000000000000       0x60 /home/ming/tf-a-stm32mp-2.2.r2-r0/tf-a-stm32mp-2.2.r2/../build/trusted/bl2/platform_helpers.o
 .debug_ranges  0x0000000000000000       0x58 /home/ming/tf-a-stm32mp-2.2.r2-r0/tf-a-stm32mp-2.2.r2/../build/trusted/bl2/platform_helpers.o
 .debug_frame   0x0000000000000000       0xa0 /home/ming/tf-a-stm32mp-2.2.r2-r0/tf-a-stm32mp-2.2.r2/../build/trusted/bl2/platform_helpers.o
 .ARM.attributes
                0x0000000000000000       0x2d /home/ming/tf-a-stm32mp-2.2.r2-r0/tf-a-stm32mp-2.2.r2/../build/trusted/bl2/platform_helpers.o
 .text          0x0000000000000000       0x24 /home/ming/tf-a-stm32mp-2.2.r2-r0/tf-a-stm32mp-2.2.r2/../build/trusted/bl2/aeabi_ldivmod.o
 .data          0x0000000000000000        0x0 /home/ming/tf-a-stm32mp-2.2.r2-r0/tf-a-stm32mp-2.2.r2/../build/trusted/bl2/aeabi_ldivmod.o
 .bss           0x0000000000000000        0x0 /home/ming/tf-a-stm32mp-2.2.r2-r0/tf-a-stm32mp-2.2.r2/../build/trusted/bl2/aeabi_ldivmod.o
 .debug_line    0x0000000000000000       0x66 /home/ming/tf-a-stm32mp-2.2.r2-r0/tf-a-stm32mp-2.2.r2/../build/trusted/bl2/aeabi_ldivmod.o
 .debug_info    0x0000000000000000       0x8b /home/ming/tf-a-stm32mp-2.2.r2-r0/tf-a-stm32mp-2.2.r2/../build/trusted/bl2/aeabi_ldivmod.o
 .debug_abbrev  0x0000000000000000       0x14 /home/ming/tf-a-stm32mp-2.2.r2-r0/tf-a-stm32mp-2.2.r2/../build/trusted/bl2/aeabi_ldivmod.o
 .debug_aranges
                0x0000000000000000       0x20 /home/ming/tf-a-stm32mp-2.2.r2-r0/tf-a-stm32mp-2.2.r2/../build/trusted/bl2/aeabi_ldivmod.o
 .ARM.attributes
                0x0000000000000000       0x2d /home/ming/tf-a-stm32mp-2.2.r2-r0/tf-a-stm32mp-2.2.r2/../build/trusted/bl2/aeabi_ldivmod.o
 .data          0x0000000000000000        0x0 /home/ming/tf-a-stm32mp-2.2.r2-r0/tf-a-stm32mp-2.2.r2/../build/trusted/bl2/aeabi_uldivmod.o
 .bss           0x0000000000000000        0x0 /home/ming/tf-a-stm32mp-2.2.r2-r0/tf-a-stm32mp-2.2.r2/../build/trusted/bl2/aeabi_uldivmod.o
 .text          0x0000000000000000        0x0 /home/ming/tf-a-stm32mp-2.2.r2-r0/tf-a-stm32mp-2.2.r2/../build/trusted/bl2/stm32_console.o
 .data          0x0000000000000000        0x0 /home/ming/tf-a-stm32mp-2.2.r2-r0/tf-a-stm32mp-2.2.r2/../build/trusted/bl2/stm32_console.o
 .bss           0x0000000000000000        0x0 /home/ming/tf-a-stm32mp-2.2.r2-r0/tf-a-stm32mp-2.2.r2/../build/trusted/bl2/stm32_console.o
 .text.asm.console_stm32_core_getc
                0x0000000000000000        0x8 /home/ming/tf-a-stm32mp-2.2.r2-r0/tf-a-stm32mp-2.2.r2/../build/trusted/bl2/stm32_console.o
 .text          0x0000000000000000        0x0 /home/ming/tf-a-stm32mp-2.2.r2-r0/tf-a-stm32mp-2.2.r2/../build/trusted/bl2/enable_mmu.o
 .data          0x0000000000000000        0x0 /home/ming/tf-a-stm32mp-2.2.r2-r0/tf-a-stm32mp-2.2.r2/../build/trusted/bl2/enable_mmu.o
 .bss           0x0000000000000000        0x0 /home/ming/tf-a-stm32mp-2.2.r2-r0/tf-a-stm32mp-2.2.r2/../build/trusted/bl2/enable_mmu.o
 .text.asm.enable_mmu_direct_hyp
                0x0000000000000000       0x74 /home/ming/tf-a-stm32mp-2.2.r2-r0/tf-a-stm32mp-2.2.r2/../build/trusted/bl2/enable_mmu.o
 .text          0x0000000000000000        0x0 /home/ming/tf-a-stm32mp-2.2.r2-r0/tf-a-stm32mp-2.2.r2/../build/trusted/bl2/cortex_a7.o
 .data          0x0000000000000000        0x0 /home/ming/tf-a-stm32mp-2.2.r2-r0/tf-a-stm32mp-2.2.r2/../build/trusted/bl2/cortex_a7.o
 .bss           0x0000000000000000        0x0 /home/ming/tf-a-stm32mp-2.2.r2-r0/tf-a-stm32mp-2.2.r2/../build/trusted/bl2/cortex_a7.o
 .text.asm.cortex_a7_disable_smp
                0x0000000000000000       0x18 /home/ming/tf-a-stm32mp-2.2.r2-r0/tf-a-stm32mp-2.2.r2/../build/trusted/bl2/cortex_a7.o
 .text.asm.cortex_a7_core_pwr_dwn
                0x0000000000000000       0x30 /home/ming/tf-a-stm32mp-2.2.r2-r0/tf-a-stm32mp-2.2.r2/../build/trusted/bl2/cortex_a7.o
 .rodata.str1.1
                0x0000000000000000       0x1d /home/ming/tf-a-stm32mp-2.2.r2-r0/tf-a-stm32mp-2.2.r2/../build/trusted/bl2/cortex_a7.o
 .text.asm.cortex_a7_cluster_pwr_dwn
                0x0000000000000000       0x34 /home/ming/tf-a-stm32mp-2.2.r2-r0/tf-a-stm32mp-2.2.r2/../build/trusted/bl2/cortex_a7.o
 .text          0x0000000000000000        0x0 /home/ming/tf-a-stm32mp-2.2.r2-r0/tf-a-stm32mp-2.2.r2/../build/trusted/bl2/stm32mp1_helper.o
 .data          0x0000000000000000        0x0 /home/ming/tf-a-stm32mp-2.2.r2-r0/tf-a-stm32mp-2.2.r2/../build/trusted/bl2/stm32mp1_helper.o
 .bss           0x0000000000000000        0x0 /home/ming/tf-a-stm32mp-2.2.r2-r0/tf-a-stm32mp-2.2.r2/../build/trusted/bl2/stm32mp1_helper.o
 .text.asm.plat_stm32mp1_get_core_pos
                0x0000000000000000       0x10 /home/ming/tf-a-stm32mp-2.2.r2-r0/tf-a-stm32mp-2.2.r2/../build/trusted/bl2/stm32mp1_helper.o
 .text.asm.plat_my_core_pos
                0x0000000000000000        0x8 /home/ming/tf-a-stm32mp-2.2.r2-r0/tf-a-stm32mp-2.2.r2/../build/trusted/bl2/stm32mp1_helper.o
 .text.asm.wfi_svc_int_enable
                0x0000000000000000       0x44 /home/ming/tf-a-stm32mp-2.2.r2-r0/tf-a-stm32mp-2.2.r2/../build/trusted/bl2/stm32mp1_helper.o
 .text          0x0000000000000000        0x0 /home/ming/tf-a-stm32mp-2.2.r2-r0/tf-a-stm32mp-2.2.r2/../build/trusted/lib/libfdt.a(fdt.o)
 .data          0x0000000000000000        0x0 /home/ming/tf-a-stm32mp-2.2.r2-r0/tf-a-stm32mp-2.2.r2/../build/trusted/lib/libfdt.a(fdt.o)
 .bss           0x0000000000000000        0x0 /home/ming/tf-a-stm32mp-2.2.r2-r0/tf-a-stm32mp-2.2.r2/../build/trusted/lib/libfdt.a(fdt.o)
 .text.fdt_find_string_
                0x0000000000000000       0x30 /home/ming/tf-a-stm32mp-2.2.r2-r0/tf-a-stm32mp-2.2.r2/../build/trusted/lib/libfdt.a(fdt.o)
 .text.fdt_move
                0x0000000000000000       0x2e /home/ming/tf-a-stm32mp-2.2.r2-r0/tf-a-stm32mp-2.2.r2/../build/trusted/lib/libfdt.a(fdt.o)
 .text          0x0000000000000000        0x0 /home/ming/tf-a-stm32mp-2.2.r2-r0/tf-a-stm32mp-2.2.r2/../build/trusted/lib/libfdt.a(fdt_addresses.o)
 .data          0x0000000000000000        0x0 /home/ming/tf-a-stm32mp-2.2.r2-r0/tf-a-stm32mp-2.2.r2/../build/trusted/lib/libfdt.a(fdt_addresses.o)
 .bss           0x0000000000000000        0x0 /home/ming/tf-a-stm32mp-2.2.r2-r0/tf-a-stm32mp-2.2.r2/../build/trusted/lib/libfdt.a(fdt_addresses.o)
 .text          0x0000000000000000        0x0 /home/ming/tf-a-stm32mp-2.2.r2-r0/tf-a-stm32mp-2.2.r2/../build/trusted/lib/libfdt.a(fdt_ro.o)
 .data          0x0000000000000000        0x0 /home/ming/tf-a-stm32mp-2.2.r2-r0/tf-a-stm32mp-2.2.r2/../build/trusted/lib/libfdt.a(fdt_ro.o)
 .bss           0x0000000000000000        0x0 /home/ming/tf-a-stm32mp-2.2.r2-r0/tf-a-stm32mp-2.2.r2/../build/trusted/lib/libfdt.a(fdt_ro.o)
 .text.fdt64_to_cpu
                0x0000000000000000        0x8 /home/ming/tf-a-stm32mp-2.2.r2-r0/tf-a-stm32mp-2.2.r2/../build/trusted/lib/libfdt.a(fdt_ro.o)
 .text.fdt_get_mem_rsv
                0x0000000000000000       0x3a /home/ming/tf-a-stm32mp-2.2.r2-r0/tf-a-stm32mp-2.2.r2/../build/trusted/lib/libfdt.a(fdt_ro.o)
 .text.fdt_num_mem_rsv
                0x0000000000000000       0x28 /home/ming/tf-a-stm32mp-2.2.r2-r0/tf-a-stm32mp-2.2.r2/../build/trusted/lib/libfdt.a(fdt_ro.o)
 .text.fdt_get_property_by_offset
                0x0000000000000000       0x24 /home/ming/tf-a-stm32mp-2.2.r2-r0/tf-a-stm32mp-2.2.r2/../build/trusted/lib/libfdt.a(fdt_ro.o)
 .text.fdt_get_property_namelen
                0x0000000000000000       0x30 /home/ming/tf-a-stm32mp-2.2.r2-r0/tf-a-stm32mp-2.2.r2/../build/trusted/lib/libfdt.a(fdt_ro.o)
 .text.fdt_get_property
                0x0000000000000000       0x22 /home/ming/tf-a-stm32mp-2.2.r2-r0/tf-a-stm32mp-2.2.r2/../build/trusted/lib/libfdt.a(fdt_ro.o)
 .text.fdt_getprop_by_offset
                0x0000000000000000       0x4a /home/ming/tf-a-stm32mp-2.2.r2-r0/tf-a-stm32mp-2.2.r2/../build/trusted/lib/libfdt.a(fdt_ro.o)
 .text.fdt_get_max_phandle
                0x0000000000000000       0x42 /home/ming/tf-a-stm32mp-2.2.r2-r0/tf-a-stm32mp-2.2.r2/../build/trusted/lib/libfdt.a(fdt_ro.o)
 .text.fdt_get_alias
                0x0000000000000000       0x1a /home/ming/tf-a-stm32mp-2.2.r2-r0/tf-a-stm32mp-2.2.r2/../build/trusted/lib/libfdt.a(fdt_ro.o)
 .text.fdt_get_path
                0x0000000000000000       0xbc /home/ming/tf-a-stm32mp-2.2.r2-r0/tf-a-stm32mp-2.2.r2/../build/trusted/lib/libfdt.a(fdt_ro.o)
 .text.fdt_node_offset_by_prop_value
                0x0000000000000000       0x56 /home/ming/tf-a-stm32mp-2.2.r2-r0/tf-a-stm32mp-2.2.r2/../build/trusted/lib/libfdt.a(fdt_ro.o)
 .text.fdt_stringlist_count
                0x0000000000000000       0x38 /home/ming/tf-a-stm32mp-2.2.r2-r0/tf-a-stm32mp-2.2.r2/../build/trusted/lib/libfdt.a(fdt_ro.o)
 .text.fdt_stringlist_get
                0x0000000000000000       0x60 /home/ming/tf-a-stm32mp-2.2.r2-r0/tf-a-stm32mp-2.2.r2/../build/trusted/lib/libfdt.a(fdt_ro.o)
 .text          0x0000000000000000        0x0 /home/ming/tf-a-stm32mp-2.2.r2-r0/tf-a-stm32mp-2.2.r2/../build/trusted/lib/libc.a(assert.o)
 .data          0x0000000000000000        0x0 /home/ming/tf-a-stm32mp-2.2.r2-r0/tf-a-stm32mp-2.2.r2/../build/trusted/lib/libc.a(assert.o)
 .bss           0x0000000000000000        0x0 /home/ming/tf-a-stm32mp-2.2.r2-r0/tf-a-stm32mp-2.2.r2/../build/trusted/lib/libc.a(assert.o)
 .text          0x0000000000000000        0x0 /home/ming/tf-a-stm32mp-2.2.r2-r0/tf-a-stm32mp-2.2.r2/../build/trusted/lib/libc.a(memchr.o)
 .data          0x0000000000000000        0x0 /home/ming/tf-a-stm32mp-2.2.r2-r0/tf-a-stm32mp-2.2.r2/../build/trusted/lib/libc.a(memchr.o)
 .bss           0x0000000000000000        0x0 /home/ming/tf-a-stm32mp-2.2.r2-r0/tf-a-stm32mp-2.2.r2/../build/trusted/lib/libc.a(memchr.o)
 .text          0x0000000000000000        0x0 /home/ming/tf-a-stm32mp-2.2.r2-r0/tf-a-stm32mp-2.2.r2/../build/trusted/lib/libc.a(memcmp.o)
 .data          0x0000000000000000        0x0 /home/ming/tf-a-stm32mp-2.2.r2-r0/tf-a-stm32mp-2.2.r2/../build/trusted/lib/libc.a(memcmp.o)
 .bss           0x0000000000000000        0x0 /home/ming/tf-a-stm32mp-2.2.r2-r0/tf-a-stm32mp-2.2.r2/../build/trusted/lib/libc.a(memcmp.o)
 .text          0x0000000000000000        0x0 /home/ming/tf-a-stm32mp-2.2.r2-r0/tf-a-stm32mp-2.2.r2/../build/trusted/lib/libc.a(memcpy.o)
 .data          0x0000000000000000        0x0 /home/ming/tf-a-stm32mp-2.2.r2-r0/tf-a-stm32mp-2.2.r2/../build/trusted/lib/libc.a(memcpy.o)
 .bss           0x0000000000000000        0x0 /home/ming/tf-a-stm32mp-2.2.r2-r0/tf-a-stm32mp-2.2.r2/../build/trusted/lib/libc.a(memcpy.o)
 .text          0x0000000000000000        0x0 /home/ming/tf-a-stm32mp-2.2.r2-r0/tf-a-stm32mp-2.2.r2/../build/trusted/lib/libc.a(memmove.o)
 .data          0x0000000000000000        0x0 /home/ming/tf-a-stm32mp-2.2.r2-r0/tf-a-stm32mp-2.2.r2/../build/trusted/lib/libc.a(memmove.o)
 .bss           0x0000000000000000        0x0 /home/ming/tf-a-stm32mp-2.2.r2-r0/tf-a-stm32mp-2.2.r2/../build/trusted/lib/libc.a(memmove.o)
 .text          0x0000000000000000        0x0 /home/ming/tf-a-stm32mp-2.2.r2-r0/tf-a-stm32mp-2.2.r2/../build/trusted/lib/libc.a(memset.o)
 .data          0x0000000000000000        0x0 /home/ming/tf-a-stm32mp-2.2.r2-r0/tf-a-stm32mp-2.2.r2/../build/trusted/lib/libc.a(memset.o)
 .bss           0x0000000000000000        0x0 /home/ming/tf-a-stm32mp-2.2.r2-r0/tf-a-stm32mp-2.2.r2/../build/trusted/lib/libc.a(memset.o)
 .text          0x0000000000000000        0x0 /home/ming/tf-a-stm32mp-2.2.r2-r0/tf-a-stm32mp-2.2.r2/../build/trusted/lib/libc.a(printf.o)
 .data          0x0000000000000000        0x0 /home/ming/tf-a-stm32mp-2.2.r2-r0/tf-a-stm32mp-2.2.r2/../build/trusted/lib/libc.a(printf.o)
 .bss           0x0000000000000000        0x0 /home/ming/tf-a-stm32mp-2.2.r2-r0/tf-a-stm32mp-2.2.r2/../build/trusted/lib/libc.a(printf.o)
 .text          0x0000000000000000        0x0 /home/ming/tf-a-stm32mp-2.2.r2-r0/tf-a-stm32mp-2.2.r2/../build/trusted/lib/libc.a(putchar.o)
 .data          0x0000000000000000        0x0 /home/ming/tf-a-stm32mp-2.2.r2-r0/tf-a-stm32mp-2.2.r2/../build/trusted/lib/libc.a(putchar.o)
 .bss           0x0000000000000000        0x0 /home/ming/tf-a-stm32mp-2.2.r2-r0/tf-a-stm32mp-2.2.r2/../build/trusted/lib/libc.a(putchar.o)
 .text          0x0000000000000000        0x0 /home/ming/tf-a-stm32mp-2.2.r2-r0/tf-a-stm32mp-2.2.r2/../build/trusted/lib/libc.a(snprintf.o)
 .data          0x0000000000000000        0x0 /home/ming/tf-a-stm32mp-2.2.r2-r0/tf-a-stm32mp-2.2.r2/../build/trusted/lib/libc.a(snprintf.o)
 .bss           0x0000000000000000        0x0 /home/ming/tf-a-stm32mp-2.2.r2-r0/tf-a-stm32mp-2.2.r2/../build/trusted/lib/libc.a(snprintf.o)
 .text          0x0000000000000000        0x0 /home/ming/tf-a-stm32mp-2.2.r2-r0/tf-a-stm32mp-2.2.r2/../build/trusted/lib/libc.a(strchr.o)
 .data          0x0000000000000000        0x0 /home/ming/tf-a-stm32mp-2.2.r2-r0/tf-a-stm32mp-2.2.r2/../build/trusted/lib/libc.a(strchr.o)
 .bss           0x0000000000000000        0x0 /home/ming/tf-a-stm32mp-2.2.r2-r0/tf-a-stm32mp-2.2.r2/../build/trusted/lib/libc.a(strchr.o)
 .text          0x0000000000000000        0x0 /home/ming/tf-a-stm32mp-2.2.r2-r0/tf-a-stm32mp-2.2.r2/../build/trusted/lib/libc.a(strcmp.o)
 .data          0x0000000000000000        0x0 /home/ming/tf-a-stm32mp-2.2.r2-r0/tf-a-stm32mp-2.2.r2/../build/trusted/lib/libc.a(strcmp.o)
 .bss           0x0000000000000000        0x0 /home/ming/tf-a-stm32mp-2.2.r2-r0/tf-a-stm32mp-2.2.r2/../build/trusted/lib/libc.a(strcmp.o)
 .text          0x0000000000000000        0x0 /home/ming/tf-a-stm32mp-2.2.r2-r0/tf-a-stm32mp-2.2.r2/../build/trusted/lib/libc.a(strlen.o)
 .data          0x0000000000000000        0x0 /home/ming/tf-a-stm32mp-2.2.r2-r0/tf-a-stm32mp-2.2.r2/../build/trusted/lib/libc.a(strlen.o)
 .bss           0x0000000000000000        0x0 /home/ming/tf-a-stm32mp-2.2.r2-r0/tf-a-stm32mp-2.2.r2/../build/trusted/lib/libc.a(strlen.o)
 .text          0x0000000000000000        0x0 /home/ming/tf-a-stm32mp-2.2.r2-r0/tf-a-stm32mp-2.2.r2/../build/trusted/lib/libc.a(strncmp.o)
 .data          0x0000000000000000        0x0 /home/ming/tf-a-stm32mp-2.2.r2-r0/tf-a-stm32mp-2.2.r2/../build/trusted/lib/libc.a(strncmp.o)
 .bss           0x0000000000000000        0x0 /home/ming/tf-a-stm32mp-2.2.r2-r0/tf-a-stm32mp-2.2.r2/../build/trusted/lib/libc.a(strncmp.o)
 .text          0x0000000000000000        0x0 /home/ming/tf-a-stm32mp-2.2.r2-r0/tf-a-stm32mp-2.2.r2/../build/trusted/lib/libc.a(strnlen.o)
 .data          0x0000000000000000        0x0 /home/ming/tf-a-stm32mp-2.2.r2-r0/tf-a-stm32mp-2.2.r2/../build/trusted/lib/libc.a(strnlen.o)
 .bss           0x0000000000000000        0x0 /home/ming/tf-a-stm32mp-2.2.r2-r0/tf-a-stm32mp-2.2.r2/../build/trusted/lib/libc.a(strnlen.o)
 .text          0x0000000000000000        0x0 /home/ming/tf-a-stm32mp-2.2.r2-r0/tf-a-stm32mp-2.2.r2/../build/trusted/lib/libc.a(strrchr.o)
 .data          0x0000000000000000        0x0 /home/ming/tf-a-stm32mp-2.2.r2-r0/tf-a-stm32mp-2.2.r2/../build/trusted/lib/libc.a(strrchr.o)
 .bss           0x0000000000000000        0x0 /home/ming/tf-a-stm32mp-2.2.r2-r0/tf-a-stm32mp-2.2.r2/../build/trusted/lib/libc.a(strrchr.o)

Memory Configuration

Name             Origin             Length             Attributes
RAM              0x000000002ffd4000 0x0000000000017000 xrw
*default*        0x0000000000000000 0xffffffffffffffff

Linker script and memory map

                0x000000002ffd4000                . = 0x2ffd4000
                0x0000000000000001                ASSERT ((. == ALIGN (0x1000)), BL2_BASE address is not aligned on a page boundary.)

ro              0x000000002ffd4000    0x12000
                0x000000002ffd4000                __RO_START__ = .
                0x000000002ffd4000                __TEXT_RESIDENT_START__ = .
 *bl2_el3_entrypoint.o(.text*)
 .text.asm.bl2_entrypoint
                0x000000002ffd4000      0x158 /home/ming/tf-a-stm32mp-2.2.r2-r0/tf-a-stm32mp-2.2.r2/../build/trusted/bl2/bl2_el3_entrypoint.o
                0x000000002ffd4000                bl2_entrypoint
 .text.asm.bl2_run_next_image
                0x000000002ffd4158       0x40 /home/ming/tf-a-stm32mp-2.2.r2-r0/tf-a-stm32mp-2.2.r2/../build/trusted/bl2/bl2_el3_entrypoint.o
                0x000000002ffd4158                bl2_run_next_image
 *(.text.asm.*)
 .text.asm.spin_lock
                0x000000002ffd4198       0x24 /home/ming/tf-a-stm32mp-2.2.r2-r0/tf-a-stm32mp-2.2.r2/../build/trusted/bl2/spinlock.o
                0x000000002ffd4198                spin_lock
 .text.asm.spin_unlock
                0x000000002ffd41bc       0x18 /home/ming/tf-a-stm32mp-2.2.r2-r0/tf-a-stm32mp-2.2.r2/../build/trusted/bl2/spinlock.o
                0x000000002ffd41bc                spin_unlock
 .text.asm.plat_set_my_stack
                0x000000002ffd41d4       0x10 /home/ming/tf-a-stm32mp-2.2.r2-r0/tf-a-stm32mp-2.2.r2/../build/trusted/bl2/platform_up_stack.o
                0x000000002ffd41d4                plat_set_my_stack
 .text.asm.reset_handler
                0x000000002ffd41e4       0x38 /home/ming/tf-a-stm32mp-2.2.r2-r0/tf-a-stm32mp-2.2.r2/../build/trusted/bl2/cpu_helpers.o
                0x000000002ffd41e4                reset_handler
 .text.asm.get_cpu_ops_ptr
                0x000000002ffd421c       0x44 /home/ming/tf-a-stm32mp-2.2.r2-r0/tf-a-stm32mp-2.2.r2/../build/trusted/bl2/cpu_helpers.o
                0x000000002ffd421c                get_cpu_ops_ptr
 .text.asm.do_panic
                0x000000002ffd4260       0x3c /home/ming/tf-a-stm32mp-2.2.r2-r0/tf-a-stm32mp-2.2.r2/../build/trusted/bl2/debug.o
                0x000000002ffd4260                do_panic
 .text.asm.report_exception
                0x000000002ffd429c       0x14 /home/ming/tf-a-stm32mp-2.2.r2-r0/tf-a-stm32mp-2.2.r2/../build/trusted/bl2/debug.o
                0x000000002ffd429c                report_exception
 .text.asm.report_undef_inst
                0x000000002ffd42b0       0x10 /home/ming/tf-a-stm32mp-2.2.r2-r0/tf-a-stm32mp-2.2.r2/../build/trusted/bl2/debug.o
                0x000000002ffd42b0                report_undef_inst
 .text.asm.report_prefetch_abort
                0x000000002ffd42c0       0x10 /home/ming/tf-a-stm32mp-2.2.r2-r0/tf-a-stm32mp-2.2.r2/../build/trusted/bl2/debug.o
                0x000000002ffd42c0                report_prefetch_abort
 .text.asm.report_data_abort
                0x000000002ffd42d0       0x10 /home/ming/tf-a-stm32mp-2.2.r2-r0/tf-a-stm32mp-2.2.r2/../build/trusted/bl2/debug.o
                0x000000002ffd42d0                report_data_abort
 .text.asm.asm_assert
                0x000000002ffd42e0       0x7c /home/ming/tf-a-stm32mp-2.2.r2-r0/tf-a-stm32mp-2.2.r2/../build/trusted/bl2/debug.o
                0x000000002ffd42e0                asm_assert
 .text.asm.asm_print_str
                0x000000002ffd435c       0x1c /home/ming/tf-a-stm32mp-2.2.r2-r0/tf-a-stm32mp-2.2.r2/../build/trusted/bl2/debug.o
                0x000000002ffd435c                asm_print_str
 .text.asm.asm_print_hex
                0x000000002ffd4378       0x34 /home/ming/tf-a-stm32mp-2.2.r2-r0/tf-a-stm32mp-2.2.r2/../build/trusted/bl2/debug.o
                0x000000002ffd4378                asm_print_hex
 .text.asm.flush_dcache_range
                0x000000002ffd43ac       0x3c /home/ming/tf-a-stm32mp-2.2.r2-r0/tf-a-stm32mp-2.2.r2/../build/trusted/bl2/cache_helpers.o
                0x000000002ffd43ac                flush_dcache_range
 .text.asm.clean_dcache_range
                0x000000002ffd43e8       0x3c /home/ming/tf-a-stm32mp-2.2.r2-r0/tf-a-stm32mp-2.2.r2/../build/trusted/bl2/cache_helpers.o
                0x000000002ffd43e8                clean_dcache_range
 .text.asm.inv_dcache_range
                0x000000002ffd4424       0x3c /home/ming/tf-a-stm32mp-2.2.r2-r0/tf-a-stm32mp-2.2.r2/../build/trusted/bl2/cache_helpers.o
                0x000000002ffd4424                inv_dcache_range
 .text.asm.zeromem
                0x000000002ffd4460       0x64 /home/ming/tf-a-stm32mp-2.2.r2-r0/tf-a-stm32mp-2.2.r2/../build/trusted/bl2/misc_helpers.o
                0x000000002ffd4460                zeromem
                0x000000002ffd4460                zero_normalmem
 .text.asm.disable_mmu_secure
                0x000000002ffd44c4       0x1c /home/ming/tf-a-stm32mp-2.2.r2-r0/tf-a-stm32mp-2.2.r2/../build/trusted/bl2/misc_helpers.o
                0x000000002ffd44c4                disable_mmu_secure
 .text.asm.disable_mmu_icache_secure
                0x000000002ffd44e0        0xc /home/ming/tf-a-stm32mp-2.2.r2-r0/tf-a-stm32mp-2.2.r2/../build/trusted/bl2/misc_helpers.o
                0x000000002ffd44e0                disable_mmu_icache_secure
 .text.asm.console_stm32_core_init
                0x000000002ffd44ec       0x7c /home/ming/tf-a-stm32mp-2.2.r2-r0/tf-a-stm32mp-2.2.r2/../build/trusted/bl2/stm32_console.o
                0x000000002ffd44ec                console_stm32_core_init
 .text.asm.console_stm32_register
                0x000000002ffd4568       0x58 /home/ming/tf-a-stm32mp-2.2.r2-r0/tf-a-stm32mp-2.2.r2/../build/trusted/bl2/stm32_console.o
                0x000000002ffd4568                console_stm32_register
 .text.asm.console_stm32_core_putc
                0x000000002ffd45c0       0x48 /home/ming/tf-a-stm32mp-2.2.r2-r0/tf-a-stm32mp-2.2.r2/../build/trusted/bl2/stm32_console.o
                0x000000002ffd45c0                console_stm32_core_putc
 .text.asm.console_stm32_putc
                0x000000002ffd4608       0x20 /home/ming/tf-a-stm32mp-2.2.r2-r0/tf-a-stm32mp-2.2.r2/../build/trusted/bl2/stm32_console.o
                0x000000002ffd4608                console_stm32_putc
 .text.asm.console_stm32_core_flush
                0x000000002ffd4628       0x30 /home/ming/tf-a-stm32mp-2.2.r2-r0/tf-a-stm32mp-2.2.r2/../build/trusted/bl2/stm32_console.o
                0x000000002ffd4628                console_stm32_core_flush
 .text.asm.console_stm32_flush
                0x000000002ffd4658       0x20 /home/ming/tf-a-stm32mp-2.2.r2-r0/tf-a-stm32mp-2.2.r2/../build/trusted/bl2/stm32_console.o
                0x000000002ffd4658                console_stm32_flush
 .text.asm.enable_mmu_direct_svc_mon
                0x000000002ffd4678       0x80 /home/ming/tf-a-stm32mp-2.2.r2-r0/tf-a-stm32mp-2.2.r2/../build/trusted/bl2/enable_mmu.o
                0x000000002ffd4678                enable_mmu_direct_svc_mon
 .text.asm.cortex_a7_enable_smp
                0x000000002ffd46f8       0x14 /home/ming/tf-a-stm32mp-2.2.r2-r0/tf-a-stm32mp-2.2.r2/../build/trusted/bl2/cortex_a7.o
 .text.asm.cortex_a7_reset_func
                0x000000002ffd470c        0x4 /home/ming/tf-a-stm32mp-2.2.r2-r0/tf-a-stm32mp-2.2.r2/../build/trusted/bl2/cortex_a7.o
 .text.asm.platform_mem_init
                0x000000002ffd4710        0x4 /home/ming/tf-a-stm32mp-2.2.r2-r0/tf-a-stm32mp-2.2.r2/../build/trusted/bl2/stm32mp1_helper.o
                0x000000002ffd4710                platform_mem_init
 .text.asm.plat_report_exception
                0x000000002ffd4714       0x7c /home/ming/tf-a-stm32mp-2.2.r2-r0/tf-a-stm32mp-2.2.r2/../build/trusted/bl2/stm32mp1_helper.o
                0x000000002ffd4714                plat_report_exception
 .text.asm.plat_report_undef_inst
                0x000000002ffd4790       0x30 /home/ming/tf-a-stm32mp-2.2.r2-r0/tf-a-stm32mp-2.2.r2/../build/trusted/bl2/stm32mp1_helper.o
                0x000000002ffd4790                plat_report_undef_inst
 .text.asm.plat_report_prefetch_abort
                0x000000002ffd47c0       0x58 /home/ming/tf-a-stm32mp-2.2.r2-r0/tf-a-stm32mp-2.2.r2/../build/trusted/bl2/stm32mp1_helper.o
                0x000000002ffd47c0                plat_report_prefetch_abort
 .text.asm.plat_report_data_abort
                0x000000002ffd4818       0x58 /home/ming/tf-a-stm32mp-2.2.r2-r0/tf-a-stm32mp-2.2.r2/../build/trusted/bl2/stm32mp1_helper.o
                0x000000002ffd4818                plat_report_data_abort
 .text.asm.plat_reset_handler
                0x000000002ffd4870        0x4 /home/ming/tf-a-stm32mp-2.2.r2-r0/tf-a-stm32mp-2.2.r2/../build/trusted/bl2/stm32mp1_helper.o
                0x000000002ffd4870                plat_reset_handler
 .text.asm.plat_get_my_entrypoint
                0x000000002ffd4874        0x8 /home/ming/tf-a-stm32mp-2.2.r2-r0/tf-a-stm32mp-2.2.r2/../build/trusted/bl2/stm32mp1_helper.o
                0x000000002ffd4874                plat_get_my_entrypoint
 .text.asm.plat_secondary_cold_boot_setup
                0x000000002ffd487c        0x4 /home/ming/tf-a-stm32mp-2.2.r2-r0/tf-a-stm32mp-2.2.r2/../build/trusted/bl2/stm32mp1_helper.o
                0x000000002ffd487c                plat_secondary_cold_boot_setup
 .text.asm.plat_is_my_cpu_primary
                0x000000002ffd4880       0x20 /home/ming/tf-a-stm32mp-2.2.r2-r0/tf-a-stm32mp-2.2.r2/../build/trusted/bl2/stm32mp1_helper.o
                0x000000002ffd4880                plat_is_my_cpu_primary
 .text.asm.plat_crash_console_init
                0x000000002ffd48a0       0x98 /home/ming/tf-a-stm32mp-2.2.r2-r0/tf-a-stm32mp-2.2.r2/../build/trusted/bl2/stm32mp1_helper.o
                0x000000002ffd48a0                plat_crash_console_init
 .text.asm.plat_crash_console_flush
                0x000000002ffd4938        0xc /home/ming/tf-a-stm32mp-2.2.r2-r0/tf-a-stm32mp-2.2.r2/../build/trusted/bl2/stm32mp1_helper.o
                0x000000002ffd4938                plat_crash_console_flush
 .text.asm.plat_crash_console_putc
                0x000000002ffd4944        0xc /home/ming/tf-a-stm32mp-2.2.r2-r0/tf-a-stm32mp-2.2.r2/../build/trusted/bl2/stm32mp1_helper.o
                0x000000002ffd4944                plat_crash_console_putc
 .text.asm.plat_panic_handler
                0x000000002ffd4950       0x14 /home/ming/tf-a-stm32mp-2.2.r2-r0/tf-a-stm32mp-2.2.r2/../build/trusted/bl2/stm32mp1_helper.o
                0x000000002ffd4950                plat_panic_handler
                0x000000002ffd4964                __TEXT_RESIDENT_END__ = .
 *(.text*)
 .text.device_type_block
                0x000000002ffd4964        0x4 /home/ming/tf-a-stm32mp-2.2.r2-r0/tf-a-stm32mp-2.2.r2/../build/trusted/bl2/io_block.o
                0x000000002ffd4964                device_type_block
 .text.block_close
                0x000000002ffd4968        0x8 /home/ming/tf-a-stm32mp-2.2.r2-r0/tf-a-stm32mp-2.2.r2/../build/trusted/bl2/io_block.o
 .text.block_write
                0x000000002ffd4970      0x12c /home/ming/tf-a-stm32mp-2.2.r2-r0/tf-a-stm32mp-2.2.r2/../build/trusted/bl2/io_block.o
 .text.block_read
                0x000000002ffd4a9c       0xe0 /home/ming/tf-a-stm32mp-2.2.r2-r0/tf-a-stm32mp-2.2.r2/../build/trusted/bl2/io_block.o
 .text.block_dev_open
                0x000000002ffd4b7c       0x78 /home/ming/tf-a-stm32mp-2.2.r2-r0/tf-a-stm32mp-2.2.r2/../build/trusted/bl2/io_block.o
 .text.block_seek
                0x000000002ffd4bf4       0x64 /home/ming/tf-a-stm32mp-2.2.r2-r0/tf-a-stm32mp-2.2.r2/../build/trusted/bl2/io_block.o
 .text.block_open
                0x000000002ffd4c58       0x4c /home/ming/tf-a-stm32mp-2.2.r2-r0/tf-a-stm32mp-2.2.r2/../build/trusted/bl2/io_block.o
 .text.block_dev_close
                0x000000002ffd4ca4       0x48 /home/ming/tf-a-stm32mp-2.2.r2-r0/tf-a-stm32mp-2.2.r2/../build/trusted/bl2/io_block.o
 .text.register_io_dev_block
                0x000000002ffd4cec       0x2c /home/ming/tf-a-stm32mp-2.2.r2-r0/tf-a-stm32mp-2.2.r2/../build/trusted/bl2/io_block.o
                0x000000002ffd4cec                register_io_dev_block
 .text.device_type_dummy
                0x000000002ffd4d18        0x4 /home/ming/tf-a-stm32mp-2.2.r2-r0/tf-a-stm32mp-2.2.r2/../build/trusted/bl2/io_dummy.o
 .text.dummy_dev_close
                0x000000002ffd4d1c        0x4 /home/ming/tf-a-stm32mp-2.2.r2-r0/tf-a-stm32mp-2.2.r2/../build/trusted/bl2/io_dummy.o
 .text.dummy_dev_open
                0x000000002ffd4d20       0x1c /home/ming/tf-a-stm32mp-2.2.r2-r0/tf-a-stm32mp-2.2.r2/../build/trusted/bl2/io_dummy.o
 .text.dummy_block_close
                0x000000002ffd4d3c       0x20 /home/ming/tf-a-stm32mp-2.2.r2-r0/tf-a-stm32mp-2.2.r2/../build/trusted/bl2/io_dummy.o
 .text.dummy_block_read
                0x000000002ffd4d5c       0x18 /home/ming/tf-a-stm32mp-2.2.r2-r0/tf-a-stm32mp-2.2.r2/../build/trusted/bl2/io_dummy.o
 .text.dummy_block_len
                0x000000002ffd4d74       0x20 /home/ming/tf-a-stm32mp-2.2.r2-r0/tf-a-stm32mp-2.2.r2/../build/trusted/bl2/io_dummy.o
 .text.dummy_block_open
                0x000000002ffd4d94       0x3c /home/ming/tf-a-stm32mp-2.2.r2-r0/tf-a-stm32mp-2.2.r2/../build/trusted/bl2/io_dummy.o
 .text.register_io_dev_dummy
                0x000000002ffd4dd0       0x28 /home/ming/tf-a-stm32mp-2.2.r2-r0/tf-a-stm32mp-2.2.r2/../build/trusted/bl2/io_dummy.o
                0x000000002ffd4dd0                register_io_dev_dummy
 .text.device_type_mtd
                0x000000002ffd4df8        0x4 /home/ming/tf-a-stm32mp-2.2.r2-r0/tf-a-stm32mp-2.2.r2/../build/trusted/bl2/io_mtd.o
                0x000000002ffd4df8                device_type_mtd
 .text.mtd_close
                0x000000002ffd4dfc        0x8 /home/ming/tf-a-stm32mp-2.2.r2-r0/tf-a-stm32mp-2.2.r2/../build/trusted/bl2/io_mtd.o
 .text.mtd_read
                0x000000002ffd4e04       0x84 /home/ming/tf-a-stm32mp-2.2.r2-r0/tf-a-stm32mp-2.2.r2/../build/trusted/bl2/io_mtd.o
 .text.mtd_seek
                0x000000002ffd4e88       0x70 /home/ming/tf-a-stm32mp-2.2.r2-r0/tf-a-stm32mp-2.2.r2/../build/trusted/bl2/io_mtd.o
 .text.mtd_open
                0x000000002ffd4ef8       0x24 /home/ming/tf-a-stm32mp-2.2.r2-r0/tf-a-stm32mp-2.2.r2/../build/trusted/bl2/io_mtd.o
 .text.mtd_dev_close
                0x000000002ffd4f1c       0x2c /home/ming/tf-a-stm32mp-2.2.r2-r0/tf-a-stm32mp-2.2.r2/../build/trusted/bl2/io_mtd.o
 .text.mtd_dev_open
                0x000000002ffd4f48       0x50 /home/ming/tf-a-stm32mp-2.2.r2-r0/tf-a-stm32mp-2.2.r2/../build/trusted/bl2/io_mtd.o
 .text.register_io_dev_mtd
                0x000000002ffd4f98       0x1c /home/ming/tf-a-stm32mp-2.2.r2-r0/tf-a-stm32mp-2.2.r2/../build/trusted/bl2/io_mtd.o
                0x000000002ffd4f98                register_io_dev_mtd
 .text.is_valid_dev
                0x000000002ffd4fb4       0x18 /home/ming/tf-a-stm32mp-2.2.r2-r0/tf-a-stm32mp-2.2.r2/../build/trusted/bl2/io_storage.o
 .text.is_valid_entity
                0x000000002ffd4fcc       0x12 /home/ming/tf-a-stm32mp-2.2.r2-r0/tf-a-stm32mp-2.2.r2/../build/trusted/bl2/io_storage.o
 *fill*         0x000000002ffd4fde        0x2 
 .text.free_entity
                0x000000002ffd4fe0       0x40 /home/ming/tf-a-stm32mp-2.2.r2-r0/tf-a-stm32mp-2.2.r2/../build/trusted/bl2/io_storage.o
 .text.io_register_device
                0x000000002ffd5020       0x28 /home/ming/tf-a-stm32mp-2.2.r2-r0/tf-a-stm32mp-2.2.r2/../build/trusted/bl2/io_storage.o
                0x000000002ffd5020                io_register_device
 .text.io_dev_open
                0x000000002ffd5048       0x28 /home/ming/tf-a-stm32mp-2.2.r2-r0/tf-a-stm32mp-2.2.r2/../build/trusted/bl2/io_storage.o
                0x000000002ffd5048                io_dev_open
 .text.io_dev_init
                0x000000002ffd5070       0x34 /home/ming/tf-a-stm32mp-2.2.r2-r0/tf-a-stm32mp-2.2.r2/../build/trusted/bl2/io_storage.o
                0x000000002ffd5070                io_dev_init
 .text.io_dev_close
                0x000000002ffd50a4       0x30 /home/ming/tf-a-stm32mp-2.2.r2-r0/tf-a-stm32mp-2.2.r2/../build/trusted/bl2/io_storage.o
                0x000000002ffd50a4                io_dev_close
 .text.io_open  0x000000002ffd50d4       0x90 /home/ming/tf-a-stm32mp-2.2.r2-r0/tf-a-stm32mp-2.2.r2/../build/trusted/bl2/io_storage.o
                0x000000002ffd50d4                io_open
 .text.io_seek  0x000000002ffd5164       0x44 /home/ming/tf-a-stm32mp-2.2.r2-r0/tf-a-stm32mp-2.2.r2/../build/trusted/bl2/io_storage.o
                0x000000002ffd5164                io_seek
 .text.io_size  0x000000002ffd51a8       0x34 /home/ming/tf-a-stm32mp-2.2.r2-r0/tf-a-stm32mp-2.2.r2/../build/trusted/bl2/io_storage.o
                0x000000002ffd51a8                io_size
 .text.io_read  0x000000002ffd51dc       0x40 /home/ming/tf-a-stm32mp-2.2.r2-r0/tf-a-stm32mp-2.2.r2/../build/trusted/bl2/io_storage.o
                0x000000002ffd51dc                io_read
 .text.io_close
                0x000000002ffd521c       0x30 /home/ming/tf-a-stm32mp-2.2.r2-r0/tf-a-stm32mp-2.2.r2/../build/trusted/bl2/io_storage.o
                0x000000002ffd521c                io_close
 .text.hash_write_data
                0x000000002ffd524c       0x68 /home/ming/tf-a-stm32mp-2.2.r2-r0/tf-a-stm32mp-2.2.r2/../build/trusted/bl2/stm32_hash.o
 .text.stm32_hash_update
                0x000000002ffd52b4       0xb0 /home/ming/tf-a-stm32mp-2.2.r2-r0/tf-a-stm32mp-2.2.r2/../build/trusted/bl2/stm32_hash.o
                0x000000002ffd52b4                stm32_hash_update
 .text.stm32_hash_final
                0x000000002ffd5364      0x110 /home/ming/tf-a-stm32mp-2.2.r2-r0/tf-a-stm32mp-2.2.r2/../build/trusted/bl2/stm32_hash.o
                0x000000002ffd5364                stm32_hash_final
 .text.stm32_hash_final_update
                0x000000002ffd5474       0x16 /home/ming/tf-a-stm32mp-2.2.r2-r0/tf-a-stm32mp-2.2.r2/../build/trusted/bl2/stm32_hash.o
                0x000000002ffd5474                stm32_hash_final_update
 *fill*         0x000000002ffd548a        0x2 
 .text.stm32_hash_init
                0x000000002ffd548c       0x5c /home/ming/tf-a-stm32mp-2.2.r2-r0/tf-a-stm32mp-2.2.r2/../build/trusted/bl2/stm32_hash.o
                0x000000002ffd548c                stm32_hash_init
 .text.stm32_hash_register
                0x000000002ffd54e8       0x88 /home/ming/tf-a-stm32mp-2.2.r2-r0/tf-a-stm32mp-2.2.r2/../build/trusted/bl2/stm32_hash.o
                0x000000002ffd54e8                stm32_hash_register
 .text.device_type_stm32image
                0x000000002ffd5570        0x4 /home/ming/tf-a-stm32mp-2.2.r2-r0/tf-a-stm32mp-2.2.r2/../build/trusted/bl2/io_stm32image.o
 .text.stm32image_dev_close
                0x000000002ffd5574       0x1c /home/ming/tf-a-stm32mp-2.2.r2-r0/tf-a-stm32mp-2.2.r2/../build/trusted/bl2/io_stm32image.o
 .text.stm32image_partition_close
                0x000000002ffd5590        0xc /home/ming/tf-a-stm32mp-2.2.r2-r0/tf-a-stm32mp-2.2.r2/../build/trusted/bl2/io_stm32image.o
 .text.stm32image_dev_init
                0x000000002ffd559c       0x44 /home/ming/tf-a-stm32mp-2.2.r2-r0/tf-a-stm32mp-2.2.r2/../build/trusted/bl2/io_stm32image.o
 .text.stm32image_partition_read
                0x000000002ffd55e0      0x100 /home/ming/tf-a-stm32mp-2.2.r2-r0/tf-a-stm32mp-2.2.r2/../build/trusted/bl2/io_stm32image.o
 .text.stm32image_partition_size
                0x000000002ffd56e0       0xf4 /home/ming/tf-a-stm32mp-2.2.r2-r0/tf-a-stm32mp-2.2.r2/../build/trusted/bl2/io_stm32image.o
 .text.stm32image_dev_open
                0x000000002ffd57d4       0x48 /home/ming/tf-a-stm32mp-2.2.r2-r0/tf-a-stm32mp-2.2.r2/../build/trusted/bl2/io_stm32image.o
 .text.stm32image_partition_open
                0x000000002ffd581c       0x50 /home/ming/tf-a-stm32mp-2.2.r2-r0/tf-a-stm32mp-2.2.r2/../build/trusted/bl2/io_stm32image.o
 .text.register_io_dev_stm32image
                0x000000002ffd586c       0x2c /home/ming/tf-a-stm32mp-2.2.r2-r0/tf-a-stm32mp-2.2.r2/../build/trusted/bl2/io_stm32image.o
                0x000000002ffd586c                register_io_dev_stm32image
 .text.boot_mmc
                0x000000002ffd5898      0x140 /home/ming/tf-a-stm32mp-2.2.r2-r0/tf-a-stm32mp-2.2.r2/../build/trusted/bl2/bl2_io_storage.o
 .text.open_storage
                0x000000002ffd59d8       0x10 /home/ming/tf-a-stm32mp-2.2.r2-r0/tf-a-stm32mp-2.2.r2/../build/trusted/bl2/bl2_io_storage.o
 .text.open_image
                0x000000002ffd59e8       0x10 /home/ming/tf-a-stm32mp-2.2.r2-r0/tf-a-stm32mp-2.2.r2/../build/trusted/bl2/bl2_io_storage.o
 .text.open_dummy
                0x000000002ffd59f8       0x10 /home/ming/tf-a-stm32mp-2.2.r2-r0/tf-a-stm32mp-2.2.r2/../build/trusted/bl2/bl2_io_storage.o
 .text.stm32mp_io_setup
                0x000000002ffd5a08      0x290 /home/ming/tf-a-stm32mp-2.2.r2-r0/tf-a-stm32mp-2.2.r2/../build/trusted/bl2/bl2_io_storage.o
                0x000000002ffd5a08                stm32mp_io_setup
 .text.plat_get_image_source
                0x000000002ffd5c98       0x40 /home/ming/tf-a-stm32mp-2.2.r2-r0/tf-a-stm32mp-2.2.r2/../build/trusted/bl2/bl2_io_storage.o
                0x000000002ffd5c98                plat_get_image_source
 .text.plat_try_next_boot_source
                0x000000002ffd5cd8       0x84 /home/ming/tf-a-stm32mp-2.2.r2-r0/tf-a-stm32mp-2.2.r2/../build/trusted/bl2/bl2_io_storage.o
                0x000000002ffd5cd8                plat_try_next_boot_source
 .text.get_boot_device
                0x000000002ffd5d5c        0x4 /home/ming/tf-a-stm32mp-2.2.r2-r0/tf-a-stm32mp-2.2.r2/../build/trusted/bl2/bl2_plat_setup.o
                0x000000002ffd5d5c                get_boot_device
 .text.bl2_el3_early_platform_setup
                0x000000002ffd5d60        0x4 /home/ming/tf-a-stm32mp-2.2.r2-r0/tf-a-stm32mp-2.2.r2/../build/trusted/bl2/bl2_plat_setup.o
                0x000000002ffd5d60                bl2_el3_early_platform_setup
 .text.bl2_platform_setup
                0x000000002ffd5d64       0x9c /home/ming/tf-a-stm32mp-2.2.r2-r0/tf-a-stm32mp-2.2.r2/../build/trusted/bl2/bl2_plat_setup.o
                0x000000002ffd5d64                bl2_platform_setup
 .text.bl2_el3_plat_arch_setup
                0x000000002ffd5e00      0x440 /home/ming/tf-a-stm32mp-2.2.r2-r0/tf-a-stm32mp-2.2.r2/../build/trusted/bl2/bl2_plat_setup.o
                0x000000002ffd5e00                bl2_el3_plat_arch_setup
 .text.bl2_plat_handle_post_image_load
                0x000000002ffd6240       0x30 /home/ming/tf-a-stm32mp-2.2.r2-r0/tf-a-stm32mp-2.2.r2/../build/trusted/bl2/bl2_plat_setup.o
                0x000000002ffd6240                bl2_plat_handle_post_image_load
 .text.auth_get_param.isra.0
                0x000000002ffd6270       0x3e /home/ming/tf-a-stm32mp-2.2.r2-r0/tf-a-stm32mp-2.2.r2/../build/trusted/bl2/auth_mod.o
 .text.plat_set_nv_ctr2
                0x000000002ffd62ae        0x6 /home/ming/tf-a-stm32mp-2.2.r2-r0/tf-a-stm32mp-2.2.r2/../build/trusted/bl2/auth_mod.o
                0x000000002ffd62ae                plat_set_nv_ctr2
 .text.auth_mod_get_parent_id
                0x000000002ffd62b4       0x40 /home/ming/tf-a-stm32mp-2.2.r2-r0/tf-a-stm32mp-2.2.r2/../build/trusted/bl2/auth_mod.o
                0x000000002ffd62b4                auth_mod_get_parent_id
 .text.auth_mod_init
                0x000000002ffd62f4       0x28 /home/ming/tf-a-stm32mp-2.2.r2-r0/tf-a-stm32mp-2.2.r2/../build/trusted/bl2/auth_mod.o
                0x000000002ffd62f4                auth_mod_init
 .text.auth_mod_verify_img
                0x000000002ffd631c      0x278 /home/ming/tf-a-stm32mp-2.2.r2-r0/tf-a-stm32mp-2.2.r2/../build/trusted/bl2/auth_mod.o
                0x000000002ffd631c                auth_mod_verify_img
 .text.crypto_mod_init
                0x000000002ffd6594       0x44 /home/ming/tf-a-stm32mp-2.2.r2-r0/tf-a-stm32mp-2.2.r2/../build/trusted/bl2/crypto_mod.o
                0x000000002ffd6594                crypto_mod_init
 .text.crypto_mod_verify_signature
                0x000000002ffd65d8       0x58 /home/ming/tf-a-stm32mp-2.2.r2-r0/tf-a-stm32mp-2.2.r2/../build/trusted/bl2/crypto_mod.o
                0x000000002ffd65d8                crypto_mod_verify_signature
 .text.crypto_mod_verify_hash
                0x000000002ffd6630       0x38 /home/ming/tf-a-stm32mp-2.2.r2-r0/tf-a-stm32mp-2.2.r2/../build/trusted/bl2/crypto_mod.o
                0x000000002ffd6630                crypto_mod_verify_hash
 .text.img_parser_init
                0x000000002ffd6668       0x94 /home/ming/tf-a-stm32mp-2.2.r2-r0/tf-a-stm32mp-2.2.r2/../build/trusted/bl2/img_parser_mod.o
                0x000000002ffd6668                img_parser_init
 .text.img_parser_check_integrity
                0x000000002ffd66fc       0x48 /home/ming/tf-a-stm32mp-2.2.r2-r0/tf-a-stm32mp-2.2.r2/../build/trusted/bl2/img_parser_mod.o
                0x000000002ffd66fc                img_parser_check_integrity
 .text.img_parser_get_auth_param
                0x000000002ffd6744       0x78 /home/ming/tf-a-stm32mp-2.2.r2-r0/tf-a-stm32mp-2.2.r2/../build/trusted/bl2/img_parser_mod.o
                0x000000002ffd6744                img_parser_get_auth_param
 .text.crypto_verify_hash
                0x000000002ffd67bc       0x46 /home/ming/tf-a-stm32mp-2.2.r2-r0/tf-a-stm32mp-2.2.r2/../build/trusted/bl2/stm32mp_crypto_lib.o
 *fill*         0x000000002ffd6802        0x2 
 .text.crypto_verify_signature
                0x000000002ffd6804       0xfc /home/ming/tf-a-stm32mp-2.2.r2-r0/tf-a-stm32mp-2.2.r2/../build/trusted/bl2/stm32mp_crypto_lib.o
 .text.crypto_lib_init
                0x000000002ffd6900       0x60 /home/ming/tf-a-stm32mp-2.2.r2-r0/tf-a-stm32mp-2.2.r2/../build/trusted/bl2/stm32mp_crypto_lib.o
 .text.img_lib_init
                0x000000002ffd6960        0x2 /home/ming/tf-a-stm32mp-2.2.r2-r0/tf-a-stm32mp-2.2.r2/../build/trusted/bl2/stm32mp_img_parser_lib.o
 .text.img_get_auth_param
                0x000000002ffd6962       0x74 /home/ming/tf-a-stm32mp-2.2.r2-r0/tf-a-stm32mp-2.2.r2/../build/trusted/bl2/stm32mp_img_parser_lib.o
 .text.img_check_integrity
                0x000000002ffd69d6       0x12 /home/ming/tf-a-stm32mp-2.2.r2-r0/tf-a-stm32mp-2.2.r2/../build/trusted/bl2/stm32mp_img_parser_lib.o
 .text.plat_get_rotpk_info
                0x000000002ffd69e8       0x88 /home/ming/tf-a-stm32mp-2.2.r2-r0/tf-a-stm32mp-2.2.r2/../build/trusted/bl2/stm32mp_trusted_boot.o
                0x000000002ffd69e8                plat_get_rotpk_info
 .text.plat_get_nv_ctr
                0x000000002ffd6a70       0x18 /home/ming/tf-a-stm32mp-2.2.r2-r0/tf-a-stm32mp-2.2.r2/../build/trusted/bl2/stm32mp_trusted_boot.o
                0x000000002ffd6a70                plat_get_nv_ctr
 .text.plat_set_nv_ctr
                0x000000002ffd6a88        0x6 /home/ming/tf-a-stm32mp-2.2.r2-r0/tf-a-stm32mp-2.2.r2/../build/trusted/bl2/stm32mp_trusted_boot.o
                0x000000002ffd6a88                plat_set_nv_ctr
 *fill*         0x000000002ffd6a8e        0x2 
 .text.mmc_send_cmd
                0x000000002ffd6a90       0x44 /home/ming/tf-a-stm32mp-2.2.r2-r0/tf-a-stm32mp-2.2.r2/../build/trusted/bl2/mmc.o
 .text.mmc_device_state
                0x000000002ffd6ad4       0x48 /home/ming/tf-a-stm32mp-2.2.r2-r0/tf-a-stm32mp-2.2.r2/../build/trusted/bl2/mmc.o
 .text.mmc_reset_to_idle
                0x000000002ffd6b1c       0x1c /home/ming/tf-a-stm32mp-2.2.r2-r0/tf-a-stm32mp-2.2.r2/../build/trusted/bl2/mmc.o
 .text.mmc_set_ext_csd
                0x000000002ffd6b38       0x34 /home/ming/tf-a-stm32mp-2.2.r2-r0/tf-a-stm32mp-2.2.r2/../build/trusted/bl2/mmc.o
 .text.unlikely.sd_switch.constprop.3
                0x000000002ffd6b6c       0x48 /home/ming/tf-a-stm32mp-2.2.r2-r0/tf-a-stm32mp-2.2.r2/../build/trusted/bl2/mmc.o
 .text.mmc_read_blocks
                0x000000002ffd6bb4       0xcc /home/ming/tf-a-stm32mp-2.2.r2-r0/tf-a-stm32mp-2.2.r2/../build/trusted/bl2/mmc.o
                0x000000002ffd6bb4                mmc_read_blocks
 .text.mmc_init
                0x000000002ffd6c80      0x4e8 /home/ming/tf-a-stm32mp-2.2.r2-r0/tf-a-stm32mp-2.2.r2/../build/trusted/bl2/mmc.o
                0x000000002ffd6c80                mmc_init
 .text.parse_gpt_entry
                0x000000002ffd7168       0x94 /home/ming/tf-a-stm32mp-2.2.r2-r0/tf-a-stm32mp-2.2.r2/../build/trusted/bl2/gpt.o
                0x000000002ffd7168                parse_gpt_entry
 .text.load_partition_table
                0x000000002ffd71fc      0x1f4 /home/ming/tf-a-stm32mp-2.2.r2-r0/tf-a-stm32mp-2.2.r2/../build/trusted/bl2/partition.o
                0x000000002ffd71fc                load_partition_table
 .text.get_partition_entry
                0x000000002ffd73f0       0x3c /home/ming/tf-a-stm32mp-2.2.r2-r0/tf-a-stm32mp-2.2.r2/../build/trusted/bl2/partition.o
                0x000000002ffd73f0                get_partition_entry
 .text.partition_init
                0x000000002ffd742c        0x4 /home/ming/tf-a-stm32mp-2.2.r2-r0/tf-a-stm32mp-2.2.r2/../build/trusted/bl2/partition.o
                0x000000002ffd742c                partition_init
 .text.device_type_mmc
                0x000000002ffd7430        0x4 /home/ming/tf-a-stm32mp-2.2.r2-r0/tf-a-stm32mp-2.2.r2/../build/trusted/bl2/io_mmc.o
 .text.mmc_dev_init
                0x000000002ffd7434        0x4 /home/ming/tf-a-stm32mp-2.2.r2-r0/tf-a-stm32mp-2.2.r2/../build/trusted/bl2/io_mmc.o
 .text.mmc_block_open
                0x000000002ffd7438       0x10 /home/ming/tf-a-stm32mp-2.2.r2-r0/tf-a-stm32mp-2.2.r2/../build/trusted/bl2/io_mmc.o
 .text.mmc_block_seek
                0x000000002ffd7448       0x10 /home/ming/tf-a-stm32mp-2.2.r2-r0/tf-a-stm32mp-2.2.r2/../build/trusted/bl2/io_mmc.o
 .text.mmc_block_close
                0x000000002ffd7458        0x4 /home/ming/tf-a-stm32mp-2.2.r2-r0/tf-a-stm32mp-2.2.r2/../build/trusted/bl2/io_mmc.o
 .text.mmc_block_read
                0x000000002ffd745c       0x74 /home/ming/tf-a-stm32mp-2.2.r2-r0/tf-a-stm32mp-2.2.r2/../build/trusted/bl2/io_mmc.o
 .text.mmc_dev_open
                0x000000002ffd74d0       0x1c /home/ming/tf-a-stm32mp-2.2.r2-r0/tf-a-stm32mp-2.2.r2/../build/trusted/bl2/io_mmc.o
 .text.mmc_dev_close
                0x000000002ffd74ec        0x4 /home/ming/tf-a-stm32mp-2.2.r2-r0/tf-a-stm32mp-2.2.r2/../build/trusted/bl2/io_mmc.o
 .text.register_io_dev_mmc
                0x000000002ffd74f0       0x28 /home/ming/tf-a-stm32mp-2.2.r2-r0/tf-a-stm32mp-2.2.r2/../build/trusted/bl2/io_mmc.o
                0x000000002ffd74f0                register_io_dev_mmc
 .text.stm32_sdmmc2_write
                0x000000002ffd7518        0x4 /home/ming/tf-a-stm32mp-2.2.r2-r0/tf-a-stm32mp-2.2.r2/../build/trusted/bl2/stm32_sdmmc2.o
 .text.dump_registers
                0x000000002ffd751c       0xc4 /home/ming/tf-a-stm32mp-2.2.r2-r0/tf-a-stm32mp-2.2.r2/../build/trusted/bl2/stm32_sdmmc2.o
 .text.stm32_sdmmc2_set_ios
                0x000000002ffd75e0       0x8c /home/ming/tf-a-stm32mp-2.2.r2-r0/tf-a-stm32mp-2.2.r2/../build/trusted/bl2/stm32_sdmmc2.o
 .text.stm32_sdmmc2_init
                0x000000002ffd766c       0x8c /home/ming/tf-a-stm32mp-2.2.r2-r0/tf-a-stm32mp-2.2.r2/../build/trusted/bl2/stm32_sdmmc2.o
 .text.stm32_sdmmc2_send_cmd
                0x000000002ffd76f8      0x2cc /home/ming/tf-a-stm32mp-2.2.r2-r0/tf-a-stm32mp-2.2.r2/../build/trusted/bl2/stm32_sdmmc2.o
 .text.stm32_sdmmc2_stop_transfer
                0x000000002ffd79c4       0x20 /home/ming/tf-a-stm32mp-2.2.r2-r0/tf-a-stm32mp-2.2.r2/../build/trusted/bl2/stm32_sdmmc2.o
 .text.stm32_sdmmc2_read
                0x000000002ffd79e4      0x12c /home/ming/tf-a-stm32mp-2.2.r2-r0/tf-a-stm32mp-2.2.r2/../build/trusted/bl2/stm32_sdmmc2.o
 .text.plat_sdmmc2_use_dma
                0x000000002ffd7b10        0x4 /home/ming/tf-a-stm32mp-2.2.r2-r0/tf-a-stm32mp-2.2.r2/../build/trusted/bl2/stm32_sdmmc2.o
                0x000000002ffd7b10                plat_sdmmc2_use_dma
 .text.stm32_sdmmc2_prepare
                0x000000002ffd7b14       0xb4 /home/ming/tf-a-stm32mp-2.2.r2-r0/tf-a-stm32mp-2.2.r2/../build/trusted/bl2/stm32_sdmmc2.o
 .text.stm32_sdmmc2_mmc_get_device_size
                0x000000002ffd7bc8       0x10 /home/ming/tf-a-stm32mp-2.2.r2-r0/tf-a-stm32mp-2.2.r2/../build/trusted/bl2/stm32_sdmmc2.o
                0x000000002ffd7bc8                stm32_sdmmc2_mmc_get_device_size
 .text.stm32_sdmmc2_mmc_init
                0x000000002ffd7bd8      0x1c8 /home/ming/tf-a-stm32mp-2.2.r2-r0/tf-a-stm32mp-2.2.r2/../build/trusted/bl2/stm32_sdmmc2.o
                0x000000002ffd7bd8                stm32_sdmmc2_mmc_init
 .text.nand_send_addr
                0x000000002ffd7da0       0x38 /home/ming/tf-a-stm32mp-2.2.r2-r0/tf-a-stm32mp-2.2.r2/../build/trusted/bl2/raw_nand.o
 .text.nand_send_cmd
                0x000000002ffd7dd8       0x2c /home/ming/tf-a-stm32mp-2.2.r2-r0/tf-a-stm32mp-2.2.r2/../build/trusted/bl2/raw_nand.o
 .text.nand_read_data
                0x000000002ffd7e04       0x40 /home/ming/tf-a-stm32mp-2.2.r2-r0/tf-a-stm32mp-2.2.r2/../build/trusted/bl2/raw_nand.o
 .text.nand_send_wait
                0x000000002ffd7e44       0x34 /home/ming/tf-a-stm32mp-2.2.r2-r0/tf-a-stm32mp-2.2.r2/../build/trusted/bl2/raw_nand.o
 .text.nand_read_param_page
                0x000000002ffd7e78       0xf4 /home/ming/tf-a-stm32mp-2.2.r2-r0/tf-a-stm32mp-2.2.r2/../build/trusted/bl2/raw_nand.o
 .text.nand_change_read_column_cmd
                0x000000002ffd7f6c       0x58 /home/ming/tf-a-stm32mp-2.2.r2-r0/tf-a-stm32mp-2.2.r2/../build/trusted/bl2/raw_nand.o
                0x000000002ffd7f6c                nand_change_read_column_cmd
 .text.nand_read_page_cmd
                0x000000002ffd7fc4       0xa8 /home/ming/tf-a-stm32mp-2.2.r2-r0/tf-a-stm32mp-2.2.r2/../build/trusted/bl2/raw_nand.o
                0x000000002ffd7fc4                nand_read_page_cmd
 .text.nand_mtd_read_page_raw
                0x000000002ffd806c       0x14 /home/ming/tf-a-stm32mp-2.2.r2-r0/tf-a-stm32mp-2.2.r2/../build/trusted/bl2/raw_nand.o
 .text.nand_mtd_block_is_bad
                0x000000002ffd8080       0x64 /home/ming/tf-a-stm32mp-2.2.r2-r0/tf-a-stm32mp-2.2.r2/../build/trusted/bl2/raw_nand.o
 .text.nand_wait_ready
                0x000000002ffd80e4       0x84 /home/ming/tf-a-stm32mp-2.2.r2-r0/tf-a-stm32mp-2.2.r2/../build/trusted/bl2/raw_nand.o
                0x000000002ffd80e4                nand_wait_ready
 .text.nand_raw_ctrl_init
                0x000000002ffd8168        0xc /home/ming/tf-a-stm32mp-2.2.r2-r0/tf-a-stm32mp-2.2.r2/../build/trusted/bl2/raw_nand.o
                0x000000002ffd8168                nand_raw_ctrl_init
 .text.nand_raw_init
                0x000000002ffd8174       0xf0 /home/ming/tf-a-stm32mp-2.2.r2-r0/tf-a-stm32mp-2.2.r2/../build/trusted/bl2/raw_nand.o
                0x000000002ffd8174                nand_raw_init
 .text.fdt32_to_cpu
                0x000000002ffd8264        0x4 /home/ming/tf-a-stm32mp-2.2.r2-r0/tf-a-stm32mp-2.2.r2/../build/trusted/bl2/stm32_fmc2_nand.o
 .text.stm32_fmc2_set_buswidth_16
                0x000000002ffd8268       0x20 /home/ming/tf-a-stm32mp-2.2.r2-r0/tf-a-stm32mp-2.2.r2/../build/trusted/bl2/stm32_fmc2_nand.o
 .text.stm32_fmc2_set_ecc
                0x000000002ffd8288       0x20 /home/ming/tf-a-stm32mp-2.2.r2-r0/tf-a-stm32mp-2.2.r2/../build/trusted/bl2/stm32_fmc2_nand.o
 .text.stm32_fmc2_setup
                0x000000002ffd82a8       0x6c /home/ming/tf-a-stm32mp-2.2.r2-r0/tf-a-stm32mp-2.2.r2/../build/trusted/bl2/stm32_fmc2_nand.o
 .text.stm32_fmc2_exec
                0x000000002ffd8314      0x178 /home/ming/tf-a-stm32mp-2.2.r2-r0/tf-a-stm32mp-2.2.r2/../build/trusted/bl2/stm32_fmc2_nand.o
 .text.stm32_fmc2_read_page
                0x000000002ffd848c      0x300 /home/ming/tf-a-stm32mp-2.2.r2-r0/tf-a-stm32mp-2.2.r2/../build/trusted/bl2/stm32_fmc2_nand.o
 .text.stm32_fmc2_init
                0x000000002ffd878c      0x498 /home/ming/tf-a-stm32mp-2.2.r2-r0/tf-a-stm32mp-2.2.r2/../build/trusted/bl2/stm32_fmc2_nand.o
                0x000000002ffd878c                stm32_fmc2_init
 .text.spi_nand_reg
                0x000000002ffd8c24       0x4a /home/ming/tf-a-stm32mp-2.2.r2-r0/tf-a-stm32mp-2.2.r2/../build/trusted/bl2/spi_nand.o
 *fill*         0x000000002ffd8c6e        0x2 
 .text.spi_nand_load_page
                0x000000002ffd8c70       0x54 /home/ming/tf-a-stm32mp-2.2.r2-r0/tf-a-stm32mp-2.2.r2/../build/trusted/bl2/spi_nand.o
 .text.spi_nand_read_from_cache
                0x000000002ffd8cc4       0x50 /home/ming/tf-a-stm32mp-2.2.r2-r0/tf-a-stm32mp-2.2.r2/../build/trusted/bl2/spi_nand.o
 .text.spi_nand_update_cfg
                0x000000002ffd8d14       0x38 /home/ming/tf-a-stm32mp-2.2.r2-r0/tf-a-stm32mp-2.2.r2/../build/trusted/bl2/spi_nand.o
 .text.spi_nand_wait_ready
                0x000000002ffd8d4c       0x58 /home/ming/tf-a-stm32mp-2.2.r2-r0/tf-a-stm32mp-2.2.r2/../build/trusted/bl2/spi_nand.o
 .text.spi_nand_mtd_read_page
                0x000000002ffd8da4       0x4c /home/ming/tf-a-stm32mp-2.2.r2-r0/tf-a-stm32mp-2.2.r2/../build/trusted/bl2/spi_nand.o
 .text.spi_nand_mtd_block_is_bad
                0x000000002ffd8df0       0x64 /home/ming/tf-a-stm32mp-2.2.r2-r0/tf-a-stm32mp-2.2.r2/../build/trusted/bl2/spi_nand.o
 .text.spi_nand_init
                0x000000002ffd8e54       0xf8 /home/ming/tf-a-stm32mp-2.2.r2-r0/tf-a-stm32mp-2.2.r2/../build/trusted/bl2/spi_nand.o
                0x000000002ffd8e54                spi_nand_init
 .text.spi_nor_reg
                0x000000002ffd8f4c       0x32 /home/ming/tf-a-stm32mp-2.2.r2-r0/tf-a-stm32mp-2.2.r2/../build/trusted/bl2/spi_nor.o
 .text.spi_nor_write_en
                0x000000002ffd8f7e        0xc /home/ming/tf-a-stm32mp-2.2.r2-r0/tf-a-stm32mp-2.2.r2/../build/trusted/bl2/spi_nor.o
 .text.spi_nor_read_sr
                0x000000002ffd8f8a        0xc /home/ming/tf-a-stm32mp-2.2.r2-r0/tf-a-stm32mp-2.2.r2/../build/trusted/bl2/spi_nor.o
 *fill*         0x000000002ffd8f96        0x2 
 .text.spi_nor_clean_bar
                0x000000002ffd8f98       0x30 /home/ming/tf-a-stm32mp-2.2.r2-r0/tf-a-stm32mp-2.2.r2/../build/trusted/bl2/spi_nor.o
 .text.spi_nor_wait_ready
                0x000000002ffd8fc8       0x80 /home/ming/tf-a-stm32mp-2.2.r2-r0/tf-a-stm32mp-2.2.r2/../build/trusted/bl2/spi_nor.o
 .text.spi_nor_read
                0x000000002ffd9048       0xb8 /home/ming/tf-a-stm32mp-2.2.r2-r0/tf-a-stm32mp-2.2.r2/../build/trusted/bl2/spi_nor.o
                0x000000002ffd9048                spi_nor_read
 .text.spi_nor_init
                0x000000002ffd9100      0x18c /home/ming/tf-a-stm32mp-2.2.r2-r0/tf-a-stm32mp-2.2.r2/../build/trusted/bl2/spi_nor.o
                0x000000002ffd9100                spi_nor_init
 .text.fdt32_to_cpu
                0x000000002ffd928c        0x4 /home/ming/tf-a-stm32mp-2.2.r2-r0/tf-a-stm32mp-2.2.r2/../build/trusted/bl2/spi_mem.o
 .text.spi_mem_check_buswidth_req
                0x000000002ffd9290       0x40 /home/ming/tf-a-stm32mp-2.2.r2-r0/tf-a-stm32mp-2.2.r2/../build/trusted/bl2/spi_mem.o
 .text.spi_mem_exec_op
                0x000000002ffd92d0       0x7c /home/ming/tf-a-stm32mp-2.2.r2-r0/tf-a-stm32mp-2.2.r2/../build/trusted/bl2/spi_mem.o
                0x000000002ffd92d0                spi_mem_exec_op
 .text.spi_mem_init_slave
                0x000000002ffd934c      0x1d8 /home/ming/tf-a-stm32mp-2.2.r2-r0/tf-a-stm32mp-2.2.r2/../build/trusted/bl2/spi_mem.o
                0x000000002ffd934c                spi_mem_init_slave
 .text.stm32_qspi_read_fifo
                0x000000002ffd9524        0x6 /home/ming/tf-a-stm32mp-2.2.r2-r0/tf-a-stm32mp-2.2.r2/../build/trusted/bl2/stm32_qspi.o
 .text.stm32_qspi_write_fifo
                0x000000002ffd952a        0x6 /home/ming/tf-a-stm32mp-2.2.r2-r0/tf-a-stm32mp-2.2.r2/../build/trusted/bl2/stm32_qspi.o
 .text.stm32_qspi_claim_bus
                0x000000002ffd9530       0x28 /home/ming/tf-a-stm32mp-2.2.r2-r0/tf-a-stm32mp-2.2.r2/../build/trusted/bl2/stm32_qspi.o
 .text.stm32_qspi_release_bus
                0x000000002ffd9558       0x14 /home/ming/tf-a-stm32mp-2.2.r2-r0/tf-a-stm32mp-2.2.r2/../build/trusted/bl2/stm32_qspi.o
 .text.stm32_qspi_wait_for_not_busy
                0x000000002ffd956c       0x58 /home/ming/tf-a-stm32mp-2.2.r2-r0/tf-a-stm32mp-2.2.r2/../build/trusted/bl2/stm32_qspi.o
 .text.stm32_qspi_set_mode
                0x000000002ffd95c4       0x3c /home/ming/tf-a-stm32mp-2.2.r2-r0/tf-a-stm32mp-2.2.r2/../build/trusted/bl2/stm32_qspi.o
 .text.stm32_qspi_set_speed
                0x000000002ffd9600       0x74 /home/ming/tf-a-stm32mp-2.2.r2-r0/tf-a-stm32mp-2.2.r2/../build/trusted/bl2/stm32_qspi.o
 .text.stm32_qspi_exec_op
                0x000000002ffd9674      0x244 /home/ming/tf-a-stm32mp-2.2.r2-r0/tf-a-stm32mp-2.2.r2/../build/trusted/bl2/stm32_qspi.o
 .text.stm32_qspi_init
                0x000000002ffd98b8       0xd0 /home/ming/tf-a-stm32mp-2.2.r2-r0/tf-a-stm32mp-2.2.r2/../build/trusted/bl2/stm32_qspi.o
                0x000000002ffd98b8                stm32_qspi_init
 .text.nand_read
                0x000000002ffd9988      0x114 /home/ming/tf-a-stm32mp-2.2.r2-r0/tf-a-stm32mp-2.2.r2/../build/trusted/bl2/core.o
                0x000000002ffd9988                nand_read
 .text.get_nand_device
                0x000000002ffd9a9c        0x8 /home/ming/tf-a-stm32mp-2.2.r2-r0/tf-a-stm32mp-2.2.r2/../build/trusted/bl2/core.o
                0x000000002ffd9a9c                get_nand_device
 .text.get_data_from_otp
                0x000000002ffd9aa4       0xe4 /home/ming/tf-a-stm32mp-2.2.r2-r0/tf-a-stm32mp-2.2.r2/../build/trusted/bl2/stm32mp1_boot_device.o
 .text.plat_get_raw_nand_data
                0x000000002ffd9b88       0x10 /home/ming/tf-a-stm32mp-2.2.r2-r0/tf-a-stm32mp-2.2.r2/../build/trusted/bl2/stm32mp1_boot_device.o
                0x000000002ffd9b88                plat_get_raw_nand_data
 .text.plat_get_spi_nand_data
                0x000000002ffd9b98       0x32 /home/ming/tf-a-stm32mp-2.2.r2-r0/tf-a-stm32mp-2.2.r2/../build/trusted/bl2/stm32mp1_boot_device.o
                0x000000002ffd9b98                plat_get_spi_nand_data
 .text.plat_get_nor_data
                0x000000002ffd9bca       0x2c /home/ming/tf-a-stm32mp-2.2.r2-r0/tf-a-stm32mp-2.2.r2/../build/trusted/bl2/stm32mp1_boot_device.o
                0x000000002ffd9bca                plat_get_nor_data
 *fill*         0x000000002ffd9bf6        0x2 
 .text.set_reg  0x000000002ffd9bf8       0x50 /home/ming/tf-a-stm32mp-2.2.r2-r0/tf-a-stm32mp-2.2.r2/../build/trusted/bl2/stm32mp1_ddr.o
 .text.board_ddr_power_init
                0x000000002ffd9c48       0x1a /home/ming/tf-a-stm32mp-2.2.r2-r0/tf-a-stm32mp-2.2.r2/../build/trusted/bl2/stm32mp1_ddr.o
 .text.stm32mp1_mode_register_write.isra.0
                0x000000002ffd9c62       0x22 /home/ming/tf-a-stm32mp-2.2.r2-r0/tf-a-stm32mp-2.2.r2/../build/trusted/bl2/stm32mp1_ddr.o
 .text.stm32mp1_wait_sw_done_ack
                0x000000002ffd9c84       0x54 /home/ming/tf-a-stm32mp-2.2.r2-r0/tf-a-stm32mp-2.2.r2/../build/trusted/bl2/stm32mp1_ddr.o
 .text.stm32mp1_wait_operating_mode.isra.2
                0x000000002ffd9cd8       0x6c /home/ming/tf-a-stm32mp-2.2.r2-r0/tf-a-stm32mp-2.2.r2/../build/trusted/bl2/stm32mp1_ddr.o
 .text.stm32mp1_ddrphy_idone_wait
                0x000000002ffd9d44       0x68 /home/ming/tf-a-stm32mp-2.2.r2-r0/tf-a-stm32mp-2.2.r2/../build/trusted/bl2/stm32mp1_ddr.o
 .text.stm32mp1_ddr_init
                0x000000002ffd9dac      0x4dc /home/ming/tf-a-stm32mp-2.2.r2-r0/tf-a-stm32mp-2.2.r2/../build/trusted/bl2/stm32mp1_ddr.o
                0x000000002ffd9dac                stm32mp1_ddr_init
 .text.stm32mp1_ddr_setup
                0x000000002ffda288      0x370 /home/ming/tf-a-stm32mp-2.2.r2-r0/tf-a-stm32mp-2.2.r2/../build/trusted/bl2/stm32mp1_ram.o
 .text.stm32mp1_ddr_clk_enable
                0x000000002ffda5f8       0x44 /home/ming/tf-a-stm32mp-2.2.r2-r0/tf-a-stm32mp-2.2.r2/../build/trusted/bl2/stm32mp1_ram.o
                0x000000002ffda5f8                stm32mp1_ddr_clk_enable
 .text.stm32mp1_ddr_probe
                0x000000002ffda63c       0x3c /home/ming/tf-a-stm32mp-2.2.r2-r0/tf-a-stm32mp-2.2.r2/../build/trusted/bl2/stm32mp1_ram.o
                0x000000002ffda63c                stm32mp1_ddr_probe
 .text.flush_bl_params_desc_args
                0x000000002ffda678       0x34 /home/ming/tf-a-stm32mp-2.2.r2-r0/tf-a-stm32mp-2.2.r2/../build/trusted/bl2/desc_image_load.o
                0x000000002ffda678                flush_bl_params_desc_args
 .text.flush_bl_params_desc
                0x000000002ffda6ac       0x1c /home/ming/tf-a-stm32mp-2.2.r2-r0/tf-a-stm32mp-2.2.r2/../build/trusted/bl2/desc_image_load.o
                0x000000002ffda6ac                flush_bl_params_desc
 .text.get_bl_params_node_index
                0x000000002ffda6c8       0x44 /home/ming/tf-a-stm32mp-2.2.r2-r0/tf-a-stm32mp-2.2.r2/../build/trusted/bl2/desc_image_load.o
                0x000000002ffda6c8                get_bl_params_node_index
 .text.get_bl_mem_params_node
                0x000000002ffda70c       0x30 /home/ming/tf-a-stm32mp-2.2.r2-r0/tf-a-stm32mp-2.2.r2/../build/trusted/bl2/desc_image_load.o
                0x000000002ffda70c                get_bl_mem_params_node
 .text.get_bl_load_info_from_mem_params_desc
                0x000000002ffda73c       0x54 /home/ming/tf-a-stm32mp-2.2.r2-r0/tf-a-stm32mp-2.2.r2/../build/trusted/bl2/desc_image_load.o
                0x000000002ffda73c                get_bl_load_info_from_mem_params_desc
 .text.get_next_bl_params_from_mem_params_desc
                0x000000002ffda790       0xbc /home/ming/tf-a-stm32mp-2.2.r2-r0/tf-a-stm32mp-2.2.r2/../build/trusted/bl2/desc_image_load.o
                0x000000002ffda790                get_next_bl_params_from_mem_params_desc
 .text.plat_flush_next_bl_params
                0x000000002ffda84c        0x4 /home/ming/tf-a-stm32mp-2.2.r2-r0/tf-a-stm32mp-2.2.r2/../build/trusted/bl2/plat_image_load.o
                0x000000002ffda84c                plat_flush_next_bl_params
 .text.plat_get_bl_image_load_info
                0x000000002ffda850       0x90 /home/ming/tf-a-stm32mp-2.2.r2-r0/tf-a-stm32mp-2.2.r2/../build/trusted/bl2/plat_image_load.o
                0x000000002ffda850                plat_get_bl_image_load_info
 .text.plat_get_next_bl_params
                0x000000002ffda8e0        0x4 /home/ming/tf-a-stm32mp-2.2.r2-r0/tf-a-stm32mp-2.2.r2/../build/trusted/bl2/plat_image_load.o
                0x000000002ffda8e0                plat_get_next_bl_params
 .text.bl2_load_images
                0x000000002ffda8e4      0x110 /home/ming/tf-a-stm32mp-2.2.r2-r0/tf-a-stm32mp-2.2.r2/../build/trusted/bl2/bl2_image_load_v2.o
                0x000000002ffda8e4                bl2_load_images
 .text.bl2_el3_setup
                0x000000002ffda9f4        0xe /home/ming/tf-a-stm32mp-2.2.r2-r0/tf-a-stm32mp-2.2.r2/../build/trusted/bl2/bl2_main.o
                0x000000002ffda9f4                bl2_el3_setup
 *fill*         0x000000002ffdaa02        0x2 
 .text.bl2_main
                0x000000002ffdaa04       0x50 /home/ming/tf-a-stm32mp-2.2.r2-r0/tf-a-stm32mp-2.2.r2/../build/trusted/bl2/bl2_main.o
                0x000000002ffdaa04                bl2_main
 .text.bl2_arch_setup
                0x000000002ffdaa54        0x2 /home/ming/tf-a-stm32mp-2.2.r2-r0/tf-a-stm32mp-2.2.r2/../build/trusted/bl2/bl2_arch_setup.o
                0x000000002ffdaa54                bl2_arch_setup
 *fill*         0x000000002ffdaa56        0x2 
 .text.load_auth_image_internal
                0x000000002ffdaa58      0x138 /home/ming/tf-a-stm32mp-2.2.r2-r0/tf-a-stm32mp-2.2.r2/../build/trusted/bl2/bl_common.o
 .text.load_auth_image
                0x000000002ffdab90       0x22 /home/ming/tf-a-stm32mp-2.2.r2-r0/tf-a-stm32mp-2.2.r2/../build/trusted/bl2/bl_common.o
                0x000000002ffdab90                load_auth_image
 *fill*         0x000000002ffdabb2        0x2 
 .text.print_entry_point_info
                0x000000002ffdabb4       0x20 /home/ming/tf-a-stm32mp-2.2.r2-r0/tf-a-stm32mp-2.2.r2/../build/trusted/bl2/bl_common.o
                0x000000002ffdabb4                print_entry_point_info
 .text.tf_log   0x000000002ffdabd4       0x5c /home/ming/tf-a-stm32mp-2.2.r2-r0/tf-a-stm32mp-2.2.r2/../build/trusted/bl2/tf_log.o
                0x000000002ffdabd4                tf_log
 .text.console_is_registered
                0x000000002ffdac30       0x28 /home/ming/tf-a-stm32mp-2.2.r2-r0/tf-a-stm32mp-2.2.r2/../build/trusted/bl2/multi_console.o
                0x000000002ffdac30                console_is_registered
 .text.console_register
                0x000000002ffdac58       0x40 /home/ming/tf-a-stm32mp-2.2.r2-r0/tf-a-stm32mp-2.2.r2/../build/trusted/bl2/multi_console.o
                0x000000002ffdac58                console_register
 .text.console_set_scope
                0x000000002ffdac98       0x1c /home/ming/tf-a-stm32mp-2.2.r2-r0/tf-a-stm32mp-2.2.r2/../build/trusted/bl2/multi_console.o
                0x000000002ffdac98                console_set_scope
 .text.console_putc
                0x000000002ffdacb4       0x58 /home/ming/tf-a-stm32mp-2.2.r2-r0/tf-a-stm32mp-2.2.r2/../build/trusted/bl2/multi_console.o
                0x000000002ffdacb4                console_putc
 .text.console_flush
                0x000000002ffdad0c       0x40 /home/ming/tf-a-stm32mp-2.2.r2-r0/tf-a-stm32mp-2.2.r2/../build/trusted/bl2/multi_console.o
                0x000000002ffdad0c                console_flush
 .text.bl2_el3_plat_prepare_exit
                0x000000002ffdad4c        0x2 /home/ming/tf-a-stm32mp-2.2.r2-r0/tf-a-stm32mp-2.2.r2/../build/trusted/bl2/plat_bl_common.o
                0x000000002ffdad4c                bl2_el3_plat_prepare_exit
 .text.plat_error_handler
                0x000000002ffdad4e        0x4 /home/ming/tf-a-stm32mp-2.2.r2-r0/tf-a-stm32mp-2.2.r2/../build/trusted/bl2/plat_bl_common.o
                0x000000002ffdad4e                plat_error_handler
 .text.bl2_plat_preload_setup
                0x000000002ffdad52        0x2 /home/ming/tf-a-stm32mp-2.2.r2-r0/tf-a-stm32mp-2.2.r2/../build/trusted/bl2/plat_bl_common.o
                0x000000002ffdad52                bl2_plat_preload_setup
 .text.bl2_plat_handle_pre_image_load
                0x000000002ffdad54        0x4 /home/ming/tf-a-stm32mp-2.2.r2-r0/tf-a-stm32mp-2.2.r2/../build/trusted/bl2/plat_bl_common.o
                0x000000002ffdad54                bl2_plat_handle_pre_image_load
 .text.plat_log_get_prefix
                0x000000002ffdad58       0x24 /home/ming/tf-a-stm32mp-2.2.r2-r0/tf-a-stm32mp-2.2.r2/../build/trusted/bl2/plat_log_common.o
                0x000000002ffdad58                plat_log_get_prefix
 .text.__popcountsi2
                0x000000002ffdad7c       0x2a /home/ming/tf-a-stm32mp-2.2.r2-r0/tf-a-stm32mp-2.2.r2/../build/trusted/bl2/popcountsi2.o
                0x000000002ffdad7c                __popcountsi2
 .text.__ctzdi2
                0x000000002ffdada6       0x20 /home/ming/tf-a-stm32mp-2.2.r2-r0/tf-a-stm32mp-2.2.r2/../build/trusted/bl2/ctzdi2.o
                0x000000002ffdada6                __ctzdi2
 .text.__udivmoddi4
                0x000000002ffdadc6      0x190 /home/ming/tf-a-stm32mp-2.2.r2-r0/tf-a-stm32mp-2.2.r2/../build/trusted/bl2/udivmoddi4.o
                0x000000002ffdadc6                __udivmoddi4
 .text.plat_get_syscnt_freq2
                0x000000002ffdaf56        0x6 /home/ming/tf-a-stm32mp-2.2.r2-r0/tf-a-stm32mp-2.2.r2/../build/trusted/bl2/stm32mp_common.o
                0x000000002ffdaf56                plat_get_syscnt_freq2
 .text.stm32mp_save_boot_ctx_address
                0x000000002ffdaf5c        0xc /home/ming/tf-a-stm32mp-2.2.r2-r0/tf-a-stm32mp-2.2.r2/../build/trusted/bl2/stm32mp_common.o
                0x000000002ffdaf5c                stm32mp_save_boot_ctx_address
 .text.stm32mp_get_boot_ctx_address
                0x000000002ffdaf68        0xc /home/ming/tf-a-stm32mp-2.2.r2-r0/tf-a-stm32mp-2.2.r2/../build/trusted/bl2/stm32mp_common.o
                0x000000002ffdaf68                stm32mp_get_boot_ctx_address
 .text.stm32mp_ddrctrl_base
                0x000000002ffdaf74        0x8 /home/ming/tf-a-stm32mp-2.2.r2-r0/tf-a-stm32mp-2.2.r2/../build/trusted/bl2/stm32mp_common.o
                0x000000002ffdaf74                stm32mp_ddrctrl_base
 .text.stm32mp_ddrphyc_base
                0x000000002ffdaf7c        0x8 /home/ming/tf-a-stm32mp-2.2.r2-r0/tf-a-stm32mp-2.2.r2/../build/trusted/bl2/stm32mp_common.o
                0x000000002ffdaf7c                stm32mp_ddrphyc_base
 .text.stm32mp_pwr_base
                0x000000002ffdaf84        0x8 /home/ming/tf-a-stm32mp-2.2.r2-r0/tf-a-stm32mp-2.2.r2/../build/trusted/bl2/stm32mp_common.o
                0x000000002ffdaf84                stm32mp_pwr_base
 .text.stm32mp_rcc_base
                0x000000002ffdaf8c        0x6 /home/ming/tf-a-stm32mp-2.2.r2-r0/tf-a-stm32mp-2.2.r2/../build/trusted/bl2/stm32mp_common.o
                0x000000002ffdaf8c                stm32mp_rcc_base
 .text.stm32mp_lock_available
                0x000000002ffdaf92       0x10 /home/ming/tf-a-stm32mp-2.2.r2-r0/tf-a-stm32mp-2.2.r2/../build/trusted/bl2/stm32mp_common.o
                0x000000002ffdaf92                stm32mp_lock_available
 *fill*         0x000000002ffdafa2        0x2 
 .text.stm32_get_gpio_bank_base
                0x000000002ffdafa4       0x28 /home/ming/tf-a-stm32mp-2.2.r2-r0/tf-a-stm32mp-2.2.r2/../build/trusted/bl2/stm32mp_common.o
                0x000000002ffdafa4                stm32_get_gpio_bank_base
 .text.stm32_get_gpio_bank_offset
                0x000000002ffdafcc       0x20 /home/ming/tf-a-stm32mp-2.2.r2-r0/tf-a-stm32mp-2.2.r2/../build/trusted/bl2/stm32mp_common.o
                0x000000002ffdafcc                stm32_get_gpio_bank_offset
 .text.stm32mp_check_header
                0x000000002ffdafec       0xc0 /home/ming/tf-a-stm32mp-2.2.r2-r0/tf-a-stm32mp-2.2.r2/../build/trusted/bl2/stm32mp_common.o
                0x000000002ffdafec                stm32mp_check_header
 .text.stm32mp_get_cpu_supply_name
                0x000000002ffdb0ac       0x2e /home/ming/tf-a-stm32mp-2.2.r2-r0/tf-a-stm32mp-2.2.r2/../build/trusted/bl2/stm32mp_common.o
                0x000000002ffdb0ac                stm32mp_get_cpu_supply_name
 *fill*         0x000000002ffdb0da        0x2 
 .text.stm32mp_save_loaded_header
                0x000000002ffdb0dc       0x1c /home/ming/tf-a-stm32mp-2.2.r2-r0/tf-a-stm32mp-2.2.r2/../build/trusted/bl2/stm32mp_common.o
                0x000000002ffdb0dc                stm32mp_save_loaded_header
 .text.stm32mp_delete_loaded_header
                0x000000002ffdb0f8       0x1c /home/ming/tf-a-stm32mp-2.2.r2-r0/tf-a-stm32mp-2.2.r2/../build/trusted/bl2/stm32mp_common.o
                0x000000002ffdb0f8                stm32mp_delete_loaded_header
 .text.stm32mp_get_loaded_header
                0x000000002ffdb114       0x1c /home/ming/tf-a-stm32mp-2.2.r2-r0/tf-a-stm32mp-2.2.r2/../build/trusted/bl2/stm32mp_common.o
                0x000000002ffdb114                stm32mp_get_loaded_header
 .text.configure_mmu
                0x000000002ffdb130       0x1c /home/ming/tf-a-stm32mp-2.2.r2-r0/tf-a-stm32mp-2.2.r2/../build/trusted/bl2/stm32mp1_private.o
                0x000000002ffdb130                configure_mmu
 .text.stm32_get_gpio_bank_clock
                0x000000002ffdb14c       0x20 /home/ming/tf-a-stm32mp-2.2.r2-r0/tf-a-stm32mp-2.2.r2/../build/trusted/bl2/stm32mp1_private.o
                0x000000002ffdb14c                stm32_get_gpio_bank_clock
 .text.stm32_get_otp_index
                0x000000002ffdb16c       0x28 /home/ming/tf-a-stm32mp-2.2.r2-r0/tf-a-stm32mp-2.2.r2/../build/trusted/bl2/stm32mp1_private.o
                0x000000002ffdb16c                stm32_get_otp_index
 .text.stm32_get_otp_value_from_idx
                0x000000002ffdb194       0x30 /home/ming/tf-a-stm32mp-2.2.r2-r0/tf-a-stm32mp-2.2.r2/../build/trusted/bl2/stm32mp1_private.o
                0x000000002ffdb194                stm32_get_otp_value_from_idx
 .text.stm32_get_otp_value
                0x000000002ffdb1c4       0x48 /home/ming/tf-a-stm32mp-2.2.r2-r0/tf-a-stm32mp-2.2.r2/../build/trusted/bl2/stm32mp1_private.o
                0x000000002ffdb1c4                stm32_get_otp_value
 .text.get_part_number
                0x000000002ffdb20c       0x4c /home/ming/tf-a-stm32mp-2.2.r2-r0/tf-a-stm32mp-2.2.r2/../build/trusted/bl2/stm32mp1_private.o
 .text.stm32mp_supports_cpu_opp
                0x000000002ffdb258       0x40 /home/ming/tf-a-stm32mp-2.2.r2-r0/tf-a-stm32mp-2.2.r2/../build/trusted/bl2/stm32mp1_private.o
                0x000000002ffdb258                stm32mp_supports_cpu_opp
 .text.stm32mp_print_cpuinfo
                0x000000002ffdb298      0x148 /home/ming/tf-a-stm32mp-2.2.r2-r0/tf-a-stm32mp-2.2.r2/../build/trusted/bl2/stm32mp1_private.o
                0x000000002ffdb298                stm32mp_print_cpuinfo
 .text.stm32mp_print_boardinfo
                0x000000002ffdb3e0       0x4c /home/ming/tf-a-stm32mp-2.2.r2-r0/tf-a-stm32mp-2.2.r2/../build/trusted/bl2/stm32mp1_private.o
                0x000000002ffdb3e0                stm32mp_print_boardinfo
 .text.stm32mp_is_closed_device
                0x000000002ffdb42c       0x20 /home/ming/tf-a-stm32mp-2.2.r2-r0/tf-a-stm32mp-2.2.r2/../build/trusted/bl2/stm32mp1_private.o
                0x000000002ffdb42c                stm32mp_is_closed_device
 .text.stm32mp_is_auth_supported
                0x000000002ffdb44c       0x3c /home/ming/tf-a-stm32mp-2.2.r2-r0/tf-a-stm32mp-2.2.r2/../build/trusted/bl2/stm32mp1_private.o
                0x000000002ffdb44c                stm32mp_is_auth_supported
 .text.stm32_iwdg_get_instance
                0x000000002ffdb488       0x28 /home/ming/tf-a-stm32mp-2.2.r2-r0/tf-a-stm32mp-2.2.r2/../build/trusted/bl2/stm32mp1_private.o
                0x000000002ffdb488                stm32_iwdg_get_instance
 .text.stm32_iwdg_get_otp_config
                0x000000002ffdb4b0       0x50 /home/ming/tf-a-stm32mp-2.2.r2-r0/tf-a-stm32mp-2.2.r2/../build/trusted/bl2/stm32mp1_private.o
                0x000000002ffdb4b0                stm32_iwdg_get_otp_config
 .text.stm32_iwdg_shadow_update
                0x000000002ffdb500       0x70 /home/ming/tf-a-stm32mp-2.2.r2-r0/tf-a-stm32mp-2.2.r2/../build/trusted/bl2/stm32mp1_private.o
                0x000000002ffdb500                stm32_iwdg_shadow_update
 .text.plat_bind_regulator
                0x000000002ffdb570       0x50 /home/ming/tf-a-stm32mp-2.2.r2-r0/tf-a-stm32mp-2.2.r2/../build/trusted/bl2/stm32mp1_private.o
                0x000000002ffdb570                plat_bind_regulator
 .text.xlat_arch_get_max_supported_pa
                0x000000002ffdb5c0        0x8 /home/ming/tf-a-stm32mp-2.2.r2-r0/tf-a-stm32mp-2.2.r2/../build/trusted/bl2/xlat_tables_arch.o
                0x000000002ffdb5c0                xlat_arch_get_max_supported_pa
 .text.xlat_get_min_virt_addr_space_size
                0x000000002ffdb5c8        0x6 /home/ming/tf-a-stm32mp-2.2.r2-r0/tf-a-stm32mp-2.2.r2/../build/trusted/bl2/xlat_tables_arch.o
                0x000000002ffdb5c8                xlat_get_min_virt_addr_space_size
 .text.is_dcache_enabled
                0x000000002ffdb5ce       0x1c /home/ming/tf-a-stm32mp-2.2.r2-r0/tf-a-stm32mp-2.2.r2/../build/trusted/bl2/xlat_tables_arch.o
                0x000000002ffdb5ce                is_dcache_enabled
 *fill*         0x000000002ffdb5ea        0x2 
 .text.xlat_arch_regime_get_xn_desc
                0x000000002ffdb5ec       0x28 /home/ming/tf-a-stm32mp-2.2.r2-r0/tf-a-stm32mp-2.2.r2/../build/trusted/bl2/xlat_tables_arch.o
                0x000000002ffdb5ec                xlat_arch_regime_get_xn_desc
 .text.xlat_arch_tlbi_va
                0x000000002ffdb614       0x30 /home/ming/tf-a-stm32mp-2.2.r2-r0/tf-a-stm32mp-2.2.r2/../build/trusted/bl2/xlat_tables_arch.o
                0x000000002ffdb614                xlat_arch_tlbi_va
 .text.xlat_arch_tlbi_va_sync
                0x000000002ffdb644       0x10 /home/ming/tf-a-stm32mp-2.2.r2-r0/tf-a-stm32mp-2.2.r2/../build/trusted/bl2/xlat_tables_arch.o
                0x000000002ffdb644                xlat_arch_tlbi_va_sync
 .text.xlat_arch_current_el
                0x000000002ffdb654       0x3c /home/ming/tf-a-stm32mp-2.2.r2-r0/tf-a-stm32mp-2.2.r2/../build/trusted/bl2/xlat_tables_arch.o
                0x000000002ffdb654                xlat_arch_current_el
 .text.is_mmu_enabled_ctx
                0x000000002ffdb690       0x40 /home/ming/tf-a-stm32mp-2.2.r2-r0/tf-a-stm32mp-2.2.r2/../build/trusted/bl2/xlat_tables_arch.o
                0x000000002ffdb690                is_mmu_enabled_ctx
 .text.setup_mmu_cfg
                0x000000002ffdb6d0       0xac /home/ming/tf-a-stm32mp-2.2.r2-r0/tf-a-stm32mp-2.2.r2/../build/trusted/bl2/xlat_tables_arch.o
                0x000000002ffdb6d0                setup_mmu_cfg
 .text.mmap_add_region
                0x000000002ffdb77c       0x28 /home/ming/tf-a-stm32mp-2.2.r2-r0/tf-a-stm32mp-2.2.r2/../build/trusted/bl2/xlat_tables_context.o
                0x000000002ffdb77c                mmap_add_region
 .text.mmap_add
                0x000000002ffdb7a4        0xc /home/ming/tf-a-stm32mp-2.2.r2-r0/tf-a-stm32mp-2.2.r2/../build/trusted/bl2/xlat_tables_context.o
                0x000000002ffdb7a4                mmap_add
 .text.mmap_add_dynamic_region
                0x000000002ffdb7b0       0x28 /home/ming/tf-a-stm32mp-2.2.r2-r0/tf-a-stm32mp-2.2.r2/../build/trusted/bl2/xlat_tables_context.o
                0x000000002ffdb7b0                mmap_add_dynamic_region
 .text.mmap_remove_dynamic_region
                0x000000002ffdb7d8       0x10 /home/ming/tf-a-stm32mp-2.2.r2-r0/tf-a-stm32mp-2.2.r2/../build/trusted/bl2/xlat_tables_context.o
                0x000000002ffdb7d8                mmap_remove_dynamic_region
 .text.init_xlat_tables
                0x000000002ffdb7e8       0x3c /home/ming/tf-a-stm32mp-2.2.r2-r0/tf-a-stm32mp-2.2.r2/../build/trusted/bl2/xlat_tables_context.o
                0x000000002ffdb7e8                init_xlat_tables
 .text.enable_mmu_svc_mon
                0x000000002ffdb824       0x34 /home/ming/tf-a-stm32mp-2.2.r2-r0/tf-a-stm32mp-2.2.r2/../build/trusted/bl2/xlat_tables_context.o
                0x000000002ffdb824                enable_mmu_svc_mon
 .text.mmap_add_region_check
                0x000000002ffdb858      0x15c /home/ming/tf-a-stm32mp-2.2.r2-r0/tf-a-stm32mp-2.2.r2/../build/trusted/bl2/xlat_tables_core.o
 .text.xlat_clean_dcache_range
                0x000000002ffdb9b4       0x1a /home/ming/tf-a-stm32mp-2.2.r2-r0/tf-a-stm32mp-2.2.r2/../build/trusted/bl2/xlat_tables_core.o
 *fill*         0x000000002ffdb9ce        0x2 
 .text.xlat_table_get_index
                0x000000002ffdb9d0       0x28 /home/ming/tf-a-stm32mp-2.2.r2-r0/tf-a-stm32mp-2.2.r2/../build/trusted/bl2/xlat_tables_core.o
 .text.xlat_tables_unmap_region
                0x000000002ffdb9f8      0x154 /home/ming/tf-a-stm32mp-2.2.r2-r0/tf-a-stm32mp-2.2.r2/../build/trusted/bl2/xlat_tables_core.o
 .text.xlat_desc
                0x000000002ffdbb4c       0xb0 /home/ming/tf-a-stm32mp-2.2.r2-r0/tf-a-stm32mp-2.2.r2/../build/trusted/bl2/xlat_tables_core.o
                0x000000002ffdbb4c                xlat_desc
 .text.xlat_tables_map_region
                0x000000002ffdbbfc      0x1bc /home/ming/tf-a-stm32mp-2.2.r2-r0/tf-a-stm32mp-2.2.r2/../build/trusted/bl2/xlat_tables_core.o
 .text.mmap_add_region_ctx
                0x000000002ffdbdb8       0xf0 /home/ming/tf-a-stm32mp-2.2.r2-r0/tf-a-stm32mp-2.2.r2/../build/trusted/bl2/xlat_tables_core.o
                0x000000002ffdbdb8                mmap_add_region_ctx
 .text.mmap_add_ctx
                0x000000002ffdbea8       0x18 /home/ming/tf-a-stm32mp-2.2.r2-r0/tf-a-stm32mp-2.2.r2/../build/trusted/bl2/xlat_tables_core.o
                0x000000002ffdbea8                mmap_add_ctx
 .text.mmap_add_dynamic_region_ctx
                0x000000002ffdbec0      0x174 /home/ming/tf-a-stm32mp-2.2.r2-r0/tf-a-stm32mp-2.2.r2/../build/trusted/bl2/xlat_tables_core.o
                0x000000002ffdbec0                mmap_add_dynamic_region_ctx
 .text.mmap_remove_dynamic_region_ctx
                0x000000002ffdc034      0x110 /home/ming/tf-a-stm32mp-2.2.r2-r0/tf-a-stm32mp-2.2.r2/../build/trusted/bl2/xlat_tables_core.o
                0x000000002ffdc034                mmap_remove_dynamic_region_ctx
 .text.init_xlat_tables_ctx
                0x000000002ffdc144      0x154 /home/ming/tf-a-stm32mp-2.2.r2-r0/tf-a-stm32mp-2.2.r2/../build/trusted/bl2/xlat_tables_core.o
                0x000000002ffdc144                init_xlat_tables_ctx
 .text.xlat_mmap_print
                0x000000002ffdc298        0x2 /home/ming/tf-a-stm32mp-2.2.r2-r0/tf-a-stm32mp-2.2.r2/../build/trusted/bl2/xlat_tables_utils.o
                0x000000002ffdc298                xlat_mmap_print
 .text.xlat_tables_print
                0x000000002ffdc29a        0x2 /home/ming/tf-a-stm32mp-2.2.r2-r0/tf-a-stm32mp-2.2.r2/../build/trusted/bl2/xlat_tables_utils.o
                0x000000002ffdc29a                xlat_tables_print
 .text.tzc400_set_action
                0x000000002ffdc29c       0x24 /home/ming/tf-a-stm32mp-2.2.r2-r0/tf-a-stm32mp-2.2.r2/../build/trusted/bl2/tzc400.o
                0x000000002ffdc29c                tzc400_set_action
 .text.tzc400_init
                0x000000002ffdc2c0       0x5c /home/ming/tf-a-stm32mp-2.2.r2-r0/tf-a-stm32mp-2.2.r2/../build/trusted/bl2/tzc400.o
                0x000000002ffdc2c0                tzc400_init
 .text.tzc400_configure_region
                0x000000002ffdc31c       0xc4 /home/ming/tf-a-stm32mp-2.2.r2-r0/tf-a-stm32mp-2.2.r2/../build/trusted/bl2/tzc400.o
                0x000000002ffdc31c                tzc400_configure_region
 .text.tzc400_enable_filters
                0x000000002ffdc3e0       0x68 /home/ming/tf-a-stm32mp-2.2.r2-r0/tf-a-stm32mp-2.2.r2/../build/trusted/bl2/tzc400.o
                0x000000002ffdc3e0                tzc400_enable_filters
 .text.tzc400_disable_filters
                0x000000002ffdc448       0x48 /home/ming/tf-a-stm32mp-2.2.r2-r0/tf-a-stm32mp-2.2.r2/../build/trusted/bl2/tzc400.o
                0x000000002ffdc448                tzc400_disable_filters
 .text.udelay   0x000000002ffdc490       0x5c /home/ming/tf-a-stm32mp-2.2.r2-r0/tf-a-stm32mp-2.2.r2/../build/trusted/bl2/delay_timer.o
                0x000000002ffdc490                udelay
 .text.mdelay   0x000000002ffdc4ec        0xa /home/ming/tf-a-stm32mp-2.2.r2-r0/tf-a-stm32mp-2.2.r2/../build/trusted/bl2/delay_timer.o
                0x000000002ffdc4ec                mdelay
 *fill*         0x000000002ffdc4f6        0x2 
 .text.timer_init
                0x000000002ffdc4f8       0x28 /home/ming/tf-a-stm32mp-2.2.r2-r0/tf-a-stm32mp-2.2.r2/../build/trusted/bl2/delay_timer.o
                0x000000002ffdc4f8                timer_init
 .text.get_timer_value
                0x000000002ffdc520        0x8 /home/ming/tf-a-stm32mp-2.2.r2-r0/tf-a-stm32mp-2.2.r2/../build/trusted/bl2/generic_delay_timer.o
 .text.generic_delay_timer_init_args
                0x000000002ffdc528       0x18 /home/ming/tf-a-stm32mp-2.2.r2-r0/tf-a-stm32mp-2.2.r2/../build/trusted/bl2/generic_delay_timer.o
                0x000000002ffdc528                generic_delay_timer_init_args
 .text.generic_delay_timer_init
                0x000000002ffdc540       0x48 /home/ming/tf-a-stm32mp-2.2.r2-r0/tf-a-stm32mp-2.2.r2/../build/trusted/bl2/generic_delay_timer.o
                0x000000002ffdc540                generic_delay_timer_init
 .text.bsec_lock
                0x000000002ffdc588       0x18 /home/ming/tf-a-stm32mp-2.2.r2-r0/tf-a-stm32mp-2.2.r2/../build/trusted/bl2/bsec2.o
 .text.bsec_unlock
                0x000000002ffdc5a0       0x18 /home/ming/tf-a-stm32mp-2.2.r2-r0/tf-a-stm32mp-2.2.r2/../build/trusted/bl2/bsec2.o
 .text.otp_bank_offset
                0x000000002ffdc5b8       0x18 /home/ming/tf-a-stm32mp-2.2.r2-r0/tf-a-stm32mp-2.2.r2/../build/trusted/bl2/bsec2.o
 .text.bsec_check_error
                0x000000002ffdc5d0       0x34 /home/ming/tf-a-stm32mp-2.2.r2-r0/tf-a-stm32mp-2.2.r2/../build/trusted/bl2/bsec2.o
 .text.bsec_find_otp_name_in_dt
                0x000000002ffdc604      0x104 /home/ming/tf-a-stm32mp-2.2.r2-r0/tf-a-stm32mp-2.2.r2/../build/trusted/bl2/bsec2.o
                0x000000002ffdc604                bsec_find_otp_name_in_dt
 .text.bsec_read_otp
                0x000000002ffdc708       0x20 /home/ming/tf-a-stm32mp-2.2.r2-r0/tf-a-stm32mp-2.2.r2/../build/trusted/bl2/bsec2.o
                0x000000002ffdc708                bsec_read_otp
 .text.bsec_read_debug_conf
                0x000000002ffdc728        0xc /home/ming/tf-a-stm32mp-2.2.r2-r0/tf-a-stm32mp-2.2.r2/../build/trusted/bl2/bsec2.o
                0x000000002ffdc728                bsec_read_debug_conf
 .text.bsec_get_status
                0x000000002ffdc734        0xc /home/ming/tf-a-stm32mp-2.2.r2-r0/tf-a-stm32mp-2.2.r2/../build/trusted/bl2/bsec2.o
                0x000000002ffdc734                bsec_get_status
 .text.bsec_power_safmem
                0x000000002ffdc740       0x60 /home/ming/tf-a-stm32mp-2.2.r2-r0/tf-a-stm32mp-2.2.r2/../build/trusted/bl2/bsec2.o
 .text.bsec_get_version
                0x000000002ffdc7a0       0x10 /home/ming/tf-a-stm32mp-2.2.r2-r0/tf-a-stm32mp-2.2.r2/../build/trusted/bl2/bsec2.o
                0x000000002ffdc7a0                bsec_get_version
 .text.bsec_get_id
                0x000000002ffdc7b0       0x10 /home/ming/tf-a-stm32mp-2.2.r2-r0/tf-a-stm32mp-2.2.r2/../build/trusted/bl2/bsec2.o
                0x000000002ffdc7b0                bsec_get_id
 .text.bsec_probe
                0x000000002ffdc7c0       0x50 /home/ming/tf-a-stm32mp-2.2.r2-r0/tf-a-stm32mp-2.2.r2/../build/trusted/bl2/bsec2.o
                0x000000002ffdc7c0                bsec_probe
 .text.bsec_set_sr_lock
                0x000000002ffdc810       0x38 /home/ming/tf-a-stm32mp-2.2.r2-r0/tf-a-stm32mp-2.2.r2/../build/trusted/bl2/bsec2.o
                0x000000002ffdc810                bsec_set_sr_lock
 .text.bsec_read_sr_lock
                0x000000002ffdc848       0x38 /home/ming/tf-a-stm32mp-2.2.r2-r0/tf-a-stm32mp-2.2.r2/../build/trusted/bl2/bsec2.o
                0x000000002ffdc848                bsec_read_sr_lock
 .text.bsec_shadow_register
                0x000000002ffdc880       0x7c /home/ming/tf-a-stm32mp-2.2.r2-r0/tf-a-stm32mp-2.2.r2/../build/trusted/bl2/bsec2.o
                0x000000002ffdc880                bsec_shadow_register
 .text.bsec_set_sw_lock
                0x000000002ffdc8fc       0x38 /home/ming/tf-a-stm32mp-2.2.r2-r0/tf-a-stm32mp-2.2.r2/../build/trusted/bl2/bsec2.o
                0x000000002ffdc8fc                bsec_set_sw_lock
 .text.bsec_read_sw_lock
                0x000000002ffdc934       0x38 /home/ming/tf-a-stm32mp-2.2.r2-r0/tf-a-stm32mp-2.2.r2/../build/trusted/bl2/bsec2.o
                0x000000002ffdc934                bsec_read_sw_lock
 .text.bsec_write_otp
                0x000000002ffdc96c       0x44 /home/ming/tf-a-stm32mp-2.2.r2-r0/tf-a-stm32mp-2.2.r2/../build/trusted/bl2/bsec2.o
                0x000000002ffdc96c                bsec_write_otp
 .text.bsec_read_sp_lock
                0x000000002ffdc9b0       0x38 /home/ming/tf-a-stm32mp-2.2.r2-r0/tf-a-stm32mp-2.2.r2/../build/trusted/bl2/bsec2.o
                0x000000002ffdc9b0                bsec_read_sp_lock
 .text.bsec_read_permanent_lock
                0x000000002ffdc9e8       0x38 /home/ming/tf-a-stm32mp-2.2.r2-r0/tf-a-stm32mp-2.2.r2/../build/trusted/bl2/bsec2.o
                0x000000002ffdc9e8                bsec_read_permanent_lock
 .text.bsec_program_otp
                0x000000002ffdca20       0xdc /home/ming/tf-a-stm32mp-2.2.r2-r0/tf-a-stm32mp-2.2.r2/../build/trusted/bl2/bsec2.o
                0x000000002ffdca20                bsec_program_otp
 .text.bsec_shadow_read_otp
                0x000000002ffdcafc       0x3c /home/ming/tf-a-stm32mp-2.2.r2-r0/tf-a-stm32mp-2.2.r2/../build/trusted/bl2/bsec2.o
                0x000000002ffdcafc                bsec_shadow_read_otp
 .text.fdt_osc_read_freq
                0x000000002ffdcb38       0xa0 /home/ming/tf-a-stm32mp-2.2.r2-r0/tf-a-stm32mp-2.2.r2/../build/trusted/bl2/stm32mp_clkfunc.o
                0x000000002ffdcb38                fdt_osc_read_freq
 .text.fdt_osc_read_bool
                0x000000002ffdcbd8       0x74 /home/ming/tf-a-stm32mp-2.2.r2-r0/tf-a-stm32mp-2.2.r2/../build/trusted/bl2/stm32mp_clkfunc.o
                0x000000002ffdcbd8                fdt_osc_read_bool
 .text.fdt_osc_read_uint32_default
                0x000000002ffdcc4c       0x74 /home/ming/tf-a-stm32mp-2.2.r2-r0/tf-a-stm32mp-2.2.r2/../build/trusted/bl2/stm32mp_clkfunc.o
                0x000000002ffdcc4c                fdt_osc_read_uint32_default
 .text.fdt_get_rcc_node
                0x000000002ffdccc0        0xc /home/ming/tf-a-stm32mp-2.2.r2-r0/tf-a-stm32mp-2.2.r2/../build/trusted/bl2/stm32mp_clkfunc.o
                0x000000002ffdccc0                fdt_get_rcc_node
 .text.fdt_rcc_read_uint32_array
                0x000000002ffdcccc       0x24 /home/ming/tf-a-stm32mp-2.2.r2-r0/tf-a-stm32mp-2.2.r2/../build/trusted/bl2/stm32mp_clkfunc.o
                0x000000002ffdcccc                fdt_rcc_read_uint32_array
 .text.fdt_rcc_subnode_offset
                0x000000002ffdccf0       0x2e /home/ming/tf-a-stm32mp-2.2.r2-r0/tf-a-stm32mp-2.2.r2/../build/trusted/bl2/stm32mp_clkfunc.o
                0x000000002ffdccf0                fdt_rcc_subnode_offset
 .text.fdt_rcc_read_prop
                0x000000002ffdcd1e       0x30 /home/ming/tf-a-stm32mp-2.2.r2-r0/tf-a-stm32mp-2.2.r2/../build/trusted/bl2/stm32mp_clkfunc.o
                0x000000002ffdcd1e                fdt_rcc_read_prop
 .text.fdt_get_rcc_secure_status
                0x000000002ffdcd4e       0x18 /home/ming/tf-a-stm32mp-2.2.r2-r0/tf-a-stm32mp-2.2.r2/../build/trusted/bl2/stm32mp_clkfunc.o
                0x000000002ffdcd4e                fdt_get_rcc_secure_status
 *fill*         0x000000002ffdcd66        0x2 
 .text.fdt_get_clock_id
                0x000000002ffdcd68       0x48 /home/ming/tf-a-stm32mp-2.2.r2-r0/tf-a-stm32mp-2.2.r2/../build/trusted/bl2/stm32mp_clkfunc.o
                0x000000002ffdcd68                fdt_get_clock_id
 .text.fdt_is_pll1_predefined
                0x000000002ffdcdb0       0x14 /home/ming/tf-a-stm32mp-2.2.r2-r0/tf-a-stm32mp-2.2.r2/../build/trusted/bl2/stm32mp_clkfunc.o
                0x000000002ffdcdb0                fdt_is_pll1_predefined
 .text.stm32mp_stgen_get_counter
                0x000000002ffdcdc4       0x10 /home/ming/tf-a-stm32mp-2.2.r2-r0/tf-a-stm32mp-2.2.r2/../build/trusted/bl2/stm32mp_clkfunc.o
                0x000000002ffdcdc4                stm32mp_stgen_get_counter
 .text.stm32mp_stgen_config
                0x000000002ffdcdd4       0x60 /home/ming/tf-a-stm32mp-2.2.r2-r0/tf-a-stm32mp-2.2.r2/../build/trusted/bl2/stm32mp_clkfunc.o
                0x000000002ffdcdd4                stm32mp_stgen_config
 .text.stm32mp1_read_pll_freq
                0x000000002ffdce34       0xbc /home/ming/tf-a-stm32mp-2.2.r2-r0/tf-a-stm32mp-2.2.r2/../build/trusted/bl2/stm32mp1_clk.o
 .text.get_clock_rate
                0x000000002ffdcef0      0x198 /home/ming/tf-a-stm32mp-2.2.r2-r0/tf-a-stm32mp-2.2.r2/../build/trusted/bl2/stm32mp1_clk.o
 .text.stm32mp1_pll_compute_pllxcfgr1
                0x000000002ffdd088       0x8c /home/ming/tf-a-stm32mp-2.2.r2-r0/tf-a-stm32mp-2.2.r2/../build/trusted/bl2/stm32mp1_clk.o
 .text.stm32mp1_pll_start
                0x000000002ffdd114       0x24 /home/ming/tf-a-stm32mp-2.2.r2-r0/tf-a-stm32mp-2.2.r2/../build/trusted/bl2/stm32mp1_clk.o
 .text.stm32mp1_mco_csg
                0x000000002ffdd138       0x3a /home/ming/tf-a-stm32mp-2.2.r2-r0/tf-a-stm32mp-2.2.r2/../build/trusted/bl2/stm32mp1_clk.o
 .text.stm32mp1_clk_lock
                0x000000002ffdd172       0x16 /home/ming/tf-a-stm32mp-2.2.r2-r0/tf-a-stm32mp-2.2.r2/../build/trusted/bl2/stm32mp1_clk.o
 .text.stm32mp1_clk_unlock
                0x000000002ffdd188       0x16 /home/ming/tf-a-stm32mp-2.2.r2-r0/tf-a-stm32mp-2.2.r2/../build/trusted/bl2/stm32mp1_clk.o
 *fill*         0x000000002ffdd19e        0x2 
 .text.stm32mp1_pll_stop
                0x000000002ffdd1a0       0x80 /home/ming/tf-a-stm32mp-2.2.r2-r0/tf-a-stm32mp-2.2.r2/../build/trusted/bl2/stm32mp1_clk.o
 .text.__clk_enable
                0x000000002ffdd220       0x22 /home/ming/tf-a-stm32mp-2.2.r2-r0/tf-a-stm32mp-2.2.r2/../build/trusted/bl2/stm32mp1_clk.o
 .text.__clk_disable
                0x000000002ffdd242       0x24 /home/ming/tf-a-stm32mp-2.2.r2-r0/tf-a-stm32mp-2.2.r2/../build/trusted/bl2/stm32mp1_clk.o
 *fill*         0x000000002ffdd266        0x2 
 .text.stm32mp1_check_pll_conf
                0x000000002ffdd268      0x110 /home/ming/tf-a-stm32mp-2.2.r2-r0/tf-a-stm32mp-2.2.r2/../build/trusted/bl2/stm32mp1_clk.o
 .text.clock_is_always_on
                0x000000002ffdd378       0x1c /home/ming/tf-a-stm32mp-2.2.r2-r0/tf-a-stm32mp-2.2.r2/../build/trusted/bl2/stm32mp1_clk.o
 .text.stm32mp1_clk_get_gated_id
                0x000000002ffdd394       0x38 /home/ming/tf-a-stm32mp-2.2.r2-r0/tf-a-stm32mp-2.2.r2/../build/trusted/bl2/stm32mp1_clk.o
 .text.stm32mp1_clk_get_parent
                0x000000002ffdd3cc       0x7c /home/ming/tf-a-stm32mp-2.2.r2-r0/tf-a-stm32mp-2.2.r2/../build/trusted/bl2/stm32mp1_clk.o
 .text.__stm32mp1_clk_enable
                0x000000002ffdd448       0x78 /home/ming/tf-a-stm32mp-2.2.r2-r0/tf-a-stm32mp-2.2.r2/../build/trusted/bl2/stm32mp1_clk.o
 .text.__stm32mp1_clk_disable
                0x000000002ffdd4c0       0x74 /home/ming/tf-a-stm32mp-2.2.r2-r0/tf-a-stm32mp-2.2.r2/../build/trusted/bl2/stm32mp1_clk.o
 .text.unlikely.stm32mp1_pkcs_config
                0x000000002ffdd534       0x26 /home/ming/tf-a-stm32mp-2.2.r2-r0/tf-a-stm32mp-2.2.r2/../build/trusted/bl2/stm32mp1_clk.o
 *fill*         0x000000002ffdd55a        0x2 
 .text.stm32mp1_set_clkdiv
                0x000000002ffdd55c       0x6c /home/ming/tf-a-stm32mp-2.2.r2-r0/tf-a-stm32mp-2.2.r2/../build/trusted/bl2/stm32mp1_clk.o
 .text.stm32mp1_osc_wait
                0x000000002ffdd5c8       0x84 /home/ming/tf-a-stm32mp-2.2.r2-r0/tf-a-stm32mp-2.2.r2/../build/trusted/bl2/stm32mp1_clk.o
 .text.stm32mp1_set_clksrc
                0x000000002ffdd64c       0x78 /home/ming/tf-a-stm32mp-2.2.r2-r0/tf-a-stm32mp-2.2.r2/../build/trusted/bl2/stm32mp1_clk.o
 .text.stm32mp1_pll_output
                0x000000002ffdd6c4       0x80 /home/ming/tf-a-stm32mp-2.2.r2-r0/tf-a-stm32mp-2.2.r2/../build/trusted/bl2/stm32mp1_clk.o
 .text.stm32mp1_pll_config_output
                0x000000002ffdd744       0x34 /home/ming/tf-a-stm32mp-2.2.r2-r0/tf-a-stm32mp-2.2.r2/../build/trusted/bl2/stm32mp1_clk.o
 .text.stm32mp1_pll_config
                0x000000002ffdd778       0x50 /home/ming/tf-a-stm32mp-2.2.r2-r0/tf-a-stm32mp-2.2.r2/../build/trusted/bl2/stm32mp1_clk.o
 .text.stm32mp1_clk_rcc_regs_lock
                0x000000002ffdd7c8        0xc /home/ming/tf-a-stm32mp-2.2.r2-r0/tf-a-stm32mp-2.2.r2/../build/trusted/bl2/stm32mp1_clk.o
                0x000000002ffdd7c8                stm32mp1_clk_rcc_regs_lock
 .text.stm32mp1_clk_rcc_regs_unlock
                0x000000002ffdd7d4        0xc /home/ming/tf-a-stm32mp-2.2.r2-r0/tf-a-stm32mp-2.2.r2/../build/trusted/bl2/stm32mp1_clk.o
                0x000000002ffdd7d4                stm32mp1_clk_rcc_regs_unlock
 .text.stm32mp_clk_enable
                0x000000002ffdd7e0        0x6 /home/ming/tf-a-stm32mp-2.2.r2-r0/tf-a-stm32mp-2.2.r2/../build/trusted/bl2/stm32mp1_clk.o
                0x000000002ffdd7e0                stm32mp_clk_enable
 .text.stm32mp_clk_disable
                0x000000002ffdd7e6        0x6 /home/ming/tf-a-stm32mp-2.2.r2-r0/tf-a-stm32mp-2.2.r2/../build/trusted/bl2/stm32mp1_clk.o
                0x000000002ffdd7e6                stm32mp_clk_disable
 .text.stm32mp1_clk_force_enable
                0x000000002ffdd7ec        0x6 /home/ming/tf-a-stm32mp-2.2.r2-r0/tf-a-stm32mp-2.2.r2/../build/trusted/bl2/stm32mp1_clk.o
                0x000000002ffdd7ec                stm32mp1_clk_force_enable
 .text.stm32mp_clk_get_rate
                0x000000002ffdd7f2       0x16 /home/ming/tf-a-stm32mp-2.2.r2-r0/tf-a-stm32mp-2.2.r2/../build/trusted/bl2/stm32mp1_clk.o
                0x000000002ffdd7f2                stm32mp_clk_get_rate
 .text.clk_get_pll1_settings.part.5
                0x000000002ffdd808      0x258 /home/ming/tf-a-stm32mp-2.2.r2-r0/tf-a-stm32mp-2.2.r2/../build/trusted/bl2/stm32mp1_clk.o
 .text.stm32mp1_clk_get_maxfreq_opp
                0x000000002ffdda60       0x54 /home/ming/tf-a-stm32mp-2.2.r2-r0/tf-a-stm32mp-2.2.r2/../build/trusted/bl2/stm32mp1_clk.o
                0x000000002ffdda60                stm32mp1_clk_get_maxfreq_opp
 .text.stm32mp1_clk_lp_load_opp_pll1_settings
                0x000000002ffddab4       0x20 /home/ming/tf-a-stm32mp-2.2.r2-r0/tf-a-stm32mp-2.2.r2/../build/trusted/bl2/stm32mp1_clk.o
                0x000000002ffddab4                stm32mp1_clk_lp_load_opp_pll1_settings
 .text.stm32mp1_clk_init
                0x000000002ffddad4      0x690 /home/ming/tf-a-stm32mp-2.2.r2-r0/tf-a-stm32mp-2.2.r2/../build/trusted/bl2/stm32mp1_clk.o
                0x000000002ffddad4                stm32mp1_clk_init
 .text.stm32mp1_clk_probe
                0x000000002ffde164       0xa4 /home/ming/tf-a-stm32mp-2.2.r2-r0/tf-a-stm32mp-2.2.r2/../build/trusted/bl2/stm32mp1_clk.o
                0x000000002ffde164                stm32mp1_clk_probe
 .text.ddr_enable_clock
                0x000000002ffde208       0x22 /home/ming/tf-a-stm32mp-2.2.r2-r0/tf-a-stm32mp-2.2.r2/../build/trusted/bl2/stm32mp1_ddr_helpers.o
                0x000000002ffde208                ddr_enable_clock
 *fill*         0x000000002ffde22a        0x2 
 .text.ddr_read_sr_mode
                0x000000002ffde22c       0x18 /home/ming/tf-a-stm32mp-2.2.r2-r0/tf-a-stm32mp-2.2.r2/../build/trusted/bl2/stm32mp1_ddr_helpers.o
                0x000000002ffde22c                ddr_read_sr_mode
 .text.ddr_set_sr_mode
                0x000000002ffde244      0x1cc /home/ming/tf-a-stm32mp-2.2.r2-r0/tf-a-stm32mp-2.2.r2/../build/trusted/bl2/stm32mp1_ddr_helpers.o
                0x000000002ffde244                ddr_set_sr_mode
 .text.fdt32_to_cpu
                0x000000002ffde410        0x4 /home/ming/tf-a-stm32mp-2.2.r2-r0/tf-a-stm32mp-2.2.r2/../build/trusted/bl2/stm32_gpio.o
 .text.set_gpio
                0x000000002ffde414       0xdc /home/ming/tf-a-stm32mp-2.2.r2-r0/tf-a-stm32mp-2.2.r2/../build/trusted/bl2/stm32_gpio.o
                0x000000002ffde414                set_gpio
 .text.dt_set_pinctrl_config
                0x000000002ffde4f0      0x204 /home/ming/tf-a-stm32mp-2.2.r2-r0/tf-a-stm32mp-2.2.r2/../build/trusted/bl2/stm32_gpio.o
                0x000000002ffde4f0                dt_set_pinctrl_config
 .text.i2c_transfer_config.isra.1
                0x000000002ffde6f4       0x2c /home/ming/tf-a-stm32mp-2.2.r2-r0/tf-a-stm32mp-2.2.r2/../build/trusted/bl2/stm32_i2c.o
 .text.i2c_wait_flag
                0x000000002ffde720       0x44 /home/ming/tf-a-stm32mp-2.2.r2-r0/tf-a-stm32mp-2.2.r2/../build/trusted/bl2/stm32_i2c.o
 .text.i2c_ack_failed
                0x000000002ffde764       0x90 /home/ming/tf-a-stm32mp-2.2.r2-r0/tf-a-stm32mp-2.2.r2/../build/trusted/bl2/stm32_i2c.o
 .text.i2c_wait_txis
                0x000000002ffde7f4       0x42 /home/ming/tf-a-stm32mp-2.2.r2-r0/tf-a-stm32mp-2.2.r2/../build/trusted/bl2/stm32_i2c.o
 .text.i2c_wait_stop
                0x000000002ffde836       0x42 /home/ming/tf-a-stm32mp-2.2.r2-r0/tf-a-stm32mp-2.2.r2/../build/trusted/bl2/stm32_i2c.o
 .text.i2c_write
                0x000000002ffde878      0x214 /home/ming/tf-a-stm32mp-2.2.r2-r0/tf-a-stm32mp-2.2.r2/../build/trusted/bl2/stm32_i2c.o
 .text.i2c_read.isra.2
                0x000000002ffdea8c      0x1ec /home/ming/tf-a-stm32mp-2.2.r2-r0/tf-a-stm32mp-2.2.r2/../build/trusted/bl2/stm32_i2c.o
 .text.stm32_i2c_get_setup_from_fdt
                0x000000002ffdec78       0x60 /home/ming/tf-a-stm32mp-2.2.r2-r0/tf-a-stm32mp-2.2.r2/../build/trusted/bl2/stm32_i2c.o
                0x000000002ffdec78                stm32_i2c_get_setup_from_fdt
 .text.stm32_i2c_init
                0x000000002ffdecd8      0x460 /home/ming/tf-a-stm32mp-2.2.r2-r0/tf-a-stm32mp-2.2.r2/../build/trusted/bl2/stm32_i2c.o
                0x000000002ffdecd8                stm32_i2c_init
 .text.stm32_i2c_mem_write
                0x000000002ffdf138       0x1c /home/ming/tf-a-stm32mp-2.2.r2-r0/tf-a-stm32mp-2.2.r2/../build/trusted/bl2/stm32_i2c.o
                0x000000002ffdf138                stm32_i2c_mem_write
 .text.stm32_i2c_mem_read
                0x000000002ffdf154       0x12 /home/ming/tf-a-stm32mp-2.2.r2-r0/tf-a-stm32mp-2.2.r2/../build/trusted/bl2/stm32_i2c.o
                0x000000002ffdf154                stm32_i2c_mem_read
 *fill*         0x000000002ffdf166        0x2 
 .text.stm32_i2c_is_device_ready
                0x000000002ffdf168      0x15c /home/ming/tf-a-stm32mp-2.2.r2-r0/tf-a-stm32mp-2.2.r2/../build/trusted/bl2/stm32_i2c.o
                0x000000002ffdf168                stm32_i2c_is_device_ready
 .text.stm32_iwdg_refresh
                0x000000002ffdf2c4       0x40 /home/ming/tf-a-stm32mp-2.2.r2-r0/tf-a-stm32mp-2.2.r2/../build/trusted/bl2/stm32_iwdg.o
                0x000000002ffdf2c4                stm32_iwdg_refresh
 .text.stm32_iwdg_init
                0x000000002ffdf304      0x104 /home/ming/tf-a-stm32mp-2.2.r2-r0/tf-a-stm32mp-2.2.r2/../build/trusted/bl2/stm32_iwdg.o
                0x000000002ffdf304                stm32_iwdg_init
 .text.dt_get_pmic_node
                0x000000002ffdf408       0x20 /home/ming/tf-a-stm32mp-2.2.r2-r0/tf-a-stm32mp-2.2.r2/../build/trusted/bl2/stm32mp_pmic.o
 .text.pmic_regulator_enable
                0x000000002ffdf428       0x2e /home/ming/tf-a-stm32mp-2.2.r2-r0/tf-a-stm32mp-2.2.r2/../build/trusted/bl2/stm32mp_pmic.o
 .text.pmic_regulator_disable
                0x000000002ffdf456       0x2e /home/ming/tf-a-stm32mp-2.2.r2-r0/tf-a-stm32mp-2.2.r2/../build/trusted/bl2/stm32mp_pmic.o
 .text.dt_pmic_get_regulator_voltage
                0x000000002ffdf484       0x84 /home/ming/tf-a-stm32mp-2.2.r2-r0/tf-a-stm32mp-2.2.r2/../build/trusted/bl2/stm32mp_pmic.o
 .text.pmic_operate
                0x000000002ffdf508      0x178 /home/ming/tf-a-stm32mp-2.2.r2-r0/tf-a-stm32mp-2.2.r2/../build/trusted/bl2/stm32mp_pmic.o
 .text.dt_pmic_status
                0x000000002ffdf680       0x28 /home/ming/tf-a-stm32mp-2.2.r2-r0/tf-a-stm32mp-2.2.r2/../build/trusted/bl2/stm32mp_pmic.o
                0x000000002ffdf680                dt_pmic_status
 .text.pmic_configure_boot_on_regulators
                0x000000002ffdf6a8        0xa /home/ming/tf-a-stm32mp-2.2.r2-r0/tf-a-stm32mp-2.2.r2/../build/trusted/bl2/stm32mp_pmic.o
                0x000000002ffdf6a8                pmic_configure_boot_on_regulators
 *fill*         0x000000002ffdf6b2        0x2 
 .text.dt_pmic_find_supply
                0x000000002ffdf6b4       0x7c /home/ming/tf-a-stm32mp-2.2.r2-r0/tf-a-stm32mp-2.2.r2/../build/trusted/bl2/stm32mp_pmic.o
                0x000000002ffdf6b4                dt_pmic_find_supply
 .text.initialize_pmic_i2c
                0x000000002ffdf730      0x118 /home/ming/tf-a-stm32mp-2.2.r2-r0/tf-a-stm32mp-2.2.r2/../build/trusted/bl2/stm32mp_pmic.o
                0x000000002ffdf730                initialize_pmic_i2c
 .text.is_pmic_regulator
                0x000000002ffdf848       0x38 /home/ming/tf-a-stm32mp-2.2.r2-r0/tf-a-stm32mp-2.2.r2/../build/trusted/bl2/stm32mp_pmic.o
                0x000000002ffdf848                is_pmic_regulator
 .text.bind_pmic_regulator
                0x000000002ffdf880        0xc /home/ming/tf-a-stm32mp-2.2.r2-r0/tf-a-stm32mp-2.2.r2/../build/trusted/bl2/stm32mp_pmic.o
                0x000000002ffdf880                bind_pmic_regulator
 .text.initialize_pmic
                0x000000002ffdf88c       0x12 /home/ming/tf-a-stm32mp-2.2.r2-r0/tf-a-stm32mp-2.2.r2/../build/trusted/bl2/stm32mp_pmic.o
                0x000000002ffdf88c                initialize_pmic
 .text.configure_pmic
                0x000000002ffdf89e       0x14 /home/ming/tf-a-stm32mp-2.2.r2-r0/tf-a-stm32mp-2.2.r2/../build/trusted/bl2/stm32mp_pmic.o
                0x000000002ffdf89e                configure_pmic
 *fill*         0x000000002ffdf8b2        0x2 
 .text.print_pmic_info_and_debug
                0x000000002ffdf8b4       0x34 /home/ming/tf-a-stm32mp-2.2.r2-r0/tf-a-stm32mp-2.2.r2/../build/trusted/bl2/stm32mp_pmic.o
                0x000000002ffdf8b4                print_pmic_info_and_debug
 .text.pmic_ddr_power_init
                0x000000002ffdf8e8      0x14c /home/ming/tf-a-stm32mp-2.2.r2-r0/tf-a-stm32mp-2.2.r2/../build/trusted/bl2/stm32mp_pmic.o
                0x000000002ffdf8e8                pmic_ddr_power_init
 .text.get_regulator_data
                0x000000002ffdfa34       0x38 /home/ming/tf-a-stm32mp-2.2.r2-r0/tf-a-stm32mp-2.2.r2/../build/trusted/bl2/stpmic1.o
 .text.voltage_to_index
                0x000000002ffdfa6c       0x2a /home/ming/tf-a-stm32mp-2.2.r2-r0/tf-a-stm32mp-2.2.r2/../build/trusted/bl2/stpmic1.o
 *fill*         0x000000002ffdfa96        0x2 
 .text.stpmic1_register_read
                0x000000002ffdfa98       0x28 /home/ming/tf-a-stm32mp-2.2.r2-r0/tf-a-stm32mp-2.2.r2/../build/trusted/bl2/stpmic1.o
                0x000000002ffdfa98                stpmic1_register_read
 .text.stpmic1_is_regulator_enabled
                0x000000002ffdfac0       0x28 /home/ming/tf-a-stm32mp-2.2.r2-r0/tf-a-stm32mp-2.2.r2/../build/trusted/bl2/stpmic1.o
                0x000000002ffdfac0                stpmic1_is_regulator_enabled
 .text.stpmic1_regulator_voltage_get
                0x000000002ffdfae8       0x70 /home/ming/tf-a-stm32mp-2.2.r2-r0/tf-a-stm32mp-2.2.r2/../build/trusted/bl2/stpmic1.o
                0x000000002ffdfae8                stpmic1_regulator_voltage_get
 .text.stpmic1_register_write
                0x000000002ffdfb58       0x58 /home/ming/tf-a-stm32mp-2.2.r2-r0/tf-a-stm32mp-2.2.r2/../build/trusted/bl2/stpmic1.o
                0x000000002ffdfb58                stpmic1_register_write
 .text.stpmic1_register_update
                0x000000002ffdfbb0       0x2c /home/ming/tf-a-stm32mp-2.2.r2-r0/tf-a-stm32mp-2.2.r2/../build/trusted/bl2/stpmic1.o
                0x000000002ffdfbb0                stpmic1_register_update
 .text.stpmic1_regulator_enable
                0x000000002ffdfbdc       0x14 /home/ming/tf-a-stm32mp-2.2.r2-r0/tf-a-stm32mp-2.2.r2/../build/trusted/bl2/stpmic1.o
                0x000000002ffdfbdc                stpmic1_regulator_enable
 .text.stpmic1_regulator_disable
                0x000000002ffdfbf0       0x14 /home/ming/tf-a-stm32mp-2.2.r2-r0/tf-a-stm32mp-2.2.r2/../build/trusted/bl2/stpmic1.o
                0x000000002ffdfbf0                stpmic1_regulator_disable
 .text.stpmic1_regulator_voltage_set
                0x000000002ffdfc04       0x5c /home/ming/tf-a-stm32mp-2.2.r2-r0/tf-a-stm32mp-2.2.r2/../build/trusted/bl2/stpmic1.o
                0x000000002ffdfc04                stpmic1_regulator_voltage_set
 .text.stpmic1_regulator_pull_down_set
                0x000000002ffdfc60       0x24 /home/ming/tf-a-stm32mp-2.2.r2-r0/tf-a-stm32mp-2.2.r2/../build/trusted/bl2/stpmic1.o
                0x000000002ffdfc60                stpmic1_regulator_pull_down_set
 .text.stpmic1_regulator_mask_reset_set
                0x000000002ffdfc84       0x1a /home/ming/tf-a-stm32mp-2.2.r2-r0/tf-a-stm32mp-2.2.r2/../build/trusted/bl2/stpmic1.o
                0x000000002ffdfc84                stpmic1_regulator_mask_reset_set
 *fill*         0x000000002ffdfc9e        0x2 
 .text.stpmic1_bind_i2c
                0x000000002ffdfca0       0x14 /home/ming/tf-a-stm32mp-2.2.r2-r0/tf-a-stm32mp-2.2.r2/../build/trusted/bl2/stpmic1.o
                0x000000002ffdfca0                stpmic1_bind_i2c
 .text.stpmic1_dump_regulators
                0x000000002ffdfcb4        0x2 /home/ming/tf-a-stm32mp-2.2.r2-r0/tf-a-stm32mp-2.2.r2/../build/trusted/bl2/stpmic1.o
                0x000000002ffdfcb4                stpmic1_dump_regulators
 .text.stpmic1_get_version
                0x000000002ffdfcb6       0x1e /home/ming/tf-a-stm32mp-2.2.r2-r0/tf-a-stm32mp-2.2.r2/../build/trusted/bl2/stpmic1.o
                0x000000002ffdfcb6                stpmic1_get_version
 .text.dummy_regulator_enable
                0x000000002ffdfcd4        0x4 /home/ming/tf-a-stm32mp-2.2.r2-r0/tf-a-stm32mp-2.2.r2/../build/trusted/bl2/stm32mp_dummy_regulator.o
 .text.dummy_regulator_disable
                0x000000002ffdfcd8        0x4 /home/ming/tf-a-stm32mp-2.2.r2-r0/tf-a-stm32mp-2.2.r2/../build/trusted/bl2/stm32mp_dummy_regulator.o
 .text.bind_dummy_regulator
                0x000000002ffdfcdc        0xc /home/ming/tf-a-stm32mp-2.2.r2-r0/tf-a-stm32mp-2.2.r2/../build/trusted/bl2/stm32mp_dummy_regulator.o
                0x000000002ffdfcdc                bind_dummy_regulator
 .text.stm32mp_regulator_enable
                0x000000002ffdfce8       0x1c /home/ming/tf-a-stm32mp-2.2.r2-r0/tf-a-stm32mp-2.2.r2/../build/trusted/bl2/stm32mp_regulator.o
                0x000000002ffdfce8                stm32mp_regulator_enable
 .text.stm32mp_regulator_disable
                0x000000002ffdfd04       0x24 /home/ming/tf-a-stm32mp-2.2.r2-r0/tf-a-stm32mp-2.2.r2/../build/trusted/bl2/stm32mp_regulator.o
                0x000000002ffdfd04                stm32mp_regulator_disable
 .text.stm32mp_regulator_register
                0x000000002ffdfd28        0x4 /home/ming/tf-a-stm32mp-2.2.r2-r0/tf-a-stm32mp-2.2.r2/../build/trusted/bl2/stm32mp_regulator.o
                0x000000002ffdfd28                stm32mp_regulator_register
 .text.stm32mp_reset_assert_to
                0x000000002ffdfd2c       0x70 /home/ming/tf-a-stm32mp-2.2.r2-r0/tf-a-stm32mp-2.2.r2/../build/trusted/bl2/stm32mp1_reset.o
                0x000000002ffdfd2c                stm32mp_reset_assert_to
 .text.stm32mp_reset_deassert_to
                0x000000002ffdfd9c       0x74 /home/ming/tf-a-stm32mp-2.2.r2-r0/tf-a-stm32mp-2.2.r2/../build/trusted/bl2/stm32mp1_reset.o
                0x000000002ffdfd9c                stm32mp_reset_deassert_to
 .text.fdt32_to_cpu
                0x000000002ffdfe10        0x4 /home/ming/tf-a-stm32mp-2.2.r2-r0/tf-a-stm32mp-2.2.r2/../build/trusted/bl2/stm32mp_dt.o
 .text.fdt_get_node_parent_address_cells
                0x000000002ffdfe14       0x24 /home/ming/tf-a-stm32mp-2.2.r2-r0/tf-a-stm32mp-2.2.r2/../build/trusted/bl2/stm32mp_dt.o
 .text.dt_get_stdout_node_offset
                0x000000002ffdfe38       0x7c /home/ming/tf-a-stm32mp-2.2.r2-r0/tf-a-stm32mp-2.2.r2/../build/trusted/bl2/stm32mp_dt.o
 .text.dt_get_opp_freqvolt_from_subnode
                0x000000002ffdfeb4       0xd0 /home/ming/tf-a-stm32mp-2.2.r2-r0/tf-a-stm32mp-2.2.r2/../build/trusted/bl2/stm32mp_dt.o
 .text.dt_open_and_check
                0x000000002ffdff84       0x1c /home/ming/tf-a-stm32mp-2.2.r2-r0/tf-a-stm32mp-2.2.r2/../build/trusted/bl2/stm32mp_dt.o
                0x000000002ffdff84                dt_open_and_check
 .text.fdt_get_address
                0x000000002ffdffa0       0x18 /home/ming/tf-a-stm32mp-2.2.r2-r0/tf-a-stm32mp-2.2.r2/../build/trusted/bl2/stm32mp_dt.o
                0x000000002ffdffa0                fdt_get_address
 .text.fdt_check_node
                0x000000002ffdffb8       0x20 /home/ming/tf-a-stm32mp-2.2.r2-r0/tf-a-stm32mp-2.2.r2/../build/trusted/bl2/stm32mp_dt.o
                0x000000002ffdffb8                fdt_check_node
 .text.fdt_get_status
                0x000000002ffdffd8       0x64 /home/ming/tf-a-stm32mp-2.2.r2-r0/tf-a-stm32mp-2.2.r2/../build/trusted/bl2/stm32mp_dt.o
                0x000000002ffdffd8                fdt_get_status
 .text.fdt_read_uint32_default
                0x000000002ffe003c       0x28 /home/ming/tf-a-stm32mp-2.2.r2-r0/tf-a-stm32mp-2.2.r2/../build/trusted/bl2/stm32mp_dt.o
                0x000000002ffe003c                fdt_read_uint32_default
 .text.fdt_read_uint32_array
                0x000000002ffe0064       0x48 /home/ming/tf-a-stm32mp-2.2.r2-r0/tf-a-stm32mp-2.2.r2/../build/trusted/bl2/stm32mp_dt.o
                0x000000002ffe0064                fdt_read_uint32_array
 .text.fdt_get_reg_props_by_name
                0x000000002ffe00ac       0x98 /home/ming/tf-a-stm32mp-2.2.r2-r0/tf-a-stm32mp-2.2.r2/../build/trusted/bl2/stm32mp_dt.o
                0x000000002ffe00ac                fdt_get_reg_props_by_name
 .text.dt_set_stdout_pinctrl
                0x000000002ffe0144       0x18 /home/ming/tf-a-stm32mp-2.2.r2-r0/tf-a-stm32mp-2.2.r2/../build/trusted/bl2/stm32mp_dt.o
                0x000000002ffe0144                dt_set_stdout_pinctrl
 .text.dt_fill_device_info
                0x000000002ffe015c       0x8c /home/ming/tf-a-stm32mp-2.2.r2-r0/tf-a-stm32mp-2.2.r2/../build/trusted/bl2/stm32mp_dt.o
                0x000000002ffe015c                dt_fill_device_info
 .text.dt_get_node
                0x000000002ffe01e8       0x24 /home/ming/tf-a-stm32mp-2.2.r2-r0/tf-a-stm32mp-2.2.r2/../build/trusted/bl2/stm32mp_dt.o
                0x000000002ffe01e8                dt_get_node
 .text.dt_get_stdout_uart_info
                0x000000002ffe020c       0x1e /home/ming/tf-a-stm32mp-2.2.r2-r0/tf-a-stm32mp-2.2.r2/../build/trusted/bl2/stm32mp_dt.o
                0x000000002ffe020c                dt_get_stdout_uart_info
 *fill*         0x000000002ffe022a        0x2 
 .text.dt_get_node_by_compatible
                0x000000002ffe022c       0x28 /home/ming/tf-a-stm32mp-2.2.r2-r0/tf-a-stm32mp-2.2.r2/../build/trusted/bl2/stm32mp_dt.o
                0x000000002ffe022c                dt_get_node_by_compatible
 .text.dt_match_instance_by_compatible
                0x000000002ffe0254       0x6c /home/ming/tf-a-stm32mp-2.2.r2-r0/tf-a-stm32mp-2.2.r2/../build/trusted/bl2/stm32mp_dt.o
                0x000000002ffe0254                dt_match_instance_by_compatible
 .text.dt_get_ddr_size
                0x000000002ffe02c0       0x24 /home/ming/tf-a-stm32mp-2.2.r2-r0/tf-a-stm32mp-2.2.r2/../build/trusted/bl2/stm32mp_dt.o
                0x000000002ffe02c0                dt_get_ddr_size
 .text.dt_get_max_opp_freqvolt
                0x000000002ffe02e4       0x84 /home/ming/tf-a-stm32mp-2.2.r2-r0/tf-a-stm32mp-2.2.r2/../build/trusted/bl2/stm32mp_dt.o
                0x000000002ffe02e4                dt_get_max_opp_freqvolt
 .text.dt_get_pwr_vdd_voltage
                0x000000002ffe0368       0x54 /home/ming/tf-a-stm32mp-2.2.r2-r0/tf-a-stm32mp-2.2.r2/../build/trusted/bl2/stm32mp_dt.o
                0x000000002ffe0368                dt_get_pwr_vdd_voltage
 .text.dt_get_cpu_regulator_name
                0x000000002ffe03bc       0x50 /home/ming/tf-a-stm32mp-2.2.r2-r0/tf-a-stm32mp-2.2.r2/../build/trusted/bl2/stm32mp_dt.o
                0x000000002ffe03bc                dt_get_cpu_regulator_name
 .text.dt_get_board_model
                0x000000002ffe040c       0x2c /home/ming/tf-a-stm32mp-2.2.r2-r0/tf-a-stm32mp-2.2.r2/../build/trusted/bl2/stm32mp_dt.o
                0x000000002ffe040c                dt_get_board_model
 .text.stm32mp_lock_shregs
                0x000000002ffe0438       0x18 /home/ming/tf-a-stm32mp-2.2.r2-r0/tf-a-stm32mp-2.2.r2/../build/trusted/bl2/stm32mp_shres_helpers.o
                0x000000002ffe0438                stm32mp_lock_shregs
 .text.stm32mp_unlock_shregs
                0x000000002ffe0450       0x18 /home/ming/tf-a-stm32mp-2.2.r2-r0/tf-a-stm32mp-2.2.r2/../build/trusted/bl2/stm32mp_shres_helpers.o
                0x000000002ffe0450                stm32mp_unlock_shregs
 .text.stm32mp_mmio_clrbits_32_shregs
                0x000000002ffe0468       0x1a /home/ming/tf-a-stm32mp-2.2.r2-r0/tf-a-stm32mp-2.2.r2/../build/trusted/bl2/stm32mp_shres_helpers.o
                0x000000002ffe0468                stm32mp_mmio_clrbits_32_shregs
 .text.stm32mp_mmio_setbits_32_shregs
                0x000000002ffe0482       0x18 /home/ming/tf-a-stm32mp-2.2.r2-r0/tf-a-stm32mp-2.2.r2/../build/trusted/bl2/stm32mp_shres_helpers.o
                0x000000002ffe0482                stm32mp_mmio_setbits_32_shregs
 .text.stm32_get_zdata_from_context
                0x000000002ffe049a       0x1e /home/ming/tf-a-stm32mp-2.2.r2-r0/tf-a-stm32mp-2.2.r2/../build/trusted/bl2/stm32mp1_context.o
                0x000000002ffe049a                stm32_get_zdata_from_context
 .text.stm32_get_pll1_settings_from_context
                0x000000002ffe04b8       0x20 /home/ming/tf-a-stm32mp-2.2.r2-r0/tf-a-stm32mp-2.2.r2/../build/trusted/bl2/stm32mp1_context.o
                0x000000002ffe04b8                stm32_get_pll1_settings_from_context
 .text.stm32_save_boot_interface
                0x000000002ffe04d8       0x30 /home/ming/tf-a-stm32mp-2.2.r2-r0/tf-a-stm32mp-2.2.r2/../build/trusted/bl2/stm32mp1_context.o
                0x000000002ffe04d8                stm32_save_boot_interface
 .text.stm32_restore_ddr_training_area
                0x000000002ffe0508       0x28 /home/ming/tf-a-stm32mp-2.2.r2-r0/tf-a-stm32mp-2.2.r2/../build/trusted/bl2/stm32mp1_context.o
                0x000000002ffe0508                stm32_restore_ddr_training_area
 .text.stm32mp1_dbgmcu_init
                0x000000002ffe0530       0x2c /home/ming/tf-a-stm32mp-2.2.r2-r0/tf-a-stm32mp-2.2.r2/../build/trusted/bl2/stm32mp1_dbgmcu.o
 .text.stm32mp1_dbgmcu_get_chip_version
                0x000000002ffe055c       0x2c /home/ming/tf-a-stm32mp-2.2.r2-r0/tf-a-stm32mp-2.2.r2/../build/trusted/bl2/stm32mp1_dbgmcu.o
                0x000000002ffe055c                stm32mp1_dbgmcu_get_chip_version
 .text.stm32mp1_dbgmcu_get_chip_dev_id
                0x000000002ffe0588       0x30 /home/ming/tf-a-stm32mp-2.2.r2-r0/tf-a-stm32mp-2.2.r2/../build/trusted/bl2/stm32mp1_dbgmcu.o
                0x000000002ffe0588                stm32mp1_dbgmcu_get_chip_dev_id
 .text.stm32mp1_dbgmcu_freeze_iwdg2
                0x000000002ffe05b8       0x2c /home/ming/tf-a-stm32mp-2.2.r2-r0/tf-a-stm32mp-2.2.r2/../build/trusted/bl2/stm32mp1_dbgmcu.o
                0x000000002ffe05b8                stm32mp1_dbgmcu_freeze_iwdg2
 .text.stm32mp1_arch_security_setup
                0x000000002ffe05e4       0x50 /home/ming/tf-a-stm32mp-2.2.r2-r0/tf-a-stm32mp-2.2.r2/../build/trusted/bl2/stm32mp1_security.o
                0x000000002ffe05e4                stm32mp1_arch_security_setup
 .text.stm32mp1_syscfg_enable_io_compensation
                0x000000002ffe0634       0x68 /home/ming/tf-a-stm32mp-2.2.r2-r0/tf-a-stm32mp-2.2.r2/../build/trusted/bl2/stm32mp1_syscfg.o
                0x000000002ffe0634                stm32mp1_syscfg_enable_io_compensation
 .text.stm32mp1_syscfg_init
                0x000000002ffe069c       0xa0 /home/ming/tf-a-stm32mp-2.2.r2-r0/tf-a-stm32mp-2.2.r2/../build/trusted/bl2/stm32mp1_syscfg.o
                0x000000002ffe069c                stm32mp1_syscfg_init
 .text          0x000000002ffe073c       0x24 /home/ming/tf-a-stm32mp-2.2.r2-r0/tf-a-stm32mp-2.2.r2/../build/trusted/bl2/aeabi_uldivmod.o
                0x000000002ffe073c                __aeabi_uldivmod
 .text.fdt32_to_cpu
                0x000000002ffe0760        0x4 /home/ming/tf-a-stm32mp-2.2.r2-r0/tf-a-stm32mp-2.2.r2/../build/trusted/lib/libfdt.a(fdt.o)
 .text.fdt_check_header
                0x000000002ffe0764       0x58 /home/ming/tf-a-stm32mp-2.2.r2-r0/tf-a-stm32mp-2.2.r2/../build/trusted/lib/libfdt.a(fdt.o)
                0x000000002ffe0764                fdt_check_header
 .text.fdt_offset_ptr
                0x000000002ffe07bc       0x3c /home/ming/tf-a-stm32mp-2.2.r2-r0/tf-a-stm32mp-2.2.r2/../build/trusted/lib/libfdt.a(fdt.o)
                0x000000002ffe07bc                fdt_offset_ptr
 .text.fdt_next_tag
                0x000000002ffe07f8       0xcc /home/ming/tf-a-stm32mp-2.2.r2-r0/tf-a-stm32mp-2.2.r2/../build/trusted/lib/libfdt.a(fdt.o)
                0x000000002ffe07f8                fdt_next_tag
 .text.fdt_check_node_offset_
                0x000000002ffe08c4       0x24 /home/ming/tf-a-stm32mp-2.2.r2-r0/tf-a-stm32mp-2.2.r2/../build/trusted/lib/libfdt.a(fdt.o)
                0x000000002ffe08c4                fdt_check_node_offset_
 .text.fdt_check_prop_offset_
                0x000000002ffe08e8       0x24 /home/ming/tf-a-stm32mp-2.2.r2-r0/tf-a-stm32mp-2.2.r2/../build/trusted/lib/libfdt.a(fdt.o)
                0x000000002ffe08e8                fdt_check_prop_offset_
 .text.fdt_next_node
                0x000000002ffe090c       0x6e /home/ming/tf-a-stm32mp-2.2.r2-r0/tf-a-stm32mp-2.2.r2/../build/trusted/lib/libfdt.a(fdt.o)
                0x000000002ffe090c                fdt_next_node
 .text.fdt_first_subnode
                0x000000002ffe097a       0x28 /home/ming/tf-a-stm32mp-2.2.r2-r0/tf-a-stm32mp-2.2.r2/../build/trusted/lib/libfdt.a(fdt.o)
                0x000000002ffe097a                fdt_first_subnode
 .text.fdt_next_subnode
                0x000000002ffe09a2       0x2e /home/ming/tf-a-stm32mp-2.2.r2-r0/tf-a-stm32mp-2.2.r2/../build/trusted/lib/libfdt.a(fdt.o)
                0x000000002ffe09a2                fdt_next_subnode
 .text.fdt_address_cells
                0x000000002ffe09d0       0x48 /home/ming/tf-a-stm32mp-2.2.r2-r0/tf-a-stm32mp-2.2.r2/../build/trusted/lib/libfdt.a(fdt_addresses.o)
                0x000000002ffe09d0                fdt_address_cells
 .text.fdt_size_cells
                0x000000002ffe0a18       0x48 /home/ming/tf-a-stm32mp-2.2.r2-r0/tf-a-stm32mp-2.2.r2/../build/trusted/lib/libfdt.a(fdt_addresses.o)
                0x000000002ffe0a18                fdt_size_cells
 .text.fdt32_to_cpu
                0x000000002ffe0a60        0x4 /home/ming/tf-a-stm32mp-2.2.r2-r0/tf-a-stm32mp-2.2.r2/../build/trusted/lib/libfdt.a(fdt_ro.o)
 .text.nextprop_
                0x000000002ffe0a64       0x32 /home/ming/tf-a-stm32mp-2.2.r2-r0/tf-a-stm32mp-2.2.r2/../build/trusted/lib/libfdt.a(fdt_ro.o)
 .text.fdt_get_property_by_offset_
                0x000000002ffe0a96       0x36 /home/ming/tf-a-stm32mp-2.2.r2-r0/tf-a-stm32mp-2.2.r2/../build/trusted/lib/libfdt.a(fdt_ro.o)
 .text.fdt_string
                0x000000002ffe0acc       0x10 /home/ming/tf-a-stm32mp-2.2.r2-r0/tf-a-stm32mp-2.2.r2/../build/trusted/lib/libfdt.a(fdt_ro.o)
                0x000000002ffe0acc                fdt_string
 .text.fdt_get_name
                0x000000002ffe0adc       0x60 /home/ming/tf-a-stm32mp-2.2.r2-r0/tf-a-stm32mp-2.2.r2/../build/trusted/lib/libfdt.a(fdt_ro.o)
                0x000000002ffe0adc                fdt_get_name
 .text.fdt_subnode_offset_namelen
                0x000000002ffe0b3c       0x84 /home/ming/tf-a-stm32mp-2.2.r2-r0/tf-a-stm32mp-2.2.r2/../build/trusted/lib/libfdt.a(fdt_ro.o)
                0x000000002ffe0b3c                fdt_subnode_offset_namelen
 .text.fdt_subnode_offset
                0x000000002ffe0bc0       0x1e /home/ming/tf-a-stm32mp-2.2.r2-r0/tf-a-stm32mp-2.2.r2/../build/trusted/lib/libfdt.a(fdt_ro.o)
                0x000000002ffe0bc0                fdt_subnode_offset
 .text.fdt_first_property_offset
                0x000000002ffe0bde       0x18 /home/ming/tf-a-stm32mp-2.2.r2-r0/tf-a-stm32mp-2.2.r2/../build/trusted/lib/libfdt.a(fdt_ro.o)
                0x000000002ffe0bde                fdt_first_property_offset
 .text.fdt_next_property_offset
                0x000000002ffe0bf6       0x18 /home/ming/tf-a-stm32mp-2.2.r2-r0/tf-a-stm32mp-2.2.r2/../build/trusted/lib/libfdt.a(fdt_ro.o)
                0x000000002ffe0bf6                fdt_next_property_offset
 .text.fdt_get_property_namelen_
                0x000000002ffe0c0e       0x78 /home/ming/tf-a-stm32mp-2.2.r2-r0/tf-a-stm32mp-2.2.r2/../build/trusted/lib/libfdt.a(fdt_ro.o)
 .text.fdt_getprop_namelen
                0x000000002ffe0c86       0x40 /home/ming/tf-a-stm32mp-2.2.r2-r0/tf-a-stm32mp-2.2.r2/../build/trusted/lib/libfdt.a(fdt_ro.o)
                0x000000002ffe0c86                fdt_getprop_namelen
 .text.fdt_getprop
                0x000000002ffe0cc6       0x22 /home/ming/tf-a-stm32mp-2.2.r2-r0/tf-a-stm32mp-2.2.r2/../build/trusted/lib/libfdt.a(fdt_ro.o)
                0x000000002ffe0cc6                fdt_getprop
 .text.fdt_get_phandle
                0x000000002ffe0ce8       0x44 /home/ming/tf-a-stm32mp-2.2.r2-r0/tf-a-stm32mp-2.2.r2/../build/trusted/lib/libfdt.a(fdt_ro.o)
                0x000000002ffe0ce8                fdt_get_phandle
 .text.fdt_get_alias_namelen
                0x000000002ffe0d2c       0x2c /home/ming/tf-a-stm32mp-2.2.r2-r0/tf-a-stm32mp-2.2.r2/../build/trusted/lib/libfdt.a(fdt_ro.o)
                0x000000002ffe0d2c                fdt_get_alias_namelen
 .text.fdt_path_offset_namelen
                0x000000002ffe0d58       0x88 /home/ming/tf-a-stm32mp-2.2.r2-r0/tf-a-stm32mp-2.2.r2/../build/trusted/lib/libfdt.a(fdt_ro.o)
                0x000000002ffe0d58                fdt_path_offset_namelen
 .text.fdt_path_offset
                0x000000002ffe0de0       0x1a /home/ming/tf-a-stm32mp-2.2.r2-r0/tf-a-stm32mp-2.2.r2/../build/trusted/lib/libfdt.a(fdt_ro.o)
                0x000000002ffe0de0                fdt_path_offset
 .text.fdt_supernode_atdepth_offset
                0x000000002ffe0dfa       0x72 /home/ming/tf-a-stm32mp-2.2.r2-r0/tf-a-stm32mp-2.2.r2/../build/trusted/lib/libfdt.a(fdt_ro.o)
                0x000000002ffe0dfa                fdt_supernode_atdepth_offset
 .text.fdt_node_depth
                0x000000002ffe0e6c       0x1e /home/ming/tf-a-stm32mp-2.2.r2-r0/tf-a-stm32mp-2.2.r2/../build/trusted/lib/libfdt.a(fdt_ro.o)
                0x000000002ffe0e6c                fdt_node_depth
 .text.fdt_parent_offset
                0x000000002ffe0e8a       0x20 /home/ming/tf-a-stm32mp-2.2.r2-r0/tf-a-stm32mp-2.2.r2/../build/trusted/lib/libfdt.a(fdt_ro.o)
                0x000000002ffe0e8a                fdt_parent_offset
 .text.fdt_node_offset_by_phandle
                0x000000002ffe0eaa       0x42 /home/ming/tf-a-stm32mp-2.2.r2-r0/tf-a-stm32mp-2.2.r2/../build/trusted/lib/libfdt.a(fdt_ro.o)
                0x000000002ffe0eaa                fdt_node_offset_by_phandle
 .text.fdt_stringlist_contains
                0x000000002ffe0eec       0x46 /home/ming/tf-a-stm32mp-2.2.r2-r0/tf-a-stm32mp-2.2.r2/../build/trusted/lib/libfdt.a(fdt_ro.o)
                0x000000002ffe0eec                fdt_stringlist_contains
 .text.fdt_stringlist_search
                0x000000002ffe0f32       0x66 /home/ming/tf-a-stm32mp-2.2.r2-r0/tf-a-stm32mp-2.2.r2/../build/trusted/lib/libfdt.a(fdt_ro.o)
                0x000000002ffe0f32                fdt_stringlist_search
 .text.fdt_node_check_compatible
                0x000000002ffe0f98       0x28 /home/ming/tf-a-stm32mp-2.2.r2-r0/tf-a-stm32mp-2.2.r2/../build/trusted/lib/libfdt.a(fdt_ro.o)
                0x000000002ffe0f98                fdt_node_check_compatible
 .text.fdt_node_offset_by_compatible
                0x000000002ffe0fc0       0x40 /home/ming/tf-a-stm32mp-2.2.r2-r0/tf-a-stm32mp-2.2.r2/../build/trusted/lib/libfdt.a(fdt_ro.o)
                0x000000002ffe0fc0                fdt_node_offset_by_compatible
 .text.__assert
                0x000000002ffe1000       0x18 /home/ming/tf-a-stm32mp-2.2.r2-r0/tf-a-stm32mp-2.2.r2/../build/trusted/lib/libc.a(assert.o)
                0x000000002ffe1000                __assert
 .text.memchr   0x000000002ffe1018       0x1c /home/ming/tf-a-stm32mp-2.2.r2-r0/tf-a-stm32mp-2.2.r2/../build/trusted/lib/libc.a(memchr.o)
                0x000000002ffe1018                memchr
 .text.memcmp   0x000000002ffe1034       0x1c /home/ming/tf-a-stm32mp-2.2.r2-r0/tf-a-stm32mp-2.2.r2/../build/trusted/lib/libc.a(memcmp.o)
                0x000000002ffe1034                memcmp
 .text.memcpy   0x000000002ffe1050       0x16 /home/ming/tf-a-stm32mp-2.2.r2-r0/tf-a-stm32mp-2.2.r2/../build/trusted/lib/libc.a(memcpy.o)
                0x000000002ffe1050                memcpy
 .text.memmove  0x000000002ffe1066       0x2c /home/ming/tf-a-stm32mp-2.2.r2-r0/tf-a-stm32mp-2.2.r2/../build/trusted/lib/libc.a(memmove.o)
                0x000000002ffe1066                memmove
 .text.memset   0x000000002ffe1092       0x10 /home/ming/tf-a-stm32mp-2.2.r2-r0/tf-a-stm32mp-2.2.r2/../build/trusted/lib/libc.a(memset.o)
                0x000000002ffe1092                memset
 .text.unsigned_num_print
                0x000000002ffe10a2       0x6c /home/ming/tf-a-stm32mp-2.2.r2-r0/tf-a-stm32mp-2.2.r2/../build/trusted/lib/libc.a(printf.o)
 *fill*         0x000000002ffe110e        0x2 
 .text.vprintf  0x000000002ffe1110      0x1b0 /home/ming/tf-a-stm32mp-2.2.r2-r0/tf-a-stm32mp-2.2.r2/../build/trusted/lib/libc.a(printf.o)
                0x000000002ffe1110                vprintf
 .text.printf   0x000000002ffe12c0       0x1a /home/ming/tf-a-stm32mp-2.2.r2-r0/tf-a-stm32mp-2.2.r2/../build/trusted/lib/libc.a(printf.o)
                0x000000002ffe12c0                printf
 .text.putchar  0x000000002ffe12da       0x16 /home/ming/tf-a-stm32mp-2.2.r2-r0/tf-a-stm32mp-2.2.r2/../build/trusted/lib/libc.a(putchar.o)
                0x000000002ffe12da                putchar
 .text.unsigned_dec_print
                0x000000002ffe12f0       0x48 /home/ming/tf-a-stm32mp-2.2.r2-r0/tf-a-stm32mp-2.2.r2/../build/trusted/lib/libc.a(snprintf.o)
 .text.snprintf
                0x000000002ffe1338       0xe0 /home/ming/tf-a-stm32mp-2.2.r2-r0/tf-a-stm32mp-2.2.r2/../build/trusted/lib/libc.a(snprintf.o)
                0x000000002ffe1338                snprintf
 .text.strchr   0x000000002ffe1418       0x16 /home/ming/tf-a-stm32mp-2.2.r2-r0/tf-a-stm32mp-2.2.r2/../build/trusted/lib/libc.a(strchr.o)
                0x000000002ffe1418                strchr
 .text.strcmp   0x000000002ffe142e       0x18 /home/ming/tf-a-stm32mp-2.2.r2-r0/tf-a-stm32mp-2.2.r2/../build/trusted/lib/libc.a(strcmp.o)
                0x000000002ffe142e                strcmp
 .text.strlen   0x000000002ffe1446       0x10 /home/ming/tf-a-stm32mp-2.2.r2-r0/tf-a-stm32mp-2.2.r2/../build/trusted/lib/libc.a(strlen.o)
                0x000000002ffe1446                strlen
 .text.strncmp  0x000000002ffe1456       0x28 /home/ming/tf-a-stm32mp-2.2.r2-r0/tf-a-stm32mp-2.2.r2/../build/trusted/lib/libc.a(strncmp.o)
                0x000000002ffe1456                strncmp
 .text.strnlen  0x000000002ffe147e       0x14 /home/ming/tf-a-stm32mp-2.2.r2-r0/tf-a-stm32mp-2.2.r2/../build/trusted/lib/libc.a(strnlen.o)
                0x000000002ffe147e                strnlen
 .text.strrchr  0x000000002ffe1492       0x1a /home/ming/tf-a-stm32mp-2.2.r2-r0/tf-a-stm32mp-2.2.r2/../build/trusted/lib/libc.a(strrchr.o)
                0x000000002ffe1492                strrchr
 *(.rodata*)
 .rodata.build_message
                0x000000002ffe14ac       0x1e /home/ming/tf-a-stm32mp-2.2.r2-r0/tf-a-stm32mp-2.2.r2/../build/trusted/bl2/build_message.o
                0x000000002ffe14ac                build_message
 .rodata.version_string
                0x000000002ffe14ca       0x12 /home/ming/tf-a-stm32mp-2.2.r2-r0/tf-a-stm32mp-2.2.r2/../build/trusted/bl2/build_message.o
                0x000000002ffe14ca                version_string
 .rodata.block_dev_connector
                0x000000002ffe14dc        0x4 /home/ming/tf-a-stm32mp-2.2.r2-r0/tf-a-stm32mp-2.2.r2/../build/trusted/bl2/io_block.o
 .rodata.block_dev_funcs
                0x000000002ffe14e0       0x24 /home/ming/tf-a-stm32mp-2.2.r2-r0/tf-a-stm32mp-2.2.r2/../build/trusted/bl2/io_block.o
 .rodata.block_write.str1.1
                0x000000002ffe1504       0x16 /home/ming/tf-a-stm32mp-2.2.r2-r0/tf-a-stm32mp-2.2.r2/../build/trusted/bl2/io_block.o
 .rodata.dummy_block_open.str1.1
                0x000000002ffe151a       0x31 /home/ming/tf-a-stm32mp-2.2.r2-r0/tf-a-stm32mp-2.2.r2/../build/trusted/bl2/io_dummy.o
 *fill*         0x000000002ffe154b        0x1 
 .rodata.dummy_dev_connector
                0x000000002ffe154c        0x4 /home/ming/tf-a-stm32mp-2.2.r2-r0/tf-a-stm32mp-2.2.r2/../build/trusted/bl2/io_dummy.o
 .rodata.dummy_dev_funcs
                0x000000002ffe1550       0x24 /home/ming/tf-a-stm32mp-2.2.r2-r0/tf-a-stm32mp-2.2.r2/../build/trusted/bl2/io_dummy.o
 .rodata.dummy_dev_info
                0x000000002ffe1574        0x8 /home/ming/tf-a-stm32mp-2.2.r2-r0/tf-a-stm32mp-2.2.r2/../build/trusted/bl2/io_dummy.o
 .rodata.dummy_dev_open.str1.1
                0x000000002ffe157c       0x16 /home/ming/tf-a-stm32mp-2.2.r2-r0/tf-a-stm32mp-2.2.r2/../build/trusted/bl2/io_dummy.o
 *fill*         0x000000002ffe1592        0x2 
 .rodata.mtd_dev_connector
                0x000000002ffe1594        0x4 /home/ming/tf-a-stm32mp-2.2.r2-r0/tf-a-stm32mp-2.2.r2/../build/trusted/bl2/io_mtd.o
 .rodata.mtd_dev_funcs
                0x000000002ffe1598       0x24 /home/ming/tf-a-stm32mp-2.2.r2-r0/tf-a-stm32mp-2.2.r2/../build/trusted/bl2/io_mtd.o
 .rodata.mtd_read.str1.1
                0x000000002ffe15bc       0x14 /home/ming/tf-a-stm32mp-2.2.r2-r0/tf-a-stm32mp-2.2.r2/../build/trusted/bl2/io_mtd.o
 .rodata.free_entity.str1.1
                0x000000002ffe15d0       0x18 /home/ming/tf-a-stm32mp-2.2.r2-r0/tf-a-stm32mp-2.2.r2/../build/trusted/bl2/io_storage.o
 .rodata.__func__.7043
                0x000000002ffe15e8        0xf /home/ming/tf-a-stm32mp-2.2.r2-r0/tf-a-stm32mp-2.2.r2/../build/trusted/bl2/stm32_hash.o
 .rodata.__func__.7051
                0x000000002ffe15f7       0x16 /home/ming/tf-a-stm32mp-2.2.r2-r0/tf-a-stm32mp-2.2.r2/../build/trusted/bl2/stm32_hash.o
 .rodata.hash_write_data.str1.1
                0x000000002ffe160d       0x13 /home/ming/tf-a-stm32mp-2.2.r2-r0/tf-a-stm32mp-2.2.r2/../build/trusted/bl2/stm32_hash.o
 .rodata.stm32_hash_register.str1.1
                0x000000002ffe1620       0x12 /home/ming/tf-a-stm32mp-2.2.r2-r0/tf-a-stm32mp-2.2.r2/../build/trusted/bl2/stm32_hash.o
 .rodata.stm32_hash_update.str1.1
                0x000000002ffe1632       0x1f /home/ming/tf-a-stm32mp-2.2.r2-r0/tf-a-stm32mp-2.2.r2/../build/trusted/bl2/stm32_hash.o
 .rodata.__func__.7212
                0x000000002ffe1651       0x1a /home/ming/tf-a-stm32mp-2.2.r2-r0/tf-a-stm32mp-2.2.r2/../build/trusted/bl2/io_stm32image.o
 .rodata.__func__.7226
                0x000000002ffe166b       0x1a /home/ming/tf-a-stm32mp-2.2.r2-r0/tf-a-stm32mp-2.2.r2/../build/trusted/bl2/io_stm32image.o
 *fill*         0x000000002ffe1685        0x3 
 .rodata.stm32image_dev_connector
                0x000000002ffe1688        0x4 /home/ming/tf-a-stm32mp-2.2.r2-r0/tf-a-stm32mp-2.2.r2/../build/trusted/bl2/io_stm32image.o
 .rodata.stm32image_dev_funcs
                0x000000002ffe168c       0x24 /home/ming/tf-a-stm32mp-2.2.r2-r0/tf-a-stm32mp-2.2.r2/../build/trusted/bl2/io_stm32image.o
 .rodata.stm32image_dev_init.str1.1
                0x000000002ffe16b0       0x44 /home/ming/tf-a-stm32mp-2.2.r2-r0/tf-a-stm32mp-2.2.r2/../build/trusted/bl2/io_stm32image.o
 .rodata.stm32image_partition_open.str1.1
                0x000000002ffe16f4       0x1d /home/ming/tf-a-stm32mp-2.2.r2-r0/tf-a-stm32mp-2.2.r2/../build/trusted/bl2/io_stm32image.o
 .rodata.stm32image_partition_read.str1.1
                0x000000002ffe1711       0x6c /home/ming/tf-a-stm32mp-2.2.r2-r0/tf-a-stm32mp-2.2.r2/../build/trusted/bl2/io_stm32image.o
 .rodata.stm32image_partition_size.str1.1
                0x000000002ffe177d       0x19 /home/ming/tf-a-stm32mp-2.2.r2-r0/tf-a-stm32mp-2.2.r2/../build/trusted/bl2/io_stm32image.o
 *fill*         0x000000002ffe1796        0x2 
 .rodata.bl2_block_spec
                0x000000002ffe1798        0x8 /home/ming/tf-a-stm32mp-2.2.r2-r0/tf-a-stm32mp-2.2.r2/../build/trusted/bl2/bl2_io_storage.o
 .rodata.bl32_block_spec
                0x000000002ffe17a0        0x8 /home/ming/tf-a-stm32mp-2.2.r2-r0/tf-a-stm32mp-2.2.r2/../build/trusted/bl2/bl2_io_storage.o
 .rodata.bl33_partition_spec
                0x000000002ffe17a8       0x34 /home/ming/tf-a-stm32mp-2.2.r2-r0/tf-a-stm32mp-2.2.r2/../build/trusted/bl2/bl2_io_storage.o
 .rodata.boot_mmc.str1.1
                0x000000002ffe17dc       0x79 /home/ming/tf-a-stm32mp-2.2.r2-r0/tf-a-stm32mp-2.2.r2/../build/trusted/bl2/bl2_io_storage.o
 *fill*         0x000000002ffe1855        0x3 
 .rodata.mmc_block_dev_spec
                0x000000002ffe1858       0x14 /home/ming/tf-a-stm32mp-2.2.r2-r0/tf-a-stm32mp-2.2.r2/../build/trusted/bl2/bl2_io_storage.o
 .rodata.policies
                0x000000002ffe186c      0x168 /home/ming/tf-a-stm32mp-2.2.r2-r0/tf-a-stm32mp-2.2.r2/../build/trusted/bl2/bl2_io_storage.o
 .rodata.stm32mp_io_setup.str1.1
                0x000000002ffe19d4       0xd4 /home/ming/tf-a-stm32mp-2.2.r2-r0/tf-a-stm32mp-2.2.r2/../build/trusted/bl2/bl2_io_storage.o
 .rodata.BL_CODE_BASE
                0x000000002ffe1aa8        0x4 /home/ming/tf-a-stm32mp-2.2.r2-r0/tf-a-stm32mp-2.2.r2/../build/trusted/bl2/bl2_plat_setup.o
 .rodata.bl2_el3_plat_arch_setup.str1.1
                0x000000002ffe1aac      0x2f5 /home/ming/tf-a-stm32mp-2.2.r2-r0/tf-a-stm32mp-2.2.r2/../build/trusted/bl2/bl2_plat_setup.o
 .rodata.bl2_platform_setup.str1.1
                0x000000002ffe1da1       0x57 /home/ming/tf-a-stm32mp-2.2.r2-r0/tf-a-stm32mp-2.2.r2/../build/trusted/bl2/bl2_plat_setup.o
 .rodata.debug_msg
                0x000000002ffe1df8      0x272 /home/ming/tf-a-stm32mp-2.2.r2-r0/tf-a-stm32mp-2.2.r2/../build/trusted/bl2/bl2_plat_setup.o
 .rodata.auth_mod_get_parent_id.str1.1
                0x000000002ffe206a       0x18 /home/ming/tf-a-stm32mp-2.2.r2-r0/tf-a-stm32mp-2.2.r2/../build/trusted/bl2/auth_mod.o
 .rodata.auth_mod_verify_img.str1.1
                0x000000002ffe2082       0x42 /home/ming/tf-a-stm32mp-2.2.r2-r0/tf-a-stm32mp-2.2.r2/../build/trusted/bl2/auth_mod.o
 .rodata.crypto_mod_init.str1.1
                0x000000002ffe20c4       0x36 /home/ming/tf-a-stm32mp-2.2.r2-r0/tf-a-stm32mp-2.2.r2/../build/trusted/bl2/crypto_mod.o
 .rodata.img_parser_init.str1.1
                0x000000002ffe20fa       0x1e /home/ming/tf-a-stm32mp-2.2.r2-r0/tf-a-stm32mp-2.2.r2/../build/trusted/bl2/img_parser_mod.o
 .rodata.__compound_literal.0
                0x000000002ffe2118       0x50 /home/ming/tf-a-stm32mp-2.2.r2-r0/tf-a-stm32mp-2.2.r2/../build/trusted/bl2/stm32mp_cot.o
 .rodata.__compound_literal.1
                0x000000002ffe2168       0x50 /home/ming/tf-a-stm32mp-2.2.r2-r0/tf-a-stm32mp-2.2.r2/../build/trusted/bl2/stm32mp_cot.o
 .rodata.bl32_image
                0x000000002ffe21b8       0x14 /home/ming/tf-a-stm32mp-2.2.r2-r0/tf-a-stm32mp-2.2.r2/../build/trusted/bl2/stm32mp_cot.o
 .rodata.bl33_image
                0x000000002ffe21cc       0x14 /home/ming/tf-a-stm32mp-2.2.r2-r0/tf-a-stm32mp-2.2.r2/../build/trusted/bl2/stm32mp_cot.o
 .rodata.cot_desc
                0x000000002ffe21e0       0x18 /home/ming/tf-a-stm32mp-2.2.r2-r0/tf-a-stm32mp-2.2.r2/../build/trusted/bl2/stm32mp_cot.o
 .rodata.cot_desc_ptr
                0x000000002ffe21f8        0x4 /home/ming/tf-a-stm32mp-2.2.r2-r0/tf-a-stm32mp-2.2.r2/../build/trusted/bl2/stm32mp_cot.o
                0x000000002ffe21f8                cot_desc_ptr
 .rodata.crypto_lib_desc
                0x000000002ffe21fc       0x10 /home/ming/tf-a-stm32mp-2.2.r2-r0/tf-a-stm32mp-2.2.r2/../build/trusted/bl2/stm32mp_crypto_lib.o
                0x000000002ffe21fc                crypto_lib_desc
 .rodata.crypto_verify_signature.str1.1
                0x000000002ffe220c       0x8f /home/ming/tf-a-stm32mp-2.2.r2-r0/tf-a-stm32mp-2.2.r2/../build/trusted/bl2/stm32mp_crypto_lib.o
 .rodata.str1.1
                0x000000002ffe229b       0x11 /home/ming/tf-a-stm32mp-2.2.r2-r0/tf-a-stm32mp-2.2.r2/../build/trusted/bl2/stm32mp_crypto_lib.o
 .rodata.str1.1
                0x000000002ffe22ac       0x15 /home/ming/tf-a-stm32mp-2.2.r2-r0/tf-a-stm32mp-2.2.r2/../build/trusted/bl2/stm32mp_img_parser_lib.o
 .rodata.plat_get_nv_ctr.str1.1
                0x000000002ffe22c1        0xe /home/ming/tf-a-stm32mp-2.2.r2-r0/tf-a-stm32mp-2.2.r2/../build/trusted/bl2/stm32mp_trusted_boot.o
 .rodata.plat_get_rotpk_info.str1.1
                0x000000002ffe22c1        0x8 /home/ming/tf-a-stm32mp-2.2.r2-r0/tf-a-stm32mp-2.2.r2/../build/trusted/bl2/stm32mp_trusted_boot.o
 .rodata.mmc_device_state.str1.1
                0x000000002ffe22c9       0x20 /home/ming/tf-a-stm32mp-2.2.r2-r0/tf-a-stm32mp-2.2.r2/../build/trusted/bl2/mmc.o
 .rodata.mmc_init.str1.1
                0x000000002ffe22e9       0x95 /home/ming/tf-a-stm32mp-2.2.r2-r0/tf-a-stm32mp-2.2.r2/../build/trusted/bl2/mmc.o
 .rodata.mmc_read_blocks.str1.1
                0x000000002ffe237e       0x12 /home/ming/tf-a-stm32mp-2.2.r2-r0/tf-a-stm32mp-2.2.r2/../build/trusted/bl2/mmc.o
 .rodata.sd_tran_speed_base
                0x000000002ffe2390       0x10 /home/ming/tf-a-stm32mp-2.2.r2-r0/tf-a-stm32mp-2.2.r2/../build/trusted/bl2/mmc.o
 .rodata.tran_speed_base
                0x000000002ffe23a0       0x10 /home/ming/tf-a-stm32mp-2.2.r2-r0/tf-a-stm32mp-2.2.r2/../build/trusted/bl2/mmc.o
 .rodata.parse_gpt_entry.str1.1
                0x000000002ffe23b0       0x18 /home/ming/tf-a-stm32mp-2.2.r2-r0/tf-a-stm32mp-2.2.r2/../build/trusted/bl2/gpt.o
 .rodata.load_partition_table.str1.1
                0x000000002ffe23c8       0xad /home/ming/tf-a-stm32mp-2.2.r2-r0/tf-a-stm32mp-2.2.r2/../build/trusted/bl2/partition.o
 .rodata.__func__.6915
                0x000000002ffe2475        0xf /home/ming/tf-a-stm32mp-2.2.r2-r0/tf-a-stm32mp-2.2.r2/../build/trusted/bl2/io_mmc.o
 .rodata.mmc_block_read.str1.1
                0x000000002ffe2484       0x29 /home/ming/tf-a-stm32mp-2.2.r2-r0/tf-a-stm32mp-2.2.r2/../build/trusted/bl2/io_mmc.o
 *fill*         0x000000002ffe24ad        0x3 
 .rodata.mmc_dev_connector
                0x000000002ffe24b0        0x4 /home/ming/tf-a-stm32mp-2.2.r2-r0/tf-a-stm32mp-2.2.r2/../build/trusted/bl2/io_mmc.o
 .rodata.mmc_dev_funcs
                0x000000002ffe24b4       0x24 /home/ming/tf-a-stm32mp-2.2.r2-r0/tf-a-stm32mp-2.2.r2/../build/trusted/bl2/io_mmc.o
 .rodata.mmc_dev_info
                0x000000002ffe24d8        0x8 /home/ming/tf-a-stm32mp-2.2.r2-r0/tf-a-stm32mp-2.2.r2/../build/trusted/bl2/io_mmc.o
 .rodata.mmc_dev_open.str1.1
                0x000000002ffe24e0       0x17 /home/ming/tf-a-stm32mp-2.2.r2-r0/tf-a-stm32mp-2.2.r2/../build/trusted/bl2/io_mmc.o
 .rodata.__func__.7279
                0x000000002ffe24f7       0x1a /home/ming/tf-a-stm32mp-2.2.r2-r0/tf-a-stm32mp-2.2.r2/../build/trusted/bl2/stm32_sdmmc2.o
 .rodata.__func__.7340
                0x000000002ffe2511       0x12 /home/ming/tf-a-stm32mp-2.2.r2-r0/tf-a-stm32mp-2.2.r2/../build/trusted/bl2/stm32_sdmmc2.o
 .rodata.__func__.7369
                0x000000002ffe2523       0x16 /home/ming/tf-a-stm32mp-2.2.r2-r0/tf-a-stm32mp-2.2.r2/../build/trusted/bl2/stm32_sdmmc2.o
 .rodata.dump_registers.str1.1
                0x000000002ffe2539      0x168 /home/ming/tf-a-stm32mp-2.2.r2-r0/tf-a-stm32mp-2.2.r2/../build/trusted/bl2/stm32_sdmmc2.o
 .rodata.stm32_sdmmc2_mmc_init.str1.1
                0x000000002ffe26a1       0x4e /home/ming/tf-a-stm32mp-2.2.r2-r0/tf-a-stm32mp-2.2.r2/../build/trusted/bl2/stm32_sdmmc2.o
                                         0x66 (size before relaxing)
 *fill*         0x000000002ffe26ef        0x1 
 .rodata.stm32_sdmmc2_ops
                0x000000002ffe26f0       0x18 /home/ming/tf-a-stm32mp-2.2.r2-r0/tf-a-stm32mp-2.2.r2/../build/trusted/bl2/stm32_sdmmc2.o
 .rodata.stm32_sdmmc2_prepare.str1.1
                0x000000002ffe2708        0xf /home/ming/tf-a-stm32mp-2.2.r2-r0/tf-a-stm32mp-2.2.r2/../build/trusted/bl2/stm32_sdmmc2.o
 .rodata.stm32_sdmmc2_read.str1.1
                0x000000002ffe2717       0x59 /home/ming/tf-a-stm32mp-2.2.r2-r0/tf-a-stm32mp-2.2.r2/../build/trusted/bl2/stm32_sdmmc2.o
 .rodata.stm32_sdmmc2_send_cmd.str1.1
                0x000000002ffe2770       0xda /home/ming/tf-a-stm32mp-2.2.r2-r0/tf-a-stm32mp-2.2.r2/../build/trusted/bl2/stm32_sdmmc2.o
 .rodata.nand_mtd_block_is_bad.str1.1
                0x000000002ffe284a       0x12 /home/ming/tf-a-stm32mp-2.2.r2-r0/tf-a-stm32mp-2.2.r2/../build/trusted/bl2/raw_nand.o
 .rodata.nand_raw_init.str1.1
                0x000000002ffe285c       0x4a /home/ming/tf-a-stm32mp-2.2.r2-r0/tf-a-stm32mp-2.2.r2/../build/trusted/bl2/raw_nand.o
 .rodata.nand_read_param_page.str1.1
                0x000000002ffe28a6       0x32 /home/ming/tf-a-stm32mp-2.2.r2-r0/tf-a-stm32mp-2.2.r2/../build/trusted/bl2/raw_nand.o
 .rodata.__func__.6710
                0x000000002ffe28d8       0x17 /home/ming/tf-a-stm32mp-2.2.r2-r0/tf-a-stm32mp-2.2.r2/../build/trusted/bl2/stm32_fmc2_nand.o
 *fill*         0x000000002ffe28ef        0x1 
 .rodata.ctrl_ops
                0x000000002ffe28f0        0x8 /home/ming/tf-a-stm32mp-2.2.r2-r0/tf-a-stm32mp-2.2.r2/../build/trusted/bl2/stm32_fmc2_nand.o
 .rodata.stm32_fmc2_init.str1.1
                0x000000002ffe28f8       0x75 /home/ming/tf-a-stm32mp-2.2.r2-r0/tf-a-stm32mp-2.2.r2/../build/trusted/bl2/stm32_fmc2_nand.o
                                         0x79 (size before relaxing)
 .rodata.stm32_fmc2_read_page.str1.1
                0x000000002ffe296d       0x3e /home/ming/tf-a-stm32mp-2.2.r2-r0/tf-a-stm32mp-2.2.r2/../build/trusted/bl2/stm32_fmc2_nand.o
 .rodata.spi_nand_mtd_block_is_bad.str1.1
                0x000000002ffe29ab       0x12 /home/ming/tf-a-stm32mp-2.2.r2-r0/tf-a-stm32mp-2.2.r2/../build/trusted/bl2/spi_nand.o
 .rodata.spi_nor_init.str1.1
                0x000000002ffe29bd       0x39 /home/ming/tf-a-stm32mp-2.2.r2-r0/tf-a-stm32mp-2.2.r2/../build/trusted/bl2/spi_nor.o
 .rodata.spi_mem_exec_op.str1.1
                0x000000002ffe29f6       0x2d /home/ming/tf-a-stm32mp-2.2.r2-r0/tf-a-stm32mp-2.2.r2/../build/trusted/bl2/spi_mem.o
 .rodata.spi_mem_init_slave.str1.1
                0x000000002ffe2a23      0x100 /home/ming/tf-a-stm32mp-2.2.r2-r0/tf-a-stm32mp-2.2.r2/../build/trusted/bl2/spi_mem.o
                                        0x104 (size before relaxing)
 .rodata.__func__.6582
                0x000000002ffe2b23       0x1d /home/ming/tf-a-stm32mp-2.2.r2-r0/tf-a-stm32mp-2.2.r2/../build/trusted/bl2/stm32_qspi.o
 .rodata.__func__.6594
                0x000000002ffe2b40       0x14 /home/ming/tf-a-stm32mp-2.2.r2-r0/tf-a-stm32mp-2.2.r2/../build/trusted/bl2/stm32_qspi.o
 .rodata.__func__.6612
                0x000000002ffe2b54       0x10 /home/ming/tf-a-stm32mp-2.2.r2-r0/tf-a-stm32mp-2.2.r2/../build/trusted/bl2/stm32_qspi.o
 .rodata.__func__.6637
                0x000000002ffe2b64       0x13 /home/ming/tf-a-stm32mp-2.2.r2-r0/tf-a-stm32mp-2.2.r2/../build/trusted/bl2/stm32_qspi.o
 *fill*         0x000000002ffe2b77        0x1 
 .rodata.stm32_qspi_bus_ops
                0x000000002ffe2b78       0x14 /home/ming/tf-a-stm32mp-2.2.r2-r0/tf-a-stm32mp-2.2.r2/../build/trusted/bl2/stm32_qspi.o
 .rodata.stm32_qspi_exec_op.str1.1
                0x000000002ffe2b8c       0x4e /home/ming/tf-a-stm32mp-2.2.r2-r0/tf-a-stm32mp-2.2.r2/../build/trusted/bl2/stm32_qspi.o
 .rodata.stm32_qspi_init.str1.1
                0x000000002ffe2bda       0x2f /home/ming/tf-a-stm32mp-2.2.r2-r0/tf-a-stm32mp-2.2.r2/../build/trusted/bl2/stm32_qspi.o
                                         0x34 (size before relaxing)
 .rodata.stm32_qspi_wait_for_not_busy.str1.1
                0x000000002ffe2c09       0x13 /home/ming/tf-a-stm32mp-2.2.r2-r0/tf-a-stm32mp-2.2.r2/../build/trusted/bl2/stm32_qspi.o
 .rodata.get_data_from_otp.str1.1
                0x000000002ffe2c09       0x74 /home/ming/tf-a-stm32mp-2.2.r2-r0/tf-a-stm32mp-2.2.r2/../build/trusted/bl2/stm32mp1_boot_device.o
 *fill*         0x000000002ffe2c7d        0x3 
 .rodata.ddr_map
                0x000000002ffe2c80       0x48 /home/ming/tf-a-stm32mp-2.2.r2-r0/tf-a-stm32mp-2.2.r2/../build/trusted/bl2/stm32mp1_ddr.o
 .rodata.ddr_perf
                0x000000002ffe2cc8       0x88 /home/ming/tf-a-stm32mp-2.2.r2-r0/tf-a-stm32mp-2.2.r2/../build/trusted/bl2/stm32mp1_ddr.o
 .rodata.ddr_reg
                0x000000002ffe2d50       0xc8 /home/ming/tf-a-stm32mp-2.2.r2-r0/tf-a-stm32mp-2.2.r2/../build/trusted/bl2/stm32mp1_ddr.o
 .rodata.ddr_registers
                0x000000002ffe2e18       0x70 /home/ming/tf-a-stm32mp-2.2.r2-r0/tf-a-stm32mp-2.2.r2/../build/trusted/bl2/stm32mp1_ddr.o
 .rodata.ddr_timing
                0x000000002ffe2e88       0x60 /home/ming/tf-a-stm32mp-2.2.r2-r0/tf-a-stm32mp-2.2.r2/../build/trusted/bl2/stm32mp1_ddr.o
 .rodata.ddrphy_cal
                0x000000002ffe2ee8       0x60 /home/ming/tf-a-stm32mp-2.2.r2-r0/tf-a-stm32mp-2.2.r2/../build/trusted/bl2/stm32mp1_ddr.o
 .rodata.ddrphy_reg
                0x000000002ffe2f48       0x58 /home/ming/tf-a-stm32mp-2.2.r2-r0/tf-a-stm32mp-2.2.r2/../build/trusted/bl2/stm32mp1_ddr.o
 .rodata.ddrphy_timing
                0x000000002ffe2fa0       0x50 /home/ming/tf-a-stm32mp-2.2.r2-r0/tf-a-stm32mp-2.2.r2/../build/trusted/bl2/stm32mp1_ddr.o
 .rodata.set_reg.str1.1
                0x000000002ffe2ff0       0x21 /home/ming/tf-a-stm32mp-2.2.r2-r0/tf-a-stm32mp-2.2.r2/../build/trusted/bl2/stm32mp1_ddr.o
 .rodata.stm32mp1_ddr_init.str1.1
                0x000000002ffe3011       0x19 /home/ming/tf-a-stm32mp-2.2.r2-r0/tf-a-stm32mp-2.2.r2/../build/trusted/bl2/stm32mp1_ddr.o
 .rodata.str1.1
                0x000000002ffe302a      0x307 /home/ming/tf-a-stm32mp-2.2.r2-r0/tf-a-stm32mp-2.2.r2/../build/trusted/bl2/stm32mp1_ddr.o
                                        0x320 (size before relaxing)
 .rodata.__func__.6760
                0x000000002ffe3331       0x13 /home/ming/tf-a-stm32mp-2.2.r2-r0/tf-a-stm32mp-2.2.r2/../build/trusted/bl2/stm32mp1_ram.o
 .rodata.stm32mp1_ddr_clk_enable.str1.1
                0x000000002ffe3344       0x2f /home/ming/tf-a-stm32mp-2.2.r2-r0/tf-a-stm32mp-2.2.r2/../build/trusted/bl2/stm32mp1_ram.o
 .rodata.stm32mp1_ddr_setup.str1.1
                0x000000002ffe3373      0x189 /home/ming/tf-a-stm32mp-2.2.r2-r0/tf-a-stm32mp-2.2.r2/../build/trusted/bl2/stm32mp1_ram.o
 .rodata.flush_bl_params_desc_args.str1.1
                0x000000002ffe34fc       0x19 /home/ming/tf-a-stm32mp-2.2.r2-r0/tf-a-stm32mp-2.2.r2/../build/trusted/bl2/desc_image_load.o
 .rodata.bl2_load_images.str1.1
                0x000000002ffe3515      0x114 /home/ming/tf-a-stm32mp-2.2.r2-r0/tf-a-stm32mp-2.2.r2/../build/trusted/bl2/bl2_image_load_v2.o
 .rodata.bl2_main.str1.1
                0x000000002ffe3629       0x1e /home/ming/tf-a-stm32mp-2.2.r2-r0/tf-a-stm32mp-2.2.r2/../build/trusted/bl2/bl2_main.o
 .rodata.load_auth_image_internal.str1.1
                0x000000002ffe3647       0xd8 /home/ming/tf-a-stm32mp-2.2.r2-r0/tf-a-stm32mp-2.2.r2/../build/trusted/bl2/bl_common.o
                                        0x12d (size before relaxing)
 .rodata.print_entry_point_info.str1.1
                0x000000002ffe371f       0x2c /home/ming/tf-a-stm32mp-2.2.r2-r0/tf-a-stm32mp-2.2.r2/../build/trusted/bl2/bl_common.o
 .rodata.tf_log.str1.1
                0x000000002ffe374b       0x10 /home/ming/tf-a-stm32mp-2.2.r2-r0/tf-a-stm32mp-2.2.r2/../build/trusted/bl2/tf_log.o
 .rodata.console_unregister.str1.1
                0x000000002ffe375b       0x20 /home/ming/tf-a-stm32mp-2.2.r2-r0/tf-a-stm32mp-2.2.r2/../build/trusted/bl2/multi_console.o
 *fill*         0x000000002ffe377b        0x1 
 .rodata.plat_prefix_str
                0x000000002ffe377c       0x14 /home/ming/tf-a-stm32mp-2.2.r2-r0/tf-a-stm32mp-2.2.r2/../build/trusted/bl2/plat_log_common.o
 .rodata.str1.1
                0x000000002ffe3790       0x32 /home/ming/tf-a-stm32mp-2.2.r2-r0/tf-a-stm32mp-2.2.r2/../build/trusted/bl2/plat_log_common.o
 .rodata.stm32_get_gpio_bank_base.str1.1
                0x000000002ffe37c2       0x20 /home/ming/tf-a-stm32mp-2.2.r2-r0/tf-a-stm32mp-2.2.r2/../build/trusted/bl2/stm32mp_common.o
 .rodata.stm32mp_check_header.str1.1
                0x000000002ffe37e2       0x41 /home/ming/tf-a-stm32mp-2.2.r2-r0/tf-a-stm32mp-2.2.r2/../build/trusted/bl2/stm32mp_common.o
 *fill*         0x000000002ffe3823        0x1 
 .rodata.CSWTCH.52
                0x000000002ffe3824       0x10 /home/ming/tf-a-stm32mp-2.2.r2-r0/tf-a-stm32mp-2.2.r2/../build/trusted/bl2/stm32mp1_private.o
 .rodata.get_part_number.str1.1
                0x000000002ffe3834       0x36 /home/ming/tf-a-stm32mp-2.2.r2-r0/tf-a-stm32mp-2.2.r2/../build/trusted/bl2/stm32mp1_private.o
 .rodata.plat_bind_regulator.str1.1
                0x000000002ffe386a       0x14 /home/ming/tf-a-stm32mp-2.2.r2-r0/tf-a-stm32mp-2.2.r2/../build/trusted/bl2/stm32mp1_private.o
 .rodata.stm32_get_gpio_bank_clock.str1.1
                0x000000002ffe387e       0x24 /home/ming/tf-a-stm32mp-2.2.r2-r0/tf-a-stm32mp-2.2.r2/../build/trusted/bl2/stm32mp1_private.o
 .rodata.stm32_get_otp_value.str1.1
                0x000000002ffe38a2       0x16 /home/ming/tf-a-stm32mp-2.2.r2-r0/tf-a-stm32mp-2.2.r2/../build/trusted/bl2/stm32mp1_private.o
 .rodata.stm32_get_otp_value_from_idx.str1.1
                0x000000002ffe38b8       0x1a /home/ming/tf-a-stm32mp-2.2.r2-r0/tf-a-stm32mp-2.2.r2/../build/trusted/bl2/stm32mp1_private.o
 .rodata.stm32_iwdg_get_otp_config.str1.1
                0x000000002ffe38d2        0x8 /home/ming/tf-a-stm32mp-2.2.r2-r0/tf-a-stm32mp-2.2.r2/../build/trusted/bl2/stm32mp1_private.o
 *fill*         0x000000002ffe38da        0x6 
 .rodata.stm32mp1_mmap
                0x000000002ffe38e0       0x60 /home/ming/tf-a-stm32mp-2.2.r2-r0/tf-a-stm32mp-2.2.r2/../build/trusted/bl2/stm32mp1_private.o
 .rodata.stm32mp_is_closed_device.str1.1
                0x000000002ffe3940        0x9 /home/ming/tf-a-stm32mp-2.2.r2-r0/tf-a-stm32mp-2.2.r2/../build/trusted/bl2/stm32mp1_private.o
 .rodata.stm32mp_print_boardinfo.str1.1
                0x000000002ffe3949       0x2e /home/ming/tf-a-stm32mp-2.2.r2-r0/tf-a-stm32mp-2.2.r2/../build/trusted/bl2/stm32mp1_private.o
 .rodata.stm32mp_print_cpuinfo.str1.1
                0x000000002ffe3977       0x92 /home/ming/tf-a-stm32mp-2.2.r2-r0/tf-a-stm32mp-2.2.r2/../build/trusted/bl2/stm32mp1_private.o
                                         0x99 (size before relaxing)
 .rodata.str1.1
                0x000000002ffe3a09        0xc /home/ming/tf-a-stm32mp-2.2.r2-r0/tf-a-stm32mp-2.2.r2/../build/trusted/bl2/stm32mp1_private.o
 .rodata.xlat_arch_regime_get_xn_desc.str1.1
                0x000000002ffe3a15       0x2e /home/ming/tf-a-stm32mp-2.2.r2-r0/tf-a-stm32mp-2.2.r2/../build/trusted/bl2/xlat_tables_arch.o
 .rodata.mmap_add_alloc_va.str1.1
                0x000000002ffe3a43       0x29 /home/ming/tf-a-stm32mp-2.2.r2-r0/tf-a-stm32mp-2.2.r2/../build/trusted/bl2/xlat_tables_context.o
 .rodata.init_xlat_tables_ctx.str1.1
                0x000000002ffe3a6c       0x4f /home/ming/tf-a-stm32mp-2.2.r2-r0/tf-a-stm32mp-2.2.r2/../build/trusted/bl2/xlat_tables_core.o
 .rodata.mmap_add_region_ctx.str1.1
                0x000000002ffe3abb       0x2b /home/ming/tf-a-stm32mp-2.2.r2-r0/tf-a-stm32mp-2.2.r2/../build/trusted/bl2/xlat_tables_core.o
 .rodata.xlat_table_get_index.str1.1
                0x000000002ffe3ae6       0x26 /home/ming/tf-a-stm32mp-2.2.r2-r0/tf-a-stm32mp-2.2.r2/../build/trusted/bl2/xlat_tables_core.o
 .rodata.tzc400_enable_filters.str1.1
                0x000000002ffe3b0c       0x30 /home/ming/tf-a-stm32mp-2.2.r2-r0/tf-a-stm32mp-2.2.r2/../build/trusted/bl2/tzc400.o
 .rodata.tzc400_init.str1.1
                0x000000002ffe3b3c       0x24 /home/ming/tf-a-stm32mp-2.2.r2-r0/tf-a-stm32mp-2.2.r2/../build/trusted/bl2/tzc400.o
 .rodata.tzc400_set_action.str1.1
                0x000000002ffe3b60       0x19 /home/ming/tf-a-stm32mp-2.2.r2-r0/tf-a-stm32mp-2.2.r2/../build/trusted/bl2/tzc400.o
 .rodata.udelay.str1.1
                0x000000002ffe3b79       0x22 /home/ming/tf-a-stm32mp-2.2.r2-r0/tf-a-stm32mp-2.2.r2/../build/trusted/bl2/delay_timer.o
 .rodata.generic_delay_timer_init.str1.1
                0x000000002ffe3b9b       0x2a /home/ming/tf-a-stm32mp-2.2.r2-r0/tf-a-stm32mp-2.2.r2/../build/trusted/bl2/generic_delay_timer.o
 .rodata.bsec_find_otp_name_in_dt.str1.1
                0x000000002ffe3bc5       0x85 /home/ming/tf-a-stm32mp-2.2.r2-r0/tf-a-stm32mp-2.2.r2/../build/trusted/bl2/bsec2.o
                                         0x89 (size before relaxing)
 .rodata.bsec_probe.str1.1
                0x000000002ffe3c4a       0x12 /home/ming/tf-a-stm32mp-2.2.r2-r0/tf-a-stm32mp-2.2.r2/../build/trusted/bl2/bsec2.o
 .rodata.bsec_program_otp.str1.1
                0x000000002ffe3c5c       0xa8 /home/ming/tf-a-stm32mp-2.2.r2-r0/tf-a-stm32mp-2.2.r2/../build/trusted/bl2/bsec2.o
 .rodata.bsec_shadow_read_otp.str1.1
                0x000000002ffe3d04       0x37 /home/ming/tf-a-stm32mp-2.2.r2-r0/tf-a-stm32mp-2.2.r2/../build/trusted/bl2/bsec2.o
 .rodata.bsec_shadow_register.str1.1
                0x000000002ffe3d3b       0x29 /home/ming/tf-a-stm32mp-2.2.r2-r0/tf-a-stm32mp-2.2.r2/../build/trusted/bl2/bsec2.o
 .rodata.bsec_write_otp.str1.1
                0x000000002ffe3d64       0x2a /home/ming/tf-a-stm32mp-2.2.r2-r0/tf-a-stm32mp-2.2.r2/../build/trusted/bl2/bsec2.o
 .rodata.otp_bank_offset.str1.1
                0x000000002ffe3d8e       0x18 /home/ming/tf-a-stm32mp-2.2.r2-r0/tf-a-stm32mp-2.2.r2/../build/trusted/bl2/bsec2.o
 .rodata.fdt_get_clock_id.str1.1
                0x000000002ffe3da6       0x18 /home/ming/tf-a-stm32mp-2.2.r2-r0/tf-a-stm32mp-2.2.r2/../build/trusted/bl2/stm32mp_clkfunc.o
                                          0x7 (size before relaxing)
 .rodata.fdt_get_rcc_node.str1.1
                0x000000002ffe3da6       0x10 /home/ming/tf-a-stm32mp-2.2.r2-r0/tf-a-stm32mp-2.2.r2/../build/trusted/bl2/stm32mp_clkfunc.o
 .rodata.fdt_is_pll1_predefined.str1.1
                0x000000002ffe3db6        0x9 /home/ming/tf-a-stm32mp-2.2.r2-r0/tf-a-stm32mp-2.2.r2/../build/trusted/bl2/stm32mp_clkfunc.o
 .rodata.fdt_osc_read_freq.str1.1
                0x000000002ffe3dbf       0x18 /home/ming/tf-a-stm32mp-2.2.r2-r0/tf-a-stm32mp-2.2.r2/../build/trusted/bl2/stm32mp_clkfunc.o
 .rodata.__func__.7272
                0x000000002ffe3dd7       0x1a /home/ming/tf-a-stm32mp-2.2.r2-r0/tf-a-stm32mp-2.2.r2/../build/trusted/bl2/stm32mp1_clk.o
 .rodata.__stm32mp1_clk_disable.str1.1
                0x000000002ffe3df1       0x1d /home/ming/tf-a-stm32mp-2.2.r2-r0/tf-a-stm32mp-2.2.r2/../build/trusted/bl2/stm32mp1_clk.o
 .rodata.__stm32mp1_clk_enable.str1.1
                0x000000002ffe3e0e       0x1c /home/ming/tf-a-stm32mp-2.2.r2-r0/tf-a-stm32mp-2.2.r2/../build/trusted/bl2/stm32mp1_clk.o
 .rodata.axiss_parents
                0x000000002ffe3e2a        0x3 /home/ming/tf-a-stm32mp-2.2.r2-r0/tf-a-stm32mp-2.2.r2/../build/trusted/bl2/stm32mp1_clk.o
 .rodata.fmc_parents
                0x000000002ffe3e2d        0x4 /home/ming/tf-a-stm32mp-2.2.r2-r0/tf-a-stm32mp-2.2.r2/../build/trusted/bl2/stm32mp1_clk.o
 .rodata.i2c12_parents
                0x000000002ffe3e31        0x4 /home/ming/tf-a-stm32mp-2.2.r2-r0/tf-a-stm32mp-2.2.r2/../build/trusted/bl2/stm32mp1_clk.o
 .rodata.i2c35_parents
                0x000000002ffe3e35        0x4 /home/ming/tf-a-stm32mp-2.2.r2-r0/tf-a-stm32mp-2.2.r2/../build/trusted/bl2/stm32mp1_clk.o
 .rodata.i2c46_parents
                0x000000002ffe3e39        0x4 /home/ming/tf-a-stm32mp-2.2.r2-r0/tf-a-stm32mp-2.2.r2/../build/trusted/bl2/stm32mp1_clk.o
 .rodata.mcuss_parents
                0x000000002ffe3e3d        0x4 /home/ming/tf-a-stm32mp-2.2.r2-r0/tf-a-stm32mp-2.2.r2/../build/trusted/bl2/stm32mp1_clk.o
 .rodata.mpu_parents
                0x000000002ffe3e41        0x4 /home/ming/tf-a-stm32mp-2.2.r2-r0/tf-a-stm32mp-2.2.r2/../build/trusted/bl2/stm32mp1_clk.o
 .rodata.parent_id_clock_id
                0x000000002ffe3e45       0x22 /home/ming/tf-a-stm32mp-2.2.r2-r0/tf-a-stm32mp-2.2.r2/../build/trusted/bl2/stm32mp1_clk.o
 .rodata.per_parents
                0x000000002ffe3e67        0x3 /home/ming/tf-a-stm32mp-2.2.r2-r0/tf-a-stm32mp-2.2.r2/../build/trusted/bl2/stm32mp1_clk.o
 .rodata.pllncfgr2
                0x000000002ffe3e6a        0x3 /home/ming/tf-a-stm32mp-2.2.r2-r0/tf-a-stm32mp-2.2.r2/../build/trusted/bl2/stm32mp1_clk.o
 .rodata.qspi_parents
                0x000000002ffe3e6d        0x4 /home/ming/tf-a-stm32mp-2.2.r2-r0/tf-a-stm32mp-2.2.r2/../build/trusted/bl2/stm32mp1_clk.o
 .rodata.rng1_parents
                0x000000002ffe3e71        0x4 /home/ming/tf-a-stm32mp-2.2.r2-r0/tf-a-stm32mp-2.2.r2/../build/trusted/bl2/stm32mp1_clk.o
 .rodata.rtc_parents
                0x000000002ffe3e75        0x4 /home/ming/tf-a-stm32mp-2.2.r2-r0/tf-a-stm32mp-2.2.r2/../build/trusted/bl2/stm32mp1_clk.o
 .rodata.sdmmc12_parents
                0x000000002ffe3e79        0x4 /home/ming/tf-a-stm32mp-2.2.r2-r0/tf-a-stm32mp-2.2.r2/../build/trusted/bl2/stm32mp1_clk.o
 .rodata.sdmmc3_parents
                0x000000002ffe3e7d        0x4 /home/ming/tf-a-stm32mp-2.2.r2-r0/tf-a-stm32mp-2.2.r2/../build/trusted/bl2/stm32mp1_clk.o
 .rodata.spi6_parents
                0x000000002ffe3e81        0x6 /home/ming/tf-a-stm32mp-2.2.r2-r0/tf-a-stm32mp-2.2.r2/../build/trusted/bl2/stm32mp1_clk.o
 .rodata.stgen_parents
                0x000000002ffe3e87        0x2 /home/ming/tf-a-stm32mp-2.2.r2-r0/tf-a-stm32mp-2.2.r2/../build/trusted/bl2/stm32mp1_clk.o
 .rodata.stm32mp1_axi_div
                0x000000002ffe3e89        0x8 /home/ming/tf-a-stm32mp-2.2.r2-r0/tf-a-stm32mp-2.2.r2/../build/trusted/bl2/stm32mp1_clk.o
 .rodata.stm32mp1_check_pll_conf.str1.1
                0x000000002ffe3e91        0x5 /home/ming/tf-a-stm32mp-2.2.r2-r0/tf-a-stm32mp-2.2.r2/../build/trusted/bl2/stm32mp1_clk.o
 .rodata.stm32mp1_clk_gate
                0x000000002ffe3e96      0x1b8 /home/ming/tf-a-stm32mp-2.2.r2-r0/tf-a-stm32mp-2.2.r2/../build/trusted/bl2/stm32mp1_clk.o
 .rodata.stm32mp1_clk_get_gated_id.str1.1
                0x000000002ffe404e       0x1a /home/ming/tf-a-stm32mp-2.2.r2-r0/tf-a-stm32mp-2.2.r2/../build/trusted/bl2/stm32mp1_clk.o
 .rodata.stm32mp1_clk_get_maxfreq_opp.str1.1
                0x000000002ffe4068       0x1e /home/ming/tf-a-stm32mp-2.2.r2-r0/tf-a-stm32mp-2.2.r2/../build/trusted/bl2/stm32mp1_clk.o
 .rodata.stm32mp1_clk_init.str1.1
                0x000000002ffe4086       0x8b /home/ming/tf-a-stm32mp-2.2.r2-r0/tf-a-stm32mp-2.2.r2/../build/trusted/bl2/stm32mp1_clk.o
                                         0x8f (size before relaxing)
 *fill*         0x000000002ffe4111        0x3 
 .rodata.stm32mp1_clk_pll
                0x000000002ffe4114       0x80 /home/ming/tf-a-stm32mp-2.2.r2-r0/tf-a-stm32mp-2.2.r2/../build/trusted/bl2/stm32mp1_clk.o
 .rodata.stm32mp1_clk_sel
                0x000000002ffe4194      0x108 /home/ming/tf-a-stm32mp-2.2.r2-r0/tf-a-stm32mp-2.2.r2/../build/trusted/bl2/stm32mp1_clk.o
 .rodata.stm32mp1_mcu_div
                0x000000002ffe429c       0x10 /home/ming/tf-a-stm32mp-2.2.r2-r0/tf-a-stm32mp-2.2.r2/../build/trusted/bl2/stm32mp1_clk.o
 .rodata.stm32mp1_mpu_apbx_div
                0x000000002ffe42ac        0x8 /home/ming/tf-a-stm32mp-2.2.r2-r0/tf-a-stm32mp-2.2.r2/../build/trusted/bl2/stm32mp1_clk.o
 .rodata.stm32mp1_osc_wait.str1.1
                0x000000002ffe42b4       0x2c /home/ming/tf-a-stm32mp-2.2.r2-r0/tf-a-stm32mp-2.2.r2/../build/trusted/bl2/stm32mp1_clk.o
 .rodata.stm32mp1_pll
                0x000000002ffe42e0        0x6 /home/ming/tf-a-stm32mp-2.2.r2-r0/tf-a-stm32mp-2.2.r2/../build/trusted/bl2/stm32mp1_clk.o
 .rodata.stm32mp1_pll_output.str1.1
                0x000000002ffe42e6       0x23 /home/ming/tf-a-stm32mp-2.2.r2-r0/tf-a-stm32mp-2.2.r2/../build/trusted/bl2/stm32mp1_clk.o
 .rodata.stm32mp1_pll_stop.str1.1
                0x000000002ffe4309       0x22 /home/ming/tf-a-stm32mp-2.2.r2-r0/tf-a-stm32mp-2.2.r2/../build/trusted/bl2/stm32mp1_clk.o
 .rodata.stm32mp1_set_clkdiv.str1.1
                0x000000002ffe432b       0x27 /home/ming/tf-a-stm32mp-2.2.r2-r0/tf-a-stm32mp-2.2.r2/../build/trusted/bl2/stm32mp1_clk.o
 .rodata.stm32mp1_set_clksrc.str1.1
                0x000000002ffe4352       0x27 /home/ming/tf-a-stm32mp-2.2.r2-r0/tf-a-stm32mp-2.2.r2/../build/trusted/bl2/stm32mp1_clk.o
 .rodata.str1.1
                0x000000002ffe4379       0x31 /home/ming/tf-a-stm32mp-2.2.r2-r0/tf-a-stm32mp-2.2.r2/../build/trusted/bl2/stm32mp1_clk.o
 .rodata.uart234578_parents
                0x000000002ffe43aa        0x5 /home/ming/tf-a-stm32mp-2.2.r2-r0/tf-a-stm32mp-2.2.r2/../build/trusted/bl2/stm32mp1_clk.o
 .rodata.uart6_parents
                0x000000002ffe43af        0x5 /home/ming/tf-a-stm32mp-2.2.r2-r0/tf-a-stm32mp-2.2.r2/../build/trusted/bl2/stm32mp1_clk.o
 .rodata.usart1_parents
                0x000000002ffe43b4        0x6 /home/ming/tf-a-stm32mp-2.2.r2-r0/tf-a-stm32mp-2.2.r2/../build/trusted/bl2/stm32mp1_clk.o
 .rodata.usbo_parents
                0x000000002ffe43ba        0x2 /home/ming/tf-a-stm32mp-2.2.r2-r0/tf-a-stm32mp-2.2.r2/../build/trusted/bl2/stm32mp1_clk.o
 .rodata.usbphy_parents
                0x000000002ffe43bc        0x3 /home/ming/tf-a-stm32mp-2.2.r2-r0/tf-a-stm32mp-2.2.r2/../build/trusted/bl2/stm32mp1_clk.o
 .rodata.CSWTCH.26
                0x000000002ffe43bf        0xa /home/ming/tf-a-stm32mp-2.2.r2-r0/tf-a-stm32mp-2.2.r2/../build/trusted/bl2/stm32mp1_ddr_helpers.o
 .rodata.ddr_set_sr_mode.str1.1
                0x000000002ffe43c9       0x1c /home/ming/tf-a-stm32mp-2.2.r2-r0/tf-a-stm32mp-2.2.r2/../build/trusted/bl2/stm32mp1_ddr_helpers.o
 .rodata.dt_set_pinctrl_config.str1.1
                0x000000002ffe43e5       0x75 /home/ming/tf-a-stm32mp-2.2.r2-r0/tf-a-stm32mp-2.2.r2/../build/trusted/bl2/stm32_gpio.o
                                         0x79 (size before relaxing)
 .rodata.set_gpio.str1.1
                0x000000002ffe445a       0x1d /home/ming/tf-a-stm32mp-2.2.r2-r0/tf-a-stm32mp-2.2.r2/../build/trusted/bl2/stm32_gpio.o
 *fill*         0x000000002ffe4477        0x1 
 .rodata.i2c_specs
                0x000000002ffe4478       0x60 /home/ming/tf-a-stm32mp-2.2.r2-r0/tf-a-stm32mp-2.2.r2/../build/trusted/bl2/stm32_i2c.o
 .rodata.stm32_i2c_get_setup_from_fdt.str1.1
                0x000000002ffe44d8       0x4d /home/ming/tf-a-stm32mp-2.2.r2-r0/tf-a-stm32mp-2.2.r2/../build/trusted/bl2/stm32_i2c.o
                                         0x5d (size before relaxing)
 .rodata.stm32_i2c_init.str1.1
                0x000000002ffe4525      0x146 /home/ming/tf-a-stm32mp-2.2.r2-r0/tf-a-stm32mp-2.2.r2/../build/trusted/bl2/stm32_i2c.o
 .rodata.stm32_iwdg_init.str1.1
                0x000000002ffe466b       0x63 /home/ming/tf-a-stm32mp-2.2.r2-r0/tf-a-stm32mp-2.2.r2/../build/trusted/bl2/stm32_iwdg.o
 .rodata.dt_get_pmic_node.str1.1
                0x000000002ffe46ce        0xb /home/ming/tf-a-stm32mp-2.2.r2-r0/tf-a-stm32mp-2.2.r2/../build/trusted/bl2/stm32mp_pmic.o
 .rodata.dt_pmic_find_supply.str1.1
                0x000000002ffe46d9        0xf /home/ming/tf-a-stm32mp-2.2.r2-r0/tf-a-stm32mp-2.2.r2/../build/trusted/bl2/stm32mp_pmic.o
 .rodata.dt_pmic_get_regulator_voltage.str1.1
                0x000000002ffe46e8       0x30 /home/ming/tf-a-stm32mp-2.2.r2-r0/tf-a-stm32mp-2.2.r2/../build/trusted/bl2/stm32mp_pmic.o
 .rodata.initialize_pmic_i2c.str1.1
                0x000000002ffe4718       0x55 /home/ming/tf-a-stm32mp-2.2.r2-r0/tf-a-stm32mp-2.2.r2/../build/trusted/bl2/stm32mp_pmic.o
                                         0x59 (size before relaxing)
 .rodata.is_pmic_regulator.str1.1
                0x000000002ffe476d       0x16 /home/ming/tf-a-stm32mp-2.2.r2-r0/tf-a-stm32mp-2.2.r2/../build/trusted/bl2/stm32mp_pmic.o
 .rodata.pmic_ddr_power_init.str1.1
                0x000000002ffe4783       0x14 /home/ming/tf-a-stm32mp-2.2.r2-r0/tf-a-stm32mp-2.2.r2/../build/trusted/bl2/stm32mp_pmic.o
 .rodata.pmic_operate.str1.1
                0x000000002ffe4797       0x53 /home/ming/tf-a-stm32mp-2.2.r2-r0/tf-a-stm32mp-2.2.r2/../build/trusted/bl2/stm32mp_pmic.o
                                         0x72 (size before relaxing)
 *fill*         0x000000002ffe47ea        0x2 
 .rodata.pmic_regu_ops
                0x000000002ffe47ec        0x8 /home/ming/tf-a-stm32mp-2.2.r2-r0/tf-a-stm32mp-2.2.r2/../build/trusted/bl2/stm32mp_pmic.o
 .rodata.print_pmic_info_and_debug.str1.1
                0x000000002ffe47f4       0x31 /home/ming/tf-a-stm32mp-2.2.r2-r0/tf-a-stm32mp-2.2.r2/../build/trusted/bl2/stm32mp_pmic.o
 *fill*         0x000000002ffe4825        0x1 
 .rodata.buck1_voltage_table
                0x000000002ffe4826       0x80 /home/ming/tf-a-stm32mp-2.2.r2-r0/tf-a-stm32mp-2.2.r2/../build/trusted/bl2/stpmic1.o
 .rodata.buck2_voltage_table
                0x000000002ffe48a6       0x4a /home/ming/tf-a-stm32mp-2.2.r2-r0/tf-a-stm32mp-2.2.r2/../build/trusted/bl2/stpmic1.o
 .rodata.buck3_voltage_table
                0x000000002ffe48f0       0x70 /home/ming/tf-a-stm32mp-2.2.r2-r0/tf-a-stm32mp-2.2.r2/../build/trusted/bl2/stpmic1.o
 .rodata.buck4_voltage_table
                0x000000002ffe4960       0x7a /home/ming/tf-a-stm32mp-2.2.r2-r0/tf-a-stm32mp-2.2.r2/../build/trusted/bl2/stpmic1.o
 .rodata.fixed_5v_voltage_table
                0x000000002ffe49da        0x2 /home/ming/tf-a-stm32mp-2.2.r2-r0/tf-a-stm32mp-2.2.r2/../build/trusted/bl2/stpmic1.o
 .rodata.ldo1_voltage_table
                0x000000002ffe49dc       0x32 /home/ming/tf-a-stm32mp-2.2.r2-r0/tf-a-stm32mp-2.2.r2/../build/trusted/bl2/stpmic1.o
 .rodata.ldo2_voltage_table
                0x000000002ffe4a0e       0x32 /home/ming/tf-a-stm32mp-2.2.r2-r0/tf-a-stm32mp-2.2.r2/../build/trusted/bl2/stpmic1.o
 .rodata.ldo3_voltage_table
                0x000000002ffe4a40       0x42 /home/ming/tf-a-stm32mp-2.2.r2-r0/tf-a-stm32mp-2.2.r2/../build/trusted/bl2/stpmic1.o
 .rodata.ldo4_voltage_table
                0x000000002ffe4a82        0x2 /home/ming/tf-a-stm32mp-2.2.r2-r0/tf-a-stm32mp-2.2.r2/../build/trusted/bl2/stpmic1.o
 .rodata.ldo5_voltage_table
                0x000000002ffe4a84       0x3e /home/ming/tf-a-stm32mp-2.2.r2-r0/tf-a-stm32mp-2.2.r2/../build/trusted/bl2/stpmic1.o
 .rodata.ldo6_voltage_table
                0x000000002ffe4ac2       0x32 /home/ming/tf-a-stm32mp-2.2.r2-r0/tf-a-stm32mp-2.2.r2/../build/trusted/bl2/stpmic1.o
 .rodata.regulators_table
                0x000000002ffe4af4       0xe0 /home/ming/tf-a-stm32mp-2.2.r2-r0/tf-a-stm32mp-2.2.r2/../build/trusted/bl2/stpmic1.o
 .rodata.stpmic1_regulator_voltage_get.str1.1
                0x000000002ffe4bd4        0xe /home/ming/tf-a-stm32mp-2.2.r2-r0/tf-a-stm32mp-2.2.r2/../build/trusted/bl2/stpmic1.o
 .rodata.str1.1
                0x000000002ffe4be2       0x3c /home/ming/tf-a-stm32mp-2.2.r2-r0/tf-a-stm32mp-2.2.r2/../build/trusted/bl2/stpmic1.o
                                         0x50 (size before relaxing)
 .rodata.vref_ddr_voltage_table
                0x000000002ffe4c1e        0x2 /home/ming/tf-a-stm32mp-2.2.r2-r0/tf-a-stm32mp-2.2.r2/../build/trusted/bl2/stpmic1.o
 .rodata.dummy_regu_ops
                0x000000002ffe4c20        0x8 /home/ming/tf-a-stm32mp-2.2.r2-r0/tf-a-stm32mp-2.2.r2/../build/trusted/bl2/stm32mp_dummy_regulator.o
 .rodata.stm32mp_regulator_enable.str1.1
                0x000000002ffe4c28       0x29 /home/ming/tf-a-stm32mp-2.2.r2-r0/tf-a-stm32mp-2.2.r2/../build/trusted/bl2/stm32mp_regulator.o
 .rodata.dt_fill_device_info.str1.1
                0x000000002ffe4c51        0x7 /home/ming/tf-a-stm32mp-2.2.r2-r0/tf-a-stm32mp-2.2.r2/../build/trusted/bl2/stm32mp_dt.o
                                          0xe (size before relaxing)
 .rodata.dt_get_board_model.str1.1
                0x000000002ffe4c58        0x8 /home/ming/tf-a-stm32mp-2.2.r2-r0/tf-a-stm32mp-2.2.r2/../build/trusted/bl2/stm32mp_dt.o
 .rodata.dt_get_cpu_regulator_name.str1.1
                0x000000002ffe4c60       0x17 /home/ming/tf-a-stm32mp-2.2.r2-r0/tf-a-stm32mp-2.2.r2/../build/trusted/bl2/stm32mp_dt.o
                                         0x26 (size before relaxing)
 .rodata.dt_get_ddr_size.str1.1
                0x000000002ffe4c77       0x1c /home/ming/tf-a-stm32mp-2.2.r2-r0/tf-a-stm32mp-2.2.r2/../build/trusted/bl2/stm32mp_dt.o
 .rodata.dt_get_max_opp_freqvolt.str1.1
                0x000000002ffe4c77       0x14 /home/ming/tf-a-stm32mp-2.2.r2-r0/tf-a-stm32mp-2.2.r2/../build/trusted/bl2/stm32mp_dt.o
 .rodata.dt_get_node_by_compatible.str1.1
                0x000000002ffe4c8b       0x1c /home/ming/tf-a-stm32mp-2.2.r2-r0/tf-a-stm32mp-2.2.r2/../build/trusted/bl2/stm32mp_dt.o
 .rodata.dt_get_opp_freqvolt_from_subnode.str1.1
                0x000000002ffe4ca7       0x26 /home/ming/tf-a-stm32mp-2.2.r2-r0/tf-a-stm32mp-2.2.r2/../build/trusted/bl2/stm32mp_dt.o
 .rodata.dt_get_pwr_vdd_voltage.str1.1
                0x000000002ffe4ccd       0x1f /home/ming/tf-a-stm32mp-2.2.r2-r0/tf-a-stm32mp-2.2.r2/../build/trusted/bl2/stm32mp_dt.o
                                         0x37 (size before relaxing)
 .rodata.dt_get_stdout_node_offset.str1.1
                0x000000002ffe4cec       0x25 /home/ming/tf-a-stm32mp-2.2.r2-r0/tf-a-stm32mp-2.2.r2/../build/trusted/bl2/stm32mp_dt.o
 .rodata.fdt_get_reg_props_by_name.str1.1
                0x000000002ffe4d11       0x26 /home/ming/tf-a-stm32mp-2.2.r2-r0/tf-a-stm32mp-2.2.r2/../build/trusted/bl2/stm32mp_dt.o
                                         0x2a (size before relaxing)
 .rodata.fdt_get_status.str1.1
                0x000000002ffe4d37       0x13 /home/ming/tf-a-stm32mp-2.2.r2-r0/tf-a-stm32mp-2.2.r2/../build/trusted/bl2/stm32mp_dt.o
                                         0x1a (size before relaxing)
 .rodata.stm32mp1_dbgmcu_get_chip_version.str1.1
                0x000000002ffe4d4a       0x23 /home/ming/tf-a-stm32mp-2.2.r2-r0/tf-a-stm32mp-2.2.r2/../build/trusted/bl2/stm32mp1_dbgmcu.o
 .rodata.stm32mp1_dbgmcu_init.str1.1
                0x000000002ffe4d6d       0x36 /home/ming/tf-a-stm32mp-2.2.r2-r0/tf-a-stm32mp-2.2.r2/../build/trusted/bl2/stm32mp1_dbgmcu.o
 .rodata.stm32mp1_syscfg_enable_io_compensation.str1.1
                0x000000002ffe4da3       0x21 /home/ming/tf-a-stm32mp-2.2.r2-r0/tf-a-stm32mp-2.2.r2/../build/trusted/bl2/stm32mp1_syscfg.o
 .rodata.stm32mp1_syscfg_init.str1.1
                0x000000002ffe4dc4       0x8e /home/ming/tf-a-stm32mp-2.2.r2-r0/tf-a-stm32mp-2.2.r2/../build/trusted/bl2/stm32mp1_syscfg.o
                                         0x96 (size before relaxing)
 .rodata.str1.1
                0x000000002ffe4e52       0x29 /home/ming/tf-a-stm32mp-2.2.r2-r0/tf-a-stm32mp-2.2.r2/../build/trusted/bl2/bl2_el3_entrypoint.o
 .rodata.str1.1
                0x000000002ffe4e7b       0x1f /home/ming/tf-a-stm32mp-2.2.r2-r0/tf-a-stm32mp-2.2.r2/../build/trusted/bl2/cpu_helpers.o
 .rodata.panic_str
                0x000000002ffe4e9a       0x14 /home/ming/tf-a-stm32mp-2.2.r2-r0/tf-a-stm32mp-2.2.r2/../build/trusted/bl2/debug.o
 .rodata.assert_str
                0x000000002ffe4eae       0x15 /home/ming/tf-a-stm32mp-2.2.r2-r0/tf-a-stm32mp-2.2.r2/../build/trusted/bl2/debug.o
 .rodata.str1.1
                0x000000002ffe4ec3       0x28 /home/ming/tf-a-stm32mp-2.2.r2-r0/tf-a-stm32mp-2.2.r2/../build/trusted/bl2/stm32_console.o
 .rodata.str1.1
                0x000000002ffe4eeb       0x28 /home/ming/tf-a-stm32mp-2.2.r2-r0/tf-a-stm32mp-2.2.r2/../build/trusted/bl2/enable_mmu.o
 .rodata.rev_err_str
                0x000000002ffe4f13       0xa0 /home/ming/tf-a-stm32mp-2.2.r2-r0/tf-a-stm32mp-2.2.r2/../build/trusted/bl2/stm32mp1_helper.o
 .rodata.fdt_address_cells.str1.1
                0x000000002ffe4fb3        0xf /home/ming/tf-a-stm32mp-2.2.r2-r0/tf-a-stm32mp-2.2.r2/../build/trusted/lib/libfdt.a(fdt_addresses.o)
 .rodata.fdt_size_cells.str1.1
                0x000000002ffe4fc2        0xc /home/ming/tf-a-stm32mp-2.2.r2-r0/tf-a-stm32mp-2.2.r2/../build/trusted/lib/libfdt.a(fdt_addresses.o)
 .rodata.fdt_get_alias_namelen.str1.1
                0x000000002ffe4fce        0x9 /home/ming/tf-a-stm32mp-2.2.r2-r0/tf-a-stm32mp-2.2.r2/../build/trusted/lib/libfdt.a(fdt_ro.o)
 .rodata.fdt_get_phandle.str1.1
                0x000000002ffe4fd7        0xe /home/ming/tf-a-stm32mp-2.2.r2-r0/tf-a-stm32mp-2.2.r2/../build/trusted/lib/libfdt.a(fdt_ro.o)
                                         0x16 (size before relaxing)
 .rodata.fdt_node_check_compatible.str1.1
                0x000000002ffe4fe5        0xb /home/ming/tf-a-stm32mp-2.2.r2-r0/tf-a-stm32mp-2.2.r2/../build/trusted/lib/libfdt.a(fdt_ro.o)
 .rodata.__assert.str1.1
                0x000000002ffe4ff0        0xf /home/ming/tf-a-stm32mp-2.2.r2-r0/tf-a-stm32mp-2.2.r2/../build/trusted/lib/libc.a(assert.o)
 .rodata.vprintf.str1.1
                0x000000002ffe4fff       0x15 /home/ming/tf-a-stm32mp-2.2.r2-r0/tf-a-stm32mp-2.2.r2/../build/trusted/lib/libc.a(printf.o)
 .rodata.snprintf.str1.1
                0x000000002ffe5014       0x39 /home/ming/tf-a-stm32mp-2.2.r2-r0/tf-a-stm32mp-2.2.r2/../build/trusted/lib/libc.a(snprintf.o)
                0x000000002ffe5050                . = ALIGN (0x8)
 *fill*         0x000000002ffe504d        0x3 
                0x000000002ffe5050                __CPU_OPS_START__ = .
 *(cpu_ops)
 cpu_ops        0x000000002ffe5050        0x8 /home/ming/tf-a-stm32mp-2.2.r2-r0/tf-a-stm32mp-2.2.r2/../build/trusted/bl2/cortex_a7.o
                0x000000002ffe5058                __CPU_OPS_END__ = .
                0x000000002ffe5058                . = ALIGN (0x8)
                0x000000002ffe5058                __PARSER_LIB_DESCS_START__ = .
 *(.img_parser_lib_descs)
 .img_parser_lib_descs
                0x000000002ffe5058       0x14 /home/ming/tf-a-stm32mp-2.2.r2-r0/tf-a-stm32mp-2.2.r2/../build/trusted/bl2/stm32mp_img_parser_lib.o
                0x000000002ffe506c                __PARSER_LIB_DESCS_END__ = .
 *(.vectors)
 *fill*         0x000000002ffe506c       0x14 
 .vectors       0x000000002ffe5080       0x20 /home/ming/tf-a-stm32mp-2.2.r2-r0/tf-a-stm32mp-2.2.r2/../build/trusted/bl2/bl2_el3_exceptions.o
                0x000000002ffe5080                bl2_vector_table
 .vectors.__stub
                0x000000002ffe50a0       0x44 linker stubs
                0x000000002ffe50e4                __RO_END_UNALIGNED__ = .
                0x000000002ffe6000                . = ALIGN (0x1000)
 *fill*         0x000000002ffe50e4      0xf1c 
                0x000000002ffe6000                __RO_END__ = .
                0x0000000000000001                ASSERT ((__CPU_OPS_END__ > __CPU_OPS_START__), cpu_ops not defined for this platform.)
                0x000000002ffe6000                __RW_START__ = .

.glue_7         0x000000002ffe6000        0x0
 .glue_7        0x000000002ffe6000        0x0 linker stubs

.glue_7t        0x000000002ffe6000        0x0
 .glue_7t       0x000000002ffe6000        0x0 linker stubs

.vfp11_veneer   0x000000002ffe6000        0x0
 .vfp11_veneer  0x000000002ffe6000        0x0 linker stubs

.v4_bx          0x000000002ffe6000        0x0
 .v4_bx         0x000000002ffe6000        0x0 linker stubs

.iplt           0x000000002ffe6000        0x0
 .iplt          0x000000002ffe6000        0x0 /home/ming/tf-a-stm32mp-2.2.r2-r0/tf-a-stm32mp-2.2.r2/../build/trusted/bl2/build_message.o

.rel.dyn        0x000000002ffe6000        0x0
 .rel.iplt      0x000000002ffe6000        0x0 /home/ming/tf-a-stm32mp-2.2.r2-r0/tf-a-stm32mp-2.2.r2/../build/trusted/bl2/build_message.o

.data           0x000000002ffe6000      0x1fc
                0x000000002ffe6000                __DATA_RAM_START__ = .
 *(.data*)
 .data.stm32image_dev_info
                0x000000002ffe6000        0x8 /home/ming/tf-a-stm32mp-2.2.r2-r0/tf-a-stm32mp-2.2.r2/../build/trusted/bl2/io_stm32image.o
 .data.backup_id.7498
                0x000000002ffe6008        0x4 /home/ming/tf-a-stm32mp-2.2.r2-r0/tf-a-stm32mp-2.2.r2/../build/trusted/bl2/bl2_io_storage.o
 .data.gpt_block_spec
                0x000000002ffe600c        0x8 /home/ming/tf-a-stm32mp-2.2.r2-r0/tf-a-stm32mp-2.2.r2/../build/trusted/bl2/bl2_io_storage.o
 *fill*         0x000000002ffe6014        0x4 
 .data.nand_dev_spec
                0x000000002ffe6018       0x18 /home/ming/tf-a-stm32mp-2.2.r2-r0/tf-a-stm32mp-2.2.r2/../build/trusted/bl2/bl2_io_storage.o
 .data.spi_nand_dev_spec
                0x000000002ffe6030       0x18 /home/ming/tf-a-stm32mp-2.2.r2-r0/tf-a-stm32mp-2.2.r2/../build/trusted/bl2/bl2_io_storage.o
 .data.spi_nor_dev_spec
                0x000000002ffe6048       0x18 /home/ming/tf-a-stm32mp-2.2.r2-r0/tf-a-stm32mp-2.2.r2/../build/trusted/bl2/bl2_io_storage.o
 .data.stm32image_dev_info_spec
                0x000000002ffe6060       0x48 /home/ming/tf-a-stm32mp-2.2.r2-r0/tf-a-stm32mp-2.2.r2/../build/trusted/bl2/bl2_io_storage.o
 .data.stm32_header_pk
                0x000000002ffe60a8        0x8 /home/ming/tf-a-stm32mp-2.2.r2-r0/tf-a-stm32mp-2.2.r2/../build/trusted/bl2/stm32mp_cot.o
 .data.stm32_header_sig
                0x000000002ffe60b0        0x8 /home/ming/tf-a-stm32mp-2.2.r2-r0/tf-a-stm32mp-2.2.r2/../build/trusted/bl2/stm32mp_cot.o
 .data.stm32_header_sig_alg
                0x000000002ffe60b8        0x8 /home/ming/tf-a-stm32mp-2.2.r2-r0/tf-a-stm32mp-2.2.r2/../build/trusted/bl2/stm32mp_cot.o
 .data.stm32_load
                0x000000002ffe60c0        0x8 /home/ming/tf-a-stm32mp-2.2.r2-r0/tf-a-stm32mp-2.2.r2/../build/trusted/bl2/stm32mp_cot.o
 .data.bl2_mem_params_descs
                0x000000002ffe60c8       0xb8 /home/ming/tf-a-stm32mp-2.2.r2-r0/tf-a-stm32mp-2.2.r2/../build/trusted/bl2/plat_bl2_mem_params_desc.o
 .data.bl_mem_params_desc_num
                0x000000002ffe6180        0x4 /home/ming/tf-a-stm32mp-2.2.r2-r0/tf-a-stm32mp-2.2.r2/../build/trusted/bl2/plat_bl2_mem_params_desc.o
                0x000000002ffe6180                bl_mem_params_desc_num
 .data.bl_mem_params_desc_ptr
                0x000000002ffe6184        0x4 /home/ming/tf-a-stm32mp-2.2.r2-r0/tf-a-stm32mp-2.2.r2/../build/trusted/bl2/plat_bl2_mem_params_desc.o
                0x000000002ffe6184                bl_mem_params_desc_ptr
 .data.max_log_level
                0x000000002ffe6188        0x4 /home/ming/tf-a-stm32mp-2.2.r2-r0/tf-a-stm32mp-2.2.r2/../build/trusted/bl2/tf_log.o
 .data.console_state
                0x000000002ffe618c        0x1 /home/ming/tf-a-stm32mp-2.2.r2-r0/tf-a-stm32mp-2.2.r2/../build/trusted/bl2/multi_console.o
                0x000000002ffe618c                console_state
 *fill*         0x000000002ffe618d        0x3 
 .data.tf_xlat_ctx
                0x000000002ffe6190       0x48 /home/ming/tf-a-stm32mp-2.2.r2-r0/tf-a-stm32mp-2.2.r2/../build/trusted/bl2/xlat_tables_context.o
 .data.stm32mp_osc_node_label
                0x000000002ffe61d8       0x18 /home/ming/tf-a-stm32mp-2.2.r2-r0/tf-a-stm32mp-2.2.r2/../build/trusted/bl2/stm32mp1_clk.o
                0x000000002ffe61d8                stm32mp_osc_node_label
 .data.i2c_node.6758
                0x000000002ffe61f0        0x4 /home/ming/tf-a-stm32mp-2.2.r2-r0/tf-a-stm32mp-2.2.r2/../build/trusted/bl2/stm32mp_pmic.o
 .data.node.6708
                0x000000002ffe61f4        0x4 /home/ming/tf-a-stm32mp-2.2.r2-r0/tf-a-stm32mp-2.2.r2/../build/trusted/bl2/stm32mp_pmic.o
 .data.status.6712
                0x000000002ffe61f8        0x4 /home/ming/tf-a-stm32mp-2.2.r2-r0/tf-a-stm32mp-2.2.r2/../build/trusted/bl2/stm32mp_pmic.o
                0x000000002ffe61fc                __DATA_RAM_END__ = .

.igot.plt       0x000000002ffe61fc        0x0
 .igot.plt      0x000000002ffe61fc        0x0 /home/ming/tf-a-stm32mp-2.2.r2-r0/tf-a-stm32mp-2.2.r2/../build/trusted/bl2/build_message.o

stacks          0x000000002ffe6200      0xc00
                0x000000002ffe6200                __STACKS_START__ = .
 *(tzfw_normal_stacks)
 tzfw_normal_stacks
                0x000000002ffe6200      0xc00 /home/ming/tf-a-stm32mp-2.2.r2-r0/tf-a-stm32mp-2.2.r2/../build/trusted/bl2/platform_up_stack.o
                0x000000002ffe6e00                __STACKS_END__ = .

.bss            0x000000002ffe6e00     0x25c0
                0x000000002ffe6e00                __BSS_START__ = .
 *(SORT(.bss*))
 .bss.block_buffer
                0x000000002ffe6e00      0x800 /home/ming/tf-a-stm32mp-2.2.r2-r0/tf-a-stm32mp-2.2.r2/../build/trusted/bl2/bl2_io_storage.o
 .bss.tf_base_xlat_table
                0x000000002ffe7600       0x20 /home/ming/tf-a-stm32mp-2.2.r2-r0/tf-a-stm32mp-2.2.r2/../build/trusted/bl2/xlat_tables_context.o
 .bss.mmc_ext_csd
                0x000000002ffe7620      0x200 /home/ming/tf-a-stm32mp-2.2.r2-r0/tf-a-stm32mp-2.2.r2/../build/trusted/bl2/mmc.o
 .bss.scr       0x000000002ffe7820        0x8 /home/ming/tf-a-stm32mp-2.2.r2-r0/tf-a-stm32mp-2.2.r2/../build/trusted/bl2/mmc.o
 .bss.state_pool
                0x000000002ffe7828       0x18 /home/ming/tf-a-stm32mp-2.2.r2-r0/tf-a-stm32mp-2.2.r2/../build/trusted/bl2/io_block.o
 .bss.state_pool
                0x000000002ffe7840       0x18 /home/ming/tf-a-stm32mp-2.2.r2-r0/tf-a-stm32mp-2.2.r2/../build/trusted/bl2/io_mtd.o
 .bss.stm32image_dev
                0x000000002ffe7858       0x48 /home/ming/tf-a-stm32mp-2.2.r2-r0/tf-a-stm32mp-2.2.r2/../build/trusted/bl2/io_stm32image.o
 .bss.list      0x000000002ffe78a0       0xb0 /home/ming/tf-a-stm32mp-2.2.r2-r0/tf-a-stm32mp-2.2.r2/../build/trusted/bl2/partition.o
 .bss.seek_offset
                0x000000002ffe7950        0x8 /home/ming/tf-a-stm32mp-2.2.r2-r0/tf-a-stm32mp-2.2.r2/../build/trusted/bl2/io_mmc.o
 .bss.spinand_dev
                0x000000002ffe7958       0x40 /home/ming/tf-a-stm32mp-2.2.r2-r0/tf-a-stm32mp-2.2.r2/../build/trusted/bl2/spi_nand.o
 .bss.nor_dev   0x000000002ffe7998       0x40 /home/ming/tf-a-stm32mp-2.2.r2-r0/tf-a-stm32mp-2.2.r2/../build/trusted/bl2/spi_nor.o
 .bss.nand_dev  0x000000002ffe79d8       0x30 /home/ming/tf-a-stm32mp-2.2.r2-r0/tf-a-stm32mp-2.2.r2/../build/trusted/bl2/core.o
 .bss.ddr_priv_data
                0x000000002ffe7a08       0x20 /home/ming/tf-a-stm32mp-2.2.r2-r0/tf-a-stm32mp-2.2.r2/../build/trusted/bl2/stm32mp1_ram.o
 .bss.tf_mmap   0x000000002ffe7a28      0x120 /home/ming/tf-a-stm32mp-2.2.r2-r0/tf-a-stm32mp-2.2.r2/../build/trusted/bl2/xlat_tables_context.o
 .bss.block_dev_count
                0x000000002ffe7b48        0x4 /home/ming/tf-a-stm32mp-2.2.r2-r0/tf-a-stm32mp-2.2.r2/../build/trusted/bl2/io_block.o
 .bss.dev_info_pool
                0x000000002ffe7b4c        0x8 /home/ming/tf-a-stm32mp-2.2.r2-r0/tf-a-stm32mp-2.2.r2/../build/trusted/bl2/io_block.o
 .bss.current_file
                0x000000002ffe7b54        0x8 /home/ming/tf-a-stm32mp-2.2.r2-r0/tf-a-stm32mp-2.2.r2/../build/trusted/bl2/io_dummy.o
 .bss.dev_info_pool
                0x000000002ffe7b5c        0x8 /home/ming/tf-a-stm32mp-2.2.r2-r0/tf-a-stm32mp-2.2.r2/../build/trusted/bl2/io_mtd.o
 .bss.dev_count
                0x000000002ffe7b64        0x4 /home/ming/tf-a-stm32mp-2.2.r2-r0/tf-a-stm32mp-2.2.r2/../build/trusted/bl2/io_storage.o
 .bss.entity_count
                0x000000002ffe7b68        0x4 /home/ming/tf-a-stm32mp-2.2.r2-r0/tf-a-stm32mp-2.2.r2/../build/trusted/bl2/io_storage.o
 .bss.entity_map
                0x000000002ffe7b6c       0x10 /home/ming/tf-a-stm32mp-2.2.r2-r0/tf-a-stm32mp-2.2.r2/../build/trusted/bl2/io_storage.o
 .bss.entity_pool
                0x000000002ffe7b7c       0x20 /home/ming/tf-a-stm32mp-2.2.r2-r0/tf-a-stm32mp-2.2.r2/../build/trusted/bl2/io_storage.o
 .bss.stm32_hash
                0x000000002ffe7b9c        0xc /home/ming/tf-a-stm32mp-2.2.r2-r0/tf-a-stm32mp-2.2.r2/../build/trusted/bl2/stm32_hash.o
 .bss.stm32_remain
                0x000000002ffe7ba8        0x8 /home/ming/tf-a-stm32mp-2.2.r2-r0/tf-a-stm32mp-2.2.r2/../build/trusted/bl2/stm32_hash.o
 .bss.backend_dev_handle
                0x000000002ffe7bb0        0x4 /home/ming/tf-a-stm32mp-2.2.r2-r0/tf-a-stm32mp-2.2.r2/../build/trusted/bl2/io_stm32image.o
 .bss.backend_image_spec
                0x000000002ffe7bb4        0x4 /home/ming/tf-a-stm32mp-2.2.r2-r0/tf-a-stm32mp-2.2.r2/../build/trusted/bl2/io_stm32image.o
 .bss.current_part
                0x000000002ffe7bb8        0x4 /home/ming/tf-a-stm32mp-2.2.r2-r0/tf-a-stm32mp-2.2.r2/../build/trusted/bl2/io_stm32image.o
 .bss.first_lba_buffer
                0x000000002ffe7bbc      0x200 /home/ming/tf-a-stm32mp-2.2.r2-r0/tf-a-stm32mp-2.2.r2/../build/trusted/bl2/io_stm32image.o
 .bss.stm32_img
                0x000000002ffe7dbc        0x4 /home/ming/tf-a-stm32mp-2.2.r2-r0/tf-a-stm32mp-2.2.r2/../build/trusted/bl2/io_stm32image.o
 .bss.backup_nb.7497
                0x000000002ffe7dc0        0x4 /home/ming/tf-a-stm32mp-2.2.r2-r0/tf-a-stm32mp-2.2.r2/../build/trusted/bl2/bl2_io_storage.o
 .bss.dummy_dev_con
                0x000000002ffe7dc4        0x4 /home/ming/tf-a-stm32mp-2.2.r2-r0/tf-a-stm32mp-2.2.r2/../build/trusted/bl2/bl2_io_storage.o
 .bss.dummy_dev_handle
                0x000000002ffe7dc8        0x4 /home/ming/tf-a-stm32mp-2.2.r2-r0/tf-a-stm32mp-2.2.r2/../build/trusted/bl2/bl2_io_storage.o
 .bss.image_dev_handle
                0x000000002ffe7dcc        0x4 /home/ming/tf-a-stm32mp-2.2.r2-r0/tf-a-stm32mp-2.2.r2/../build/trusted/bl2/bl2_io_storage.o
 .bss.mmc_dev_con
                0x000000002ffe7dd0        0x4 /home/ming/tf-a-stm32mp-2.2.r2-r0/tf-a-stm32mp-2.2.r2/../build/trusted/bl2/bl2_io_storage.o
 .bss.nand_dev_con
                0x000000002ffe7dd4        0x4 /home/ming/tf-a-stm32mp-2.2.r2-r0/tf-a-stm32mp-2.2.r2/../build/trusted/bl2/bl2_io_storage.o
 .bss.spi_dev_con
                0x000000002ffe7dd8        0x4 /home/ming/tf-a-stm32mp-2.2.r2-r0/tf-a-stm32mp-2.2.r2/../build/trusted/bl2/bl2_io_storage.o
 .bss.stm32image_block_spec
                0x000000002ffe7ddc        0x8 /home/ming/tf-a-stm32mp-2.2.r2-r0/tf-a-stm32mp-2.2.r2/../build/trusted/bl2/bl2_io_storage.o
 .bss.stm32image_dev_con
                0x000000002ffe7de4        0x4 /home/ming/tf-a-stm32mp-2.2.r2-r0/tf-a-stm32mp-2.2.r2/../build/trusted/bl2/bl2_io_storage.o
 .bss.storage_dev_handle
                0x000000002ffe7de8        0x4 /home/ming/tf-a-stm32mp-2.2.r2-r0/tf-a-stm32mp-2.2.r2/../build/trusted/bl2/bl2_io_storage.o
 .bss.console   0x000000002ffe7dec       0x18 /home/ming/tf-a-stm32mp-2.2.r2-r0/tf-a-stm32mp-2.2.r2/../build/trusted/bl2/bl2_plat_setup.o
 .bss.parser_lib_descs
                0x000000002ffe7e04        0x4 /home/ming/tf-a-stm32mp-2.2.r2-r0/tf-a-stm32mp-2.2.r2/../build/trusted/bl2/img_parser_mod.o
 .bss.parser_lib_indices
                0x000000002ffe7e08        0xc /home/ming/tf-a-stm32mp-2.2.r2-r0/tf-a-stm32mp-2.2.r2/../build/trusted/bl2/img_parser_mod.o
 .bss.auth_ops  0x000000002ffe7e14        0x8 /home/ming/tf-a-stm32mp-2.2.r2-r0/tf-a-stm32mp-2.2.r2/../build/trusted/bl2/stm32mp_crypto_lib.o
 .bss.root_pk_hash
                0x000000002ffe7e1c       0x20 /home/ming/tf-a-stm32mp-2.2.r2-r0/tf-a-stm32mp-2.2.r2/../build/trusted/bl2/stm32mp_trusted_boot.o
 .bss.mmc_csd   0x000000002ffe7e3c       0x10 /home/ming/tf-a-stm32mp-2.2.r2-r0/tf-a-stm32mp-2.2.r2/../build/trusted/bl2/mmc.o
 .bss.mmc_dev_info
                0x000000002ffe7e4c        0x4 /home/ming/tf-a-stm32mp-2.2.r2-r0/tf-a-stm32mp-2.2.r2/../build/trusted/bl2/mmc.o
 .bss.mmc_flags
                0x000000002ffe7e50        0x4 /home/ming/tf-a-stm32mp-2.2.r2-r0/tf-a-stm32mp-2.2.r2/../build/trusted/bl2/mmc.o
 .bss.mmc_ocr_value
                0x000000002ffe7e54        0x4 /home/ming/tf-a-stm32mp-2.2.r2-r0/tf-a-stm32mp-2.2.r2/../build/trusted/bl2/mmc.o
 .bss.ops       0x000000002ffe7e58        0x4 /home/ming/tf-a-stm32mp-2.2.r2-r0/tf-a-stm32mp-2.2.r2/../build/trusted/bl2/mmc.o
 .bss.rca       0x000000002ffe7e5c        0x4 /home/ming/tf-a-stm32mp-2.2.r2-r0/tf-a-stm32mp-2.2.r2/../build/trusted/bl2/mmc.o
 .bss.sdmmc2_params
                0x000000002ffe7e60       0x3c /home/ming/tf-a-stm32mp-2.2.r2-r0/tf-a-stm32mp-2.2.r2/../build/trusted/bl2/stm32_sdmmc2.o
 .bss.rawnand_dev
                0x000000002ffe7e9c        0x8 /home/ming/tf-a-stm32mp-2.2.r2-r0/tf-a-stm32mp-2.2.r2/../build/trusted/bl2/raw_nand.o
 .bss.stm32_fmc2
                0x000000002ffe7ea4       0x28 /home/ming/tf-a-stm32mp-2.2.r2-r0/tf-a-stm32mp-2.2.r2/../build/trusted/bl2/stm32_fmc2_nand.o
 .bss.spi_slave
                0x000000002ffe7ecc       0x10 /home/ming/tf-a-stm32mp-2.2.r2-r0/tf-a-stm32mp-2.2.r2/../build/trusted/bl2/spi_mem.o
 .bss.stm32_qspi
                0x000000002ffe7edc       0x14 /home/ming/tf-a-stm32mp-2.2.r2-r0/tf-a-stm32mp-2.2.r2/../build/trusted/bl2/stm32_qspi.o
 .bss.bl_load_info
                0x000000002ffe7ef0        0xc /home/ming/tf-a-stm32mp-2.2.r2-r0/tf-a-stm32mp-2.2.r2/../build/trusted/bl2/desc_image_load.o
 .bss.next_bl_params
                0x000000002ffe7efc        0xc /home/ming/tf-a-stm32mp-2.2.r2-r0/tf-a-stm32mp-2.2.r2/../build/trusted/bl2/desc_image_load.o
 .bss.boot_ctx_address
                0x000000002ffe7f08        0x4 /home/ming/tf-a-stm32mp-2.2.r2-r0/tf-a-stm32mp-2.2.r2/../build/trusted/bl2/stm32mp_common.o
 .bss.latest_stm32_header
                0x000000002ffe7f0c        0x4 /home/ming/tf-a-stm32mp-2.2.r2-r0/tf-a-stm32mp-2.2.r2/../build/trusted/bl2/stm32mp_common.o
 .bss.part_number.7253
                0x000000002ffe7f10        0x4 /home/ming/tf-a-stm32mp-2.2.r2-r0/tf-a-stm32mp-2.2.r2/../build/trusted/bl2/stm32mp1_private.o
 .bss.tf_mapped_regions
                0x000000002ffe7f14       0x10 /home/ming/tf-a-stm32mp-2.2.r2-r0/tf-a-stm32mp-2.2.r2/../build/trusted/bl2/xlat_tables_context.o
 .bss.tzc400    0x000000002ffe7f24        0x8 /home/ming/tf-a-stm32mp-2.2.r2-r0/tf-a-stm32mp-2.2.r2/../build/trusted/bl2/tzc400.o
 .bss.timer_ops
                0x000000002ffe7f2c        0x4 /home/ming/tf-a-stm32mp-2.2.r2-r0/tf-a-stm32mp-2.2.r2/../build/trusted/bl2/delay_timer.o
 .bss.ops       0x000000002ffe7f30        0xc /home/ming/tf-a-stm32mp-2.2.r2-r0/tf-a-stm32mp-2.2.r2/../build/trusted/bl2/generic_delay_timer.o
 .bss.bsec_base
                0x000000002ffe7f3c        0x4 /home/ming/tf-a-stm32mp-2.2.r2-r0/tf-a-stm32mp-2.2.r2/../build/trusted/bl2/bsec2.o
 .bss.bsec_spinlock
                0x000000002ffe7f40        0x4 /home/ming/tf-a-stm32mp-2.2.r2-r0/tf-a-stm32mp-2.2.r2/../build/trusted/bl2/bsec2.o
 .bss.current_opp_khz
                0x000000002ffe7f44        0x4 /home/ming/tf-a-stm32mp-2.2.r2-r0/tf-a-stm32mp-2.2.r2/../build/trusted/bl2/stm32mp1_clk.o
 .bss.gate_refcounts
                0x000000002ffe7f48       0xdc /home/ming/tf-a-stm32mp-2.2.r2-r0/tf-a-stm32mp-2.2.r2/../build/trusted/bl2/stm32mp1_clk.o
 .bss.pll1_settings
                0x000000002ffe8024       0x4c /home/ming/tf-a-stm32mp-2.2.r2-r0/tf-a-stm32mp-2.2.r2/../build/trusted/bl2/stm32mp1_clk.o
 .bss.refcount_lock
                0x000000002ffe8070        0x4 /home/ming/tf-a-stm32mp-2.2.r2-r0/tf-a-stm32mp-2.2.r2/../build/trusted/bl2/stm32mp1_clk.o
 .bss.reg_lock  0x000000002ffe8074        0x4 /home/ming/tf-a-stm32mp-2.2.r2-r0/tf-a-stm32mp-2.2.r2/../build/trusted/bl2/stm32mp1_clk.o
 .bss.stm32mp1_osc
                0x000000002ffe8078       0x18 /home/ming/tf-a-stm32mp-2.2.r2-r0/tf-a-stm32mp-2.2.r2/../build/trusted/bl2/stm32mp1_clk.o
 .bss.stm32_iwdg
                0x000000002ffe8090       0x20 /home/ming/tf-a-stm32mp-2.2.r2-r0/tf-a-stm32mp-2.2.r2/../build/trusted/bl2/stm32_iwdg.o
 .bss.i2c_handle
                0x000000002ffe80b0       0x24 /home/ming/tf-a-stm32mp-2.2.r2-r0/tf-a-stm32mp-2.2.r2/../build/trusted/bl2/stm32mp_pmic.o
 .bss.pmic_i2c_addr
                0x000000002ffe80d4        0x4 /home/ming/tf-a-stm32mp-2.2.r2-r0/tf-a-stm32mp-2.2.r2/../build/trusted/bl2/stm32mp_pmic.o
 .bss.pmic_i2c_handle
                0x000000002ffe80d8        0x4 /home/ming/tf-a-stm32mp-2.2.r2-r0/tf-a-stm32mp-2.2.r2/../build/trusted/bl2/stpmic1.o
 .bss.fdt_checked
                0x000000002ffe80dc        0x4 /home/ming/tf-a-stm32mp-2.2.r2-r0/tf-a-stm32mp-2.2.r2/../build/trusted/bl2/stm32mp_dt.o
 .bss.shregs_lock
                0x000000002ffe80e0        0x4 /home/ming/tf-a-stm32mp-2.2.r2-r0/tf-a-stm32mp-2.2.r2/../build/trusted/bl2/stm32mp_shres_helpers.o
 .bss.sd_switch_func_status
                0x000000002ffe80e4       0x40 /home/ming/tf-a-stm32mp-2.2.r2-r0/tf-a-stm32mp-2.2.r2/../build/trusted/bl2/mmc.o
 .bss.pmic_i2c_addr
                0x000000002ffe8124        0x2 /home/ming/tf-a-stm32mp-2.2.r2-r0/tf-a-stm32mp-2.2.r2/../build/trusted/bl2/stpmic1.o
 .bss.wakeup_standby
                0x000000002ffe8126        0x1 /home/ming/tf-a-stm32mp-2.2.r2-r0/tf-a-stm32mp-2.2.r2/../build/trusted/bl2/bl2_plat_setup.o
 .bss.mbr_sector
                0x000000002ffe8127      0x200 /home/ming/tf-a-stm32mp-2.2.r2-r0/tf-a-stm32mp-2.2.r2/../build/trusted/bl2/partition.o
 .bss.next_cmd_is_acmd
                0x000000002ffe8327        0x1 /home/ming/tf-a-stm32mp-2.2.r2-r0/tf-a-stm32mp-2.2.r2/../build/trusted/bl2/stm32_sdmmc2.o
 .bss.scratch_buff
                0x000000002ffe8328     0x1000 /home/ming/tf-a-stm32mp-2.2.r2-r0/tf-a-stm32mp-2.2.r2/../build/trusted/bl2/core.o
 *(COMMON)
 COMMON         0x000000002ffe9328       0x78 /home/ming/tf-a-stm32mp-2.2.r2-r0/tf-a-stm32mp-2.2.r2/../build/trusted/bl2/stm32mp_cot.o
                0x000000002ffe9328                auth_img_flags
 COMMON         0x000000002ffe93a0        0x4 /home/ming/tf-a-stm32mp-2.2.r2-r0/tf-a-stm32mp-2.2.r2/../build/trusted/bl2/multi_console.o
                0x000000002ffe93a0                console_list
 *fill*         0x000000002ffe93a4        0x4 
 COMMON         0x000000002ffe93a8       0x18 /home/ming/tf-a-stm32mp-2.2.r2-r0/tf-a-stm32mp-2.2.r2/../build/trusted/bl2/xlat_tables_context.o
                0x000000002ffe93a8                mmu_cfg_params
                0x000000002ffe93c0                __BSS_END__ = .

xlat_table
 *(xlat_table)
                0x000000002ffe93c0                __RW_END__ = .
                0x000000002ffe93c0                __BL2_END__ = .
                0x00000000000025c0                __BSS_SIZE__ = SIZEOF (.bss)
                0x0000000000000001                ASSERT ((. <= 0x2ffeb000), BL2 image has exceeded its limit.)
LOAD /home/ming/tf-a-stm32mp-2.2.r2-r0/tf-a-stm32mp-2.2.r2/../build/trusted/bl2/build_message.o
LOAD /home/ming/tf-a-stm32mp-2.2.r2-r0/tf-a-stm32mp-2.2.r2/../build/trusted/bl2/io_block.o
LOAD /home/ming/tf-a-stm32mp-2.2.r2-r0/tf-a-stm32mp-2.2.r2/../build/trusted/bl2/io_dummy.o
LOAD /home/ming/tf-a-stm32mp-2.2.r2-r0/tf-a-stm32mp-2.2.r2/../build/trusted/bl2/io_mtd.o
LOAD /home/ming/tf-a-stm32mp-2.2.r2-r0/tf-a-stm32mp-2.2.r2/../build/trusted/bl2/io_storage.o
LOAD /home/ming/tf-a-stm32mp-2.2.r2-r0/tf-a-stm32mp-2.2.r2/../build/trusted/bl2/stm32_hash.o
LOAD /home/ming/tf-a-stm32mp-2.2.r2-r0/tf-a-stm32mp-2.2.r2/../build/trusted/bl2/io_stm32image.o
LOAD /home/ming/tf-a-stm32mp-2.2.r2-r0/tf-a-stm32mp-2.2.r2/../build/trusted/bl2/bl2_io_storage.o
LOAD /home/ming/tf-a-stm32mp-2.2.r2-r0/tf-a-stm32mp-2.2.r2/../build/trusted/bl2/bl2_plat_setup.o
LOAD /home/ming/tf-a-stm32mp-2.2.r2-r0/tf-a-stm32mp-2.2.r2/../build/trusted/bl2/auth_mod.o
LOAD /home/ming/tf-a-stm32mp-2.2.r2-r0/tf-a-stm32mp-2.2.r2/../build/trusted/bl2/crypto_mod.o
LOAD /home/ming/tf-a-stm32mp-2.2.r2-r0/tf-a-stm32mp-2.2.r2/../build/trusted/bl2/img_parser_mod.o
LOAD /home/ming/tf-a-stm32mp-2.2.r2-r0/tf-a-stm32mp-2.2.r2/../build/trusted/bl2/stm32mp_cot.o
LOAD /home/ming/tf-a-stm32mp-2.2.r2-r0/tf-a-stm32mp-2.2.r2/../build/trusted/bl2/stm32mp_crypto_lib.o
LOAD /home/ming/tf-a-stm32mp-2.2.r2-r0/tf-a-stm32mp-2.2.r2/../build/trusted/bl2/stm32mp_img_parser_lib.o
LOAD /home/ming/tf-a-stm32mp-2.2.r2-r0/tf-a-stm32mp-2.2.r2/../build/trusted/bl2/stm32mp_trusted_boot.o
LOAD /home/ming/tf-a-stm32mp-2.2.r2-r0/tf-a-stm32mp-2.2.r2/../build/trusted/bl2/mmc.o
LOAD /home/ming/tf-a-stm32mp-2.2.r2-r0/tf-a-stm32mp-2.2.r2/../build/trusted/bl2/gpt.o
LOAD /home/ming/tf-a-stm32mp-2.2.r2-r0/tf-a-stm32mp-2.2.r2/../build/trusted/bl2/partition.o
LOAD /home/ming/tf-a-stm32mp-2.2.r2-r0/tf-a-stm32mp-2.2.r2/../build/trusted/bl2/io_mmc.o
LOAD /home/ming/tf-a-stm32mp-2.2.r2-r0/tf-a-stm32mp-2.2.r2/../build/trusted/bl2/stm32_sdmmc2.o
LOAD /home/ming/tf-a-stm32mp-2.2.r2-r0/tf-a-stm32mp-2.2.r2/../build/trusted/bl2/raw_nand.o
LOAD /home/ming/tf-a-stm32mp-2.2.r2-r0/tf-a-stm32mp-2.2.r2/../build/trusted/bl2/stm32_fmc2_nand.o
LOAD /home/ming/tf-a-stm32mp-2.2.r2-r0/tf-a-stm32mp-2.2.r2/../build/trusted/bl2/spi_nand.o
LOAD /home/ming/tf-a-stm32mp-2.2.r2-r0/tf-a-stm32mp-2.2.r2/../build/trusted/bl2/spi_nor.o
LOAD /home/ming/tf-a-stm32mp-2.2.r2-r0/tf-a-stm32mp-2.2.r2/../build/trusted/bl2/spi_mem.o
LOAD /home/ming/tf-a-stm32mp-2.2.r2-r0/tf-a-stm32mp-2.2.r2/../build/trusted/bl2/stm32_qspi.o
LOAD /home/ming/tf-a-stm32mp-2.2.r2-r0/tf-a-stm32mp-2.2.r2/../build/trusted/bl2/core.o
LOAD /home/ming/tf-a-stm32mp-2.2.r2-r0/tf-a-stm32mp-2.2.r2/../build/trusted/bl2/stm32mp1_boot_device.o
LOAD /home/ming/tf-a-stm32mp-2.2.r2-r0/tf-a-stm32mp-2.2.r2/../build/trusted/bl2/stm32mp1_ddr.o
LOAD /home/ming/tf-a-stm32mp-2.2.r2-r0/tf-a-stm32mp-2.2.r2/../build/trusted/bl2/stm32mp1_ram.o
LOAD /home/ming/tf-a-stm32mp-2.2.r2-r0/tf-a-stm32mp-2.2.r2/../build/trusted/bl2/desc_image_load.o
LOAD /home/ming/tf-a-stm32mp-2.2.r2-r0/tf-a-stm32mp-2.2.r2/../build/trusted/bl2/plat_bl2_mem_params_desc.o
LOAD /home/ming/tf-a-stm32mp-2.2.r2-r0/tf-a-stm32mp-2.2.r2/../build/trusted/bl2/plat_image_load.o
LOAD /home/ming/tf-a-stm32mp-2.2.r2-r0/tf-a-stm32mp-2.2.r2/../build/trusted/bl2/bl2_image_load_v2.o
LOAD /home/ming/tf-a-stm32mp-2.2.r2-r0/tf-a-stm32mp-2.2.r2/../build/trusted/bl2/bl2_main.o
LOAD /home/ming/tf-a-stm32mp-2.2.r2-r0/tf-a-stm32mp-2.2.r2/../build/trusted/bl2/bl2_arch_setup.o
LOAD /home/ming/tf-a-stm32mp-2.2.r2-r0/tf-a-stm32mp-2.2.r2/../build/trusted/bl2/errata_report.o
LOAD /home/ming/tf-a-stm32mp-2.2.r2-r0/tf-a-stm32mp-2.2.r2/../build/trusted/bl2/bl_common.o
LOAD /home/ming/tf-a-stm32mp-2.2.r2-r0/tf-a-stm32mp-2.2.r2/../build/trusted/bl2/tf_log.o
LOAD /home/ming/tf-a-stm32mp-2.2.r2-r0/tf-a-stm32mp-2.2.r2/../build/trusted/bl2/multi_console.o
LOAD /home/ming/tf-a-stm32mp-2.2.r2-r0/tf-a-stm32mp-2.2.r2/../build/trusted/bl2/plat_bl_common.o
LOAD /home/ming/tf-a-stm32mp-2.2.r2-r0/tf-a-stm32mp-2.2.r2/../build/trusted/bl2/plat_log_common.o
LOAD /home/ming/tf-a-stm32mp-2.2.r2-r0/tf-a-stm32mp-2.2.r2/../build/trusted/bl2/plat_common.o
LOAD /home/ming/tf-a-stm32mp-2.2.r2-r0/tf-a-stm32mp-2.2.r2/../build/trusted/bl2/popcountdi2.o
LOAD /home/ming/tf-a-stm32mp-2.2.r2-r0/tf-a-stm32mp-2.2.r2/../build/trusted/bl2/popcountsi2.o
LOAD /home/ming/tf-a-stm32mp-2.2.r2-r0/tf-a-stm32mp-2.2.r2/../build/trusted/bl2/ctzdi2.o
LOAD /home/ming/tf-a-stm32mp-2.2.r2-r0/tf-a-stm32mp-2.2.r2/../build/trusted/bl2/divdi3.o
LOAD /home/ming/tf-a-stm32mp-2.2.r2-r0/tf-a-stm32mp-2.2.r2/../build/trusted/bl2/divmoddi4.o
LOAD /home/ming/tf-a-stm32mp-2.2.r2-r0/tf-a-stm32mp-2.2.r2/../build/trusted/bl2/lshrdi3.o
LOAD /home/ming/tf-a-stm32mp-2.2.r2-r0/tf-a-stm32mp-2.2.r2/../build/trusted/bl2/udivmoddi4.o
LOAD /home/ming/tf-a-stm32mp-2.2.r2-r0/tf-a-stm32mp-2.2.r2/../build/trusted/bl2/stm32mp_common.o
LOAD /home/ming/tf-a-stm32mp-2.2.r2-r0/tf-a-stm32mp-2.2.r2/../build/trusted/bl2/stm32mp1_private.o
LOAD /home/ming/tf-a-stm32mp-2.2.r2-r0/tf-a-stm32mp-2.2.r2/../build/trusted/bl2/xlat_tables_arch.o
LOAD /home/ming/tf-a-stm32mp-2.2.r2-r0/tf-a-stm32mp-2.2.r2/../build/trusted/bl2/xlat_tables_context.o
LOAD /home/ming/tf-a-stm32mp-2.2.r2-r0/tf-a-stm32mp-2.2.r2/../build/trusted/bl2/xlat_tables_core.o
LOAD /home/ming/tf-a-stm32mp-2.2.r2-r0/tf-a-stm32mp-2.2.r2/../build/trusted/bl2/xlat_tables_utils.o
LOAD /home/ming/tf-a-stm32mp-2.2.r2-r0/tf-a-stm32mp-2.2.r2/../build/trusted/bl2/tzc400.o
LOAD /home/ming/tf-a-stm32mp-2.2.r2-r0/tf-a-stm32mp-2.2.r2/../build/trusted/bl2/delay_timer.o
LOAD /home/ming/tf-a-stm32mp-2.2.r2-r0/tf-a-stm32mp-2.2.r2/../build/trusted/bl2/generic_delay_timer.o
LOAD /home/ming/tf-a-stm32mp-2.2.r2-r0/tf-a-stm32mp-2.2.r2/../build/trusted/bl2/bsec2.o
LOAD /home/ming/tf-a-stm32mp-2.2.r2-r0/tf-a-stm32mp-2.2.r2/../build/trusted/bl2/stm32mp_clkfunc.o
LOAD /home/ming/tf-a-stm32mp-2.2.r2-r0/tf-a-stm32mp-2.2.r2/../build/trusted/bl2/stm32mp1_clk.o
LOAD /home/ming/tf-a-stm32mp-2.2.r2-r0/tf-a-stm32mp-2.2.r2/../build/trusted/bl2/stm32mp1_ddr_helpers.o
LOAD /home/ming/tf-a-stm32mp-2.2.r2-r0/tf-a-stm32mp-2.2.r2/../build/trusted/bl2/stm32_gpio.o
LOAD /home/ming/tf-a-stm32mp-2.2.r2-r0/tf-a-stm32mp-2.2.r2/../build/trusted/bl2/stm32_i2c.o
LOAD /home/ming/tf-a-stm32mp-2.2.r2-r0/tf-a-stm32mp-2.2.r2/../build/trusted/bl2/stm32_iwdg.o
LOAD /home/ming/tf-a-stm32mp-2.2.r2-r0/tf-a-stm32mp-2.2.r2/../build/trusted/bl2/stm32mp_pmic.o
LOAD /home/ming/tf-a-stm32mp-2.2.r2-r0/tf-a-stm32mp-2.2.r2/../build/trusted/bl2/stpmic1.o
LOAD /home/ming/tf-a-stm32mp-2.2.r2-r0/tf-a-stm32mp-2.2.r2/../build/trusted/bl2/stm32mp_dummy_regulator.o
LOAD /home/ming/tf-a-stm32mp-2.2.r2-r0/tf-a-stm32mp-2.2.r2/../build/trusted/bl2/stm32mp_regulator.o
LOAD /home/ming/tf-a-stm32mp-2.2.r2-r0/tf-a-stm32mp-2.2.r2/../build/trusted/bl2/stm32mp1_reset.o
LOAD /home/ming/tf-a-stm32mp-2.2.r2-r0/tf-a-stm32mp-2.2.r2/../build/trusted/bl2/stm32mp_dt.o
LOAD /home/ming/tf-a-stm32mp-2.2.r2-r0/tf-a-stm32mp-2.2.r2/../build/trusted/bl2/stm32mp_shres_helpers.o
LOAD /home/ming/tf-a-stm32mp-2.2.r2-r0/tf-a-stm32mp-2.2.r2/../build/trusted/bl2/stm32mp1_context.o
LOAD /home/ming/tf-a-stm32mp-2.2.r2-r0/tf-a-stm32mp-2.2.r2/../build/trusted/bl2/stm32mp1_dbgmcu.o
LOAD /home/ming/tf-a-stm32mp-2.2.r2-r0/tf-a-stm32mp-2.2.r2/../build/trusted/bl2/stm32mp1_security.o
LOAD /home/ming/tf-a-stm32mp-2.2.r2-r0/tf-a-stm32mp-2.2.r2/../build/trusted/bl2/stm32mp1_syscfg.o
LOAD /home/ming/tf-a-stm32mp-2.2.r2-r0/tf-a-stm32mp-2.2.r2/../build/trusted/bl2/spinlock.o
LOAD /home/ming/tf-a-stm32mp-2.2.r2-r0/tf-a-stm32mp-2.2.r2/../build/trusted/bl2/platform_up_stack.o
LOAD /home/ming/tf-a-stm32mp-2.2.r2-r0/tf-a-stm32mp-2.2.r2/../build/trusted/bl2/bl2_el3_entrypoint.o
LOAD /home/ming/tf-a-stm32mp-2.2.r2-r0/tf-a-stm32mp-2.2.r2/../build/trusted/bl2/bl2_el3_exceptions.o
LOAD /home/ming/tf-a-stm32mp-2.2.r2-r0/tf-a-stm32mp-2.2.r2/../build/trusted/bl2/cpu_helpers.o
LOAD /home/ming/tf-a-stm32mp-2.2.r2-r0/tf-a-stm32mp-2.2.r2/../build/trusted/bl2/debug.o
LOAD /home/ming/tf-a-stm32mp-2.2.r2-r0/tf-a-stm32mp-2.2.r2/../build/trusted/bl2/cache_helpers.o
LOAD /home/ming/tf-a-stm32mp-2.2.r2-r0/tf-a-stm32mp-2.2.r2/../build/trusted/bl2/misc_helpers.o
LOAD /home/ming/tf-a-stm32mp-2.2.r2-r0/tf-a-stm32mp-2.2.r2/../build/trusted/bl2/platform_helpers.o
LOAD /home/ming/tf-a-stm32mp-2.2.r2-r0/tf-a-stm32mp-2.2.r2/../build/trusted/bl2/aeabi_ldivmod.o
LOAD /home/ming/tf-a-stm32mp-2.2.r2-r0/tf-a-stm32mp-2.2.r2/../build/trusted/bl2/aeabi_uldivmod.o
LOAD /home/ming/tf-a-stm32mp-2.2.r2-r0/tf-a-stm32mp-2.2.r2/../build/trusted/bl2/stm32_console.o
LOAD /home/ming/tf-a-stm32mp-2.2.r2-r0/tf-a-stm32mp-2.2.r2/../build/trusted/bl2/enable_mmu.o
LOAD /home/ming/tf-a-stm32mp-2.2.r2-r0/tf-a-stm32mp-2.2.r2/../build/trusted/bl2/cortex_a7.o
LOAD /home/ming/tf-a-stm32mp-2.2.r2-r0/tf-a-stm32mp-2.2.r2/../build/trusted/bl2/stm32mp1_helper.o
LOAD /home/ming/tf-a-stm32mp-2.2.r2-r0/tf-a-stm32mp-2.2.r2/../build/trusted/lib/libfdt.a
LOAD /home/ming/tf-a-stm32mp-2.2.r2-r0/tf-a-stm32mp-2.2.r2/../build/trusted/lib/libc.a
OUTPUT(/home/ming/tf-a-stm32mp-2.2.r2-r0/tf-a-stm32mp-2.2.r2/../build/trusted/bl2/bl2.elf elf32-littlearm)

.debug_info     0x0000000000000000    0x40ff0
 .debug_info    0x0000000000000000       0x79 /home/ming/tf-a-stm32mp-2.2.r2-r0/tf-a-stm32mp-2.2.r2/../build/trusted/bl2/build_message.o
 .debug_info    0x0000000000000079      0xe07 /home/ming/tf-a-stm32mp-2.2.r2-r0/tf-a-stm32mp-2.2.r2/../build/trusted/bl2/io_block.o
 .debug_info    0x0000000000000e80      0x8b7 /home/ming/tf-a-stm32mp-2.2.r2-r0/tf-a-stm32mp-2.2.r2/../build/trusted/bl2/io_dummy.o
 .debug_info    0x0000000000001737      0xb35 /home/ming/tf-a-stm32mp-2.2.r2-r0/tf-a-stm32mp-2.2.r2/../build/trusted/bl2/io_mtd.o
 .debug_info    0x000000000000226c      0xefb /home/ming/tf-a-stm32mp-2.2.r2-r0/tf-a-stm32mp-2.2.r2/../build/trusted/bl2/io_storage.o
 .debug_info    0x0000000000003167      0xe82 /home/ming/tf-a-stm32mp-2.2.r2-r0/tf-a-stm32mp-2.2.r2/../build/trusted/bl2/stm32_hash.o
 .debug_info    0x0000000000003fe9      0xdd6 /home/ming/tf-a-stm32mp-2.2.r2-r0/tf-a-stm32mp-2.2.r2/../build/trusted/bl2/io_stm32image.o
 .debug_info    0x0000000000004dbf     0x163c /home/ming/tf-a-stm32mp-2.2.r2-r0/tf-a-stm32mp-2.2.r2/../build/trusted/bl2/bl2_io_storage.o
 .debug_info    0x00000000000063fb     0x176f /home/ming/tf-a-stm32mp-2.2.r2-r0/tf-a-stm32mp-2.2.r2/../build/trusted/bl2/bl2_plat_setup.o
 .debug_info    0x0000000000007b6a      0xde8 /home/ming/tf-a-stm32mp-2.2.r2-r0/tf-a-stm32mp-2.2.r2/../build/trusted/bl2/auth_mod.o
 .debug_info    0x0000000000008952      0x399 /home/ming/tf-a-stm32mp-2.2.r2-r0/tf-a-stm32mp-2.2.r2/../build/trusted/bl2/crypto_mod.o
 .debug_info    0x0000000000008ceb      0x511 /home/ming/tf-a-stm32mp-2.2.r2-r0/tf-a-stm32mp-2.2.r2/../build/trusted/bl2/img_parser_mod.o
 .debug_info    0x00000000000091fc      0x514 /home/ming/tf-a-stm32mp-2.2.r2-r0/tf-a-stm32mp-2.2.r2/../build/trusted/bl2/stm32mp_cot.o
 .debug_info    0x0000000000009710      0xabf /home/ming/tf-a-stm32mp-2.2.r2-r0/tf-a-stm32mp-2.2.r2/../build/trusted/bl2/stm32mp_crypto_lib.o
 .debug_info    0x000000000000a1cf      0x4eb /home/ming/tf-a-stm32mp-2.2.r2-r0/tf-a-stm32mp-2.2.r2/../build/trusted/bl2/stm32mp_img_parser_lib.o
 .debug_info    0x000000000000a6ba      0x37a /home/ming/tf-a-stm32mp-2.2.r2-r0/tf-a-stm32mp-2.2.r2/../build/trusted/bl2/stm32mp_trusted_boot.o
 .debug_info    0x000000000000aa34     0x19ff /home/ming/tf-a-stm32mp-2.2.r2-r0/tf-a-stm32mp-2.2.r2/../build/trusted/bl2/mmc.o
 .debug_info    0x000000000000c433      0x361 /home/ming/tf-a-stm32mp-2.2.r2-r0/tf-a-stm32mp-2.2.r2/../build/trusted/bl2/gpt.o
 .debug_info    0x000000000000c794      0xad9 /home/ming/tf-a-stm32mp-2.2.r2-r0/tf-a-stm32mp-2.2.r2/../build/trusted/bl2/partition.o
 .debug_info    0x000000000000d26d      0x78c /home/ming/tf-a-stm32mp-2.2.r2-r0/tf-a-stm32mp-2.2.r2/../build/trusted/bl2/io_mmc.o
 .debug_info    0x000000000000d9f9     0x1e5b /home/ming/tf-a-stm32mp-2.2.r2-r0/tf-a-stm32mp-2.2.r2/../build/trusted/bl2/stm32_sdmmc2.o
 .debug_info    0x000000000000f854     0x1332 /home/ming/tf-a-stm32mp-2.2.r2-r0/tf-a-stm32mp-2.2.r2/../build/trusted/bl2/raw_nand.o
 .debug_info    0x0000000000010b86     0x1f1c /home/ming/tf-a-stm32mp-2.2.r2-r0/tf-a-stm32mp-2.2.r2/../build/trusted/bl2/stm32_fmc2_nand.o
 .debug_info    0x0000000000012aa2      0xe92 /home/ming/tf-a-stm32mp-2.2.r2-r0/tf-a-stm32mp-2.2.r2/../build/trusted/bl2/spi_nand.o
 .debug_info    0x0000000000013934      0xc67 /home/ming/tf-a-stm32mp-2.2.r2-r0/tf-a-stm32mp-2.2.r2/../build/trusted/bl2/spi_nor.o
 .debug_info    0x000000000001459b      0x85d /home/ming/tf-a-stm32mp-2.2.r2-r0/tf-a-stm32mp-2.2.r2/../build/trusted/bl2/spi_mem.o
 .debug_info    0x0000000000014df8     0x15d5 /home/ming/tf-a-stm32mp-2.2.r2-r0/tf-a-stm32mp-2.2.r2/../build/trusted/bl2/stm32_qspi.o
 .debug_info    0x00000000000163cd      0x446 /home/ming/tf-a-stm32mp-2.2.r2-r0/tf-a-stm32mp-2.2.r2/../build/trusted/bl2/core.o
 .debug_info    0x0000000000016813      0x663 /home/ming/tf-a-stm32mp-2.2.r2-r0/tf-a-stm32mp-2.2.r2/../build/trusted/bl2/stm32mp1_boot_device.o
 .debug_info    0x0000000000016e76     0x3c07 /home/ming/tf-a-stm32mp-2.2.r2-r0/tf-a-stm32mp-2.2.r2/../build/trusted/bl2/stm32mp1_ddr.o
 .debug_info    0x000000000001aa7d     0x1d3f /home/ming/tf-a-stm32mp-2.2.r2-r0/tf-a-stm32mp-2.2.r2/../build/trusted/bl2/stm32mp1_ram.o
 .debug_info    0x000000000001c7bc      0x8f0 /home/ming/tf-a-stm32mp-2.2.r2-r0/tf-a-stm32mp-2.2.r2/../build/trusted/bl2/desc_image_load.o
 .debug_info    0x000000000001d0ac      0x3ee /home/ming/tf-a-stm32mp-2.2.r2-r0/tf-a-stm32mp-2.2.r2/../build/trusted/bl2/plat_bl2_mem_params_desc.o
 .debug_info    0x000000000001d49a      0x92a /home/ming/tf-a-stm32mp-2.2.r2-r0/tf-a-stm32mp-2.2.r2/../build/trusted/bl2/plat_image_load.o
 .debug_info    0x000000000001ddc4      0x8f7 /home/ming/tf-a-stm32mp-2.2.r2-r0/tf-a-stm32mp-2.2.r2/../build/trusted/bl2/bl2_image_load_v2.o
 .debug_info    0x000000000001e6bb      0x71f /home/ming/tf-a-stm32mp-2.2.r2-r0/tf-a-stm32mp-2.2.r2/../build/trusted/bl2/bl2_main.o
 .debug_info    0x000000000001edda      0x10c /home/ming/tf-a-stm32mp-2.2.r2-r0/tf-a-stm32mp-2.2.r2/../build/trusted/bl2/bl2_arch_setup.o
 .debug_info    0x000000000001eee6      0xa16 /home/ming/tf-a-stm32mp-2.2.r2-r0/tf-a-stm32mp-2.2.r2/../build/trusted/bl2/bl_common.o
 .debug_info    0x000000000001f8fc      0x288 /home/ming/tf-a-stm32mp-2.2.r2-r0/tf-a-stm32mp-2.2.r2/../build/trusted/bl2/tf_log.o
 .debug_info    0x000000000001fb84      0x5ab /home/ming/tf-a-stm32mp-2.2.r2-r0/tf-a-stm32mp-2.2.r2/../build/trusted/bl2/multi_console.o
 .debug_info    0x000000000002012f      0x31a /home/ming/tf-a-stm32mp-2.2.r2-r0/tf-a-stm32mp-2.2.r2/../build/trusted/bl2/plat_bl_common.o
 .debug_info    0x0000000000020449      0x1bb /home/ming/tf-a-stm32mp-2.2.r2-r0/tf-a-stm32mp-2.2.r2/../build/trusted/bl2/plat_log_common.o
 .debug_info    0x0000000000020604       0xdc /home/ming/tf-a-stm32mp-2.2.r2-r0/tf-a-stm32mp-2.2.r2/../build/trusted/bl2/popcountsi2.o
 .debug_info    0x00000000000206e0      0x13c /home/ming/tf-a-stm32mp-2.2.r2-r0/tf-a-stm32mp-2.2.r2/../build/trusted/bl2/ctzdi2.o
 .debug_info    0x000000000002081c      0x1c7 /home/ming/tf-a-stm32mp-2.2.r2-r0/tf-a-stm32mp-2.2.r2/../build/trusted/bl2/udivmoddi4.o
 .debug_info    0x00000000000209e3      0x737 /home/ming/tf-a-stm32mp-2.2.r2-r0/tf-a-stm32mp-2.2.r2/../build/trusted/bl2/stm32mp_common.o
 .debug_info    0x000000000002111a     0x11a4 /home/ming/tf-a-stm32mp-2.2.r2-r0/tf-a-stm32mp-2.2.r2/../build/trusted/bl2/stm32mp1_private.o
 .debug_info    0x00000000000222be      0x8b6 /home/ming/tf-a-stm32mp-2.2.r2-r0/tf-a-stm32mp-2.2.r2/../build/trusted/bl2/xlat_tables_arch.o
 .debug_info    0x0000000000022b74      0x8e4 /home/ming/tf-a-stm32mp-2.2.r2-r0/tf-a-stm32mp-2.2.r2/../build/trusted/bl2/xlat_tables_context.o
 .debug_info    0x0000000000023458     0x15b9 /home/ming/tf-a-stm32mp-2.2.r2-r0/tf-a-stm32mp-2.2.r2/../build/trusted/bl2/xlat_tables_core.o
 .debug_info    0x0000000000024a11      0x97b /home/ming/tf-a-stm32mp-2.2.r2-r0/tf-a-stm32mp-2.2.r2/../build/trusted/bl2/xlat_tables_utils.o
 .debug_info    0x000000000002538c      0xfec /home/ming/tf-a-stm32mp-2.2.r2-r0/tf-a-stm32mp-2.2.r2/../build/trusted/bl2/tzc400.o
 .debug_info    0x0000000000026378      0x2da /home/ming/tf-a-stm32mp-2.2.r2-r0/tf-a-stm32mp-2.2.r2/../build/trusted/bl2/delay_timer.o
 .debug_info    0x0000000000026652      0x35d /home/ming/tf-a-stm32mp-2.2.r2-r0/tf-a-stm32mp-2.2.r2/../build/trusted/bl2/generic_delay_timer.o
 .debug_info    0x00000000000269af     0x16ca /home/ming/tf-a-stm32mp-2.2.r2-r0/tf-a-stm32mp-2.2.r2/../build/trusted/bl2/bsec2.o
 .debug_info    0x0000000000028079      0xfcb /home/ming/tf-a-stm32mp-2.2.r2-r0/tf-a-stm32mp-2.2.r2/../build/trusted/bl2/stm32mp_clkfunc.o
 .debug_info    0x0000000000029044     0x6543 /home/ming/tf-a-stm32mp-2.2.r2-r0/tf-a-stm32mp-2.2.r2/../build/trusted/bl2/stm32mp1_clk.o
 .debug_info    0x000000000002f587     0x3424 /home/ming/tf-a-stm32mp-2.2.r2-r0/tf-a-stm32mp-2.2.r2/../build/trusted/bl2/stm32mp1_ddr_helpers.o
 .debug_info    0x00000000000329ab      0xfb0 /home/ming/tf-a-stm32mp-2.2.r2-r0/tf-a-stm32mp-2.2.r2/../build/trusted/bl2/stm32_gpio.o
 .debug_info    0x000000000003395b     0x28db /home/ming/tf-a-stm32mp-2.2.r2-r0/tf-a-stm32mp-2.2.r2/../build/trusted/bl2/stm32_i2c.o
 .debug_info    0x0000000000036236      0x5ed /home/ming/tf-a-stm32mp-2.2.r2-r0/tf-a-stm32mp-2.2.r2/../build/trusted/bl2/stm32_iwdg.o
 .debug_info    0x0000000000036823     0x14b6 /home/ming/tf-a-stm32mp-2.2.r2-r0/tf-a-stm32mp-2.2.r2/../build/trusted/bl2/stm32mp_pmic.o
 .debug_info    0x0000000000037cd9      0xe45 /home/ming/tf-a-stm32mp-2.2.r2-r0/tf-a-stm32mp-2.2.r2/../build/trusted/bl2/stpmic1.o
 .debug_info    0x0000000000038b1e      0x133 /home/ming/tf-a-stm32mp-2.2.r2-r0/tf-a-stm32mp-2.2.r2/../build/trusted/bl2/stm32mp_dummy_regulator.o
 .debug_info    0x0000000000038c51      0x2e9 /home/ming/tf-a-stm32mp-2.2.r2-r0/tf-a-stm32mp-2.2.r2/../build/trusted/bl2/stm32mp_regulator.o
 .debug_info    0x0000000000038f3a      0x70c /home/ming/tf-a-stm32mp-2.2.r2-r0/tf-a-stm32mp-2.2.r2/../build/trusted/bl2/stm32mp1_reset.o
 .debug_info    0x0000000000039646     0x1611 /home/ming/tf-a-stm32mp-2.2.r2-r0/tf-a-stm32mp-2.2.r2/../build/trusted/bl2/stm32mp_dt.o
 .debug_info    0x000000000003ac57      0x4f1 /home/ming/tf-a-stm32mp-2.2.r2-r0/tf-a-stm32mp-2.2.r2/../build/trusted/bl2/stm32mp_shres_helpers.o
 .debug_info    0x000000000003b148      0xea3 /home/ming/tf-a-stm32mp-2.2.r2-r0/tf-a-stm32mp-2.2.r2/../build/trusted/bl2/stm32mp1_context.o
 .debug_info    0x000000000003bfeb      0x424 /home/ming/tf-a-stm32mp-2.2.r2-r0/tf-a-stm32mp-2.2.r2/../build/trusted/bl2/stm32mp1_dbgmcu.o
 .debug_info    0x000000000003c40f      0x378 /home/ming/tf-a-stm32mp-2.2.r2-r0/tf-a-stm32mp-2.2.r2/../build/trusted/bl2/stm32mp1_security.o
 .debug_info    0x000000000003c787      0x822 /home/ming/tf-a-stm32mp-2.2.r2-r0/tf-a-stm32mp-2.2.r2/../build/trusted/bl2/stm32mp1_syscfg.o
 .debug_info    0x000000000003cfa9       0x81 /home/ming/tf-a-stm32mp-2.2.r2-r0/tf-a-stm32mp-2.2.r2/../build/trusted/bl2/spinlock.o
 .debug_info    0x000000000003d02a       0x82 /home/ming/tf-a-stm32mp-2.2.r2-r0/tf-a-stm32mp-2.2.r2/../build/trusted/bl2/platform_up_stack.o
 .debug_info    0x000000000003d0ac       0x7b /home/ming/tf-a-stm32mp-2.2.r2-r0/tf-a-stm32mp-2.2.r2/../build/trusted/bl2/bl2_el3_entrypoint.o
 .debug_info    0x000000000003d127       0x7f /home/ming/tf-a-stm32mp-2.2.r2-r0/tf-a-stm32mp-2.2.r2/../build/trusted/bl2/bl2_el3_exceptions.o
 .debug_info    0x000000000003d1a6       0x79 /home/ming/tf-a-stm32mp-2.2.r2-r0/tf-a-stm32mp-2.2.r2/../build/trusted/bl2/cpu_helpers.o
 .debug_info    0x000000000003d21f       0x71 /home/ming/tf-a-stm32mp-2.2.r2-r0/tf-a-stm32mp-2.2.r2/../build/trusted/bl2/debug.o
 .debug_info    0x000000000003d290       0x76 /home/ming/tf-a-stm32mp-2.2.r2-r0/tf-a-stm32mp-2.2.r2/../build/trusted/bl2/cache_helpers.o
 .debug_info    0x000000000003d306       0x75 /home/ming/tf-a-stm32mp-2.2.r2-r0/tf-a-stm32mp-2.2.r2/../build/trusted/bl2/misc_helpers.o
 .debug_info    0x000000000003d37b       0x8c /home/ming/tf-a-stm32mp-2.2.r2-r0/tf-a-stm32mp-2.2.r2/../build/trusted/bl2/aeabi_uldivmod.o
 .debug_info    0x000000000003d407       0x82 /home/ming/tf-a-stm32mp-2.2.r2-r0/tf-a-stm32mp-2.2.r2/../build/trusted/bl2/stm32_console.o
 .debug_info    0x000000000003d489       0x82 /home/ming/tf-a-stm32mp-2.2.r2-r0/tf-a-stm32mp-2.2.r2/../build/trusted/bl2/enable_mmu.o
 .debug_info    0x000000000003d50b       0x77 /home/ming/tf-a-stm32mp-2.2.r2-r0/tf-a-stm32mp-2.2.r2/../build/trusted/bl2/cortex_a7.o
 .debug_info    0x000000000003d582       0x7d /home/ming/tf-a-stm32mp-2.2.r2-r0/tf-a-stm32mp-2.2.r2/../build/trusted/bl2/stm32mp1_helper.o
 .debug_info    0x000000000003d5ff      0x704 /home/ming/tf-a-stm32mp-2.2.r2-r0/tf-a-stm32mp-2.2.r2/../build/trusted/lib/libfdt.a(fdt.o)
 .debug_info    0x000000000003dd03      0x21a /home/ming/tf-a-stm32mp-2.2.r2-r0/tf-a-stm32mp-2.2.r2/../build/trusted/lib/libfdt.a(fdt_addresses.o)
 .debug_info    0x000000000003df1d     0x1f16 /home/ming/tf-a-stm32mp-2.2.r2-r0/tf-a-stm32mp-2.2.r2/../build/trusted/lib/libfdt.a(fdt_ro.o)
 .debug_info    0x000000000003fe33      0x1dc /home/ming/tf-a-stm32mp-2.2.r2-r0/tf-a-stm32mp-2.2.r2/../build/trusted/lib/libc.a(assert.o)
 .debug_info    0x000000000004000f       0xb3 /home/ming/tf-a-stm32mp-2.2.r2-r0/tf-a-stm32mp-2.2.r2/../build/trusted/lib/libc.a(memchr.o)
 .debug_info    0x00000000000400c2       0xda /home/ming/tf-a-stm32mp-2.2.r2-r0/tf-a-stm32mp-2.2.r2/../build/trusted/lib/libc.a(memcmp.o)
 .debug_info    0x000000000004019c       0xbf /home/ming/tf-a-stm32mp-2.2.r2-r0/tf-a-stm32mp-2.2.r2/../build/trusted/lib/libc.a(memcpy.o)
 .debug_info    0x000000000004025b       0xfd /home/ming/tf-a-stm32mp-2.2.r2-r0/tf-a-stm32mp-2.2.r2/../build/trusted/lib/libc.a(memmove.o)
 .debug_info    0x0000000000040358       0xa7 /home/ming/tf-a-stm32mp-2.2.r2-r0/tf-a-stm32mp-2.2.r2/../build/trusted/lib/libc.a(memset.o)
 .debug_info    0x00000000000403ff      0x492 /home/ming/tf-a-stm32mp-2.2.r2-r0/tf-a-stm32mp-2.2.r2/../build/trusted/lib/libc.a(printf.o)
 .debug_info    0x0000000000040891       0xc3 /home/ming/tf-a-stm32mp-2.2.r2-r0/tf-a-stm32mp-2.2.r2/../build/trusted/lib/libc.a(putchar.o)
 .debug_info    0x0000000000040954      0x34a /home/ming/tf-a-stm32mp-2.2.r2-r0/tf-a-stm32mp-2.2.r2/../build/trusted/lib/libc.a(snprintf.o)
 .debug_info    0x0000000000040c9e       0x93 /home/ming/tf-a-stm32mp-2.2.r2-r0/tf-a-stm32mp-2.2.r2/../build/trusted/lib/libc.a(strchr.o)
 .debug_info    0x0000000000040d31       0x7c /home/ming/tf-a-stm32mp-2.2.r2-r0/tf-a-stm32mp-2.2.r2/../build/trusted/lib/libc.a(strcmp.o)
 .debug_info    0x0000000000040dad       0x80 /home/ming/tf-a-stm32mp-2.2.r2-r0/tf-a-stm32mp-2.2.r2/../build/trusted/lib/libc.a(strlen.o)
 .debug_info    0x0000000000040e2d       0x94 /home/ming/tf-a-stm32mp-2.2.r2-r0/tf-a-stm32mp-2.2.r2/../build/trusted/lib/libc.a(strncmp.o)
 .debug_info    0x0000000000040ec1       0x8d /home/ming/tf-a-stm32mp-2.2.r2-r0/tf-a-stm32mp-2.2.r2/../build/trusted/lib/libc.a(strnlen.o)
 .debug_info    0x0000000000040f4e       0xa2 /home/ming/tf-a-stm32mp-2.2.r2-r0/tf-a-stm32mp-2.2.r2/../build/trusted/lib/libc.a(strrchr.o)

.debug_abbrev   0x0000000000000000     0xbd27
 .debug_abbrev  0x0000000000000000       0x43 /home/ming/tf-a-stm32mp-2.2.r2-r0/tf-a-stm32mp-2.2.r2/../build/trusted/bl2/build_message.o
 .debug_abbrev  0x0000000000000043      0x367 /home/ming/tf-a-stm32mp-2.2.r2-r0/tf-a-stm32mp-2.2.r2/../build/trusted/bl2/io_block.o
 .debug_abbrev  0x00000000000003aa      0x1eb /home/ming/tf-a-stm32mp-2.2.r2-r0/tf-a-stm32mp-2.2.r2/../build/trusted/bl2/io_dummy.o
 .debug_abbrev  0x0000000000000595      0x292 /home/ming/tf-a-stm32mp-2.2.r2-r0/tf-a-stm32mp-2.2.r2/../build/trusted/bl2/io_mtd.o
 .debug_abbrev  0x0000000000000827      0x327 /home/ming/tf-a-stm32mp-2.2.r2-r0/tf-a-stm32mp-2.2.r2/../build/trusted/bl2/io_storage.o
 .debug_abbrev  0x0000000000000b4e      0x386 /home/ming/tf-a-stm32mp-2.2.r2-r0/tf-a-stm32mp-2.2.r2/../build/trusted/bl2/stm32_hash.o
 .debug_abbrev  0x0000000000000ed4      0x2d9 /home/ming/tf-a-stm32mp-2.2.r2-r0/tf-a-stm32mp-2.2.r2/../build/trusted/bl2/io_stm32image.o
 .debug_abbrev  0x00000000000011ad      0x306 /home/ming/tf-a-stm32mp-2.2.r2-r0/tf-a-stm32mp-2.2.r2/../build/trusted/bl2/bl2_io_storage.o
 .debug_abbrev  0x00000000000014b3      0x3ab /home/ming/tf-a-stm32mp-2.2.r2-r0/tf-a-stm32mp-2.2.r2/../build/trusted/bl2/bl2_plat_setup.o
 .debug_abbrev  0x000000000000185e      0x2d2 /home/ming/tf-a-stm32mp-2.2.r2-r0/tf-a-stm32mp-2.2.r2/../build/trusted/bl2/auth_mod.o
 .debug_abbrev  0x0000000000001b30      0x152 /home/ming/tf-a-stm32mp-2.2.r2-r0/tf-a-stm32mp-2.2.r2/../build/trusted/bl2/crypto_mod.o
 .debug_abbrev  0x0000000000001c82      0x1ce /home/ming/tf-a-stm32mp-2.2.r2-r0/tf-a-stm32mp-2.2.r2/../build/trusted/bl2/img_parser_mod.o
 .debug_abbrev  0x0000000000001e50      0x11a /home/ming/tf-a-stm32mp-2.2.r2-r0/tf-a-stm32mp-2.2.r2/../build/trusted/bl2/stm32mp_cot.o
 .debug_abbrev  0x0000000000001f6a      0x229 /home/ming/tf-a-stm32mp-2.2.r2-r0/tf-a-stm32mp-2.2.r2/../build/trusted/bl2/stm32mp_crypto_lib.o
 .debug_abbrev  0x0000000000002193      0x1bf /home/ming/tf-a-stm32mp-2.2.r2-r0/tf-a-stm32mp-2.2.r2/../build/trusted/bl2/stm32mp_img_parser_lib.o
 .debug_abbrev  0x0000000000002352      0x181 /home/ming/tf-a-stm32mp-2.2.r2-r0/tf-a-stm32mp-2.2.r2/../build/trusted/bl2/stm32mp_trusted_boot.o
 .debug_abbrev  0x00000000000024d3      0x42c /home/ming/tf-a-stm32mp-2.2.r2-r0/tf-a-stm32mp-2.2.r2/../build/trusted/bl2/mmc.o
 .debug_abbrev  0x00000000000028ff      0x153 /home/ming/tf-a-stm32mp-2.2.r2-r0/tf-a-stm32mp-2.2.r2/../build/trusted/bl2/gpt.o
 .debug_abbrev  0x0000000000002a52      0x227 /home/ming/tf-a-stm32mp-2.2.r2-r0/tf-a-stm32mp-2.2.r2/../build/trusted/bl2/partition.o
 .debug_abbrev  0x0000000000002c79      0x201 /home/ming/tf-a-stm32mp-2.2.r2-r0/tf-a-stm32mp-2.2.r2/../build/trusted/bl2/io_mmc.o
 .debug_abbrev  0x0000000000002e7a      0x492 /home/ming/tf-a-stm32mp-2.2.r2-r0/tf-a-stm32mp-2.2.r2/../build/trusted/bl2/stm32_sdmmc2.o
 .debug_abbrev  0x000000000000330c      0x3d6 /home/ming/tf-a-stm32mp-2.2.r2-r0/tf-a-stm32mp-2.2.r2/../build/trusted/bl2/raw_nand.o
 .debug_abbrev  0x00000000000036e2      0x468 /home/ming/tf-a-stm32mp-2.2.r2-r0/tf-a-stm32mp-2.2.r2/../build/trusted/bl2/stm32_fmc2_nand.o
 .debug_abbrev  0x0000000000003b4a      0x361 /home/ming/tf-a-stm32mp-2.2.r2-r0/tf-a-stm32mp-2.2.r2/../build/trusted/bl2/spi_nand.o
 .debug_abbrev  0x0000000000003eab      0x34c /home/ming/tf-a-stm32mp-2.2.r2-r0/tf-a-stm32mp-2.2.r2/../build/trusted/bl2/spi_nor.o
 .debug_abbrev  0x00000000000041f7      0x28d /home/ming/tf-a-stm32mp-2.2.r2-r0/tf-a-stm32mp-2.2.r2/../build/trusted/bl2/spi_mem.o
 .debug_abbrev  0x0000000000004484      0x40d /home/ming/tf-a-stm32mp-2.2.r2-r0/tf-a-stm32mp-2.2.r2/../build/trusted/bl2/stm32_qspi.o
 .debug_abbrev  0x0000000000004891      0x1a6 /home/ming/tf-a-stm32mp-2.2.r2-r0/tf-a-stm32mp-2.2.r2/../build/trusted/bl2/core.o
 .debug_abbrev  0x0000000000004a37      0x1c1 /home/ming/tf-a-stm32mp-2.2.r2-r0/tf-a-stm32mp-2.2.r2/../build/trusted/bl2/stm32mp1_boot_device.o
 .debug_abbrev  0x0000000000004bf8      0x3b2 /home/ming/tf-a-stm32mp-2.2.r2-r0/tf-a-stm32mp-2.2.r2/../build/trusted/bl2/stm32mp1_ddr.o
 .debug_abbrev  0x0000000000004faa      0x307 /home/ming/tf-a-stm32mp-2.2.r2-r0/tf-a-stm32mp-2.2.r2/../build/trusted/bl2/stm32mp1_ram.o
 .debug_abbrev  0x00000000000052b1      0x265 /home/ming/tf-a-stm32mp-2.2.r2-r0/tf-a-stm32mp-2.2.r2/../build/trusted/bl2/desc_image_load.o
 .debug_abbrev  0x0000000000005516       0xd0 /home/ming/tf-a-stm32mp-2.2.r2-r0/tf-a-stm32mp-2.2.r2/../build/trusted/bl2/plat_bl2_mem_params_desc.o
 .debug_abbrev  0x00000000000055e6      0x1d5 /home/ming/tf-a-stm32mp-2.2.r2-r0/tf-a-stm32mp-2.2.r2/../build/trusted/bl2/plat_image_load.o
 .debug_abbrev  0x00000000000057bb      0x182 /home/ming/tf-a-stm32mp-2.2.r2-r0/tf-a-stm32mp-2.2.r2/../build/trusted/bl2/bl2_image_load_v2.o
 .debug_abbrev  0x000000000000593d      0x17d /home/ming/tf-a-stm32mp-2.2.r2-r0/tf-a-stm32mp-2.2.r2/../build/trusted/bl2/bl2_main.o
 .debug_abbrev  0x0000000000005aba       0x82 /home/ming/tf-a-stm32mp-2.2.r2-r0/tf-a-stm32mp-2.2.r2/../build/trusted/bl2/bl2_arch_setup.o
 .debug_abbrev  0x0000000000005b3c      0x25d /home/ming/tf-a-stm32mp-2.2.r2-r0/tf-a-stm32mp-2.2.r2/../build/trusted/bl2/bl_common.o
 .debug_abbrev  0x0000000000005d99      0x149 /home/ming/tf-a-stm32mp-2.2.r2-r0/tf-a-stm32mp-2.2.r2/../build/trusted/bl2/tf_log.o
 .debug_abbrev  0x0000000000005ee2      0x252 /home/ming/tf-a-stm32mp-2.2.r2-r0/tf-a-stm32mp-2.2.r2/../build/trusted/bl2/multi_console.o
 .debug_abbrev  0x0000000000006134      0x1d4 /home/ming/tf-a-stm32mp-2.2.r2-r0/tf-a-stm32mp-2.2.r2/../build/trusted/bl2/plat_bl_common.o
 .debug_abbrev  0x0000000000006308       0xd2 /home/ming/tf-a-stm32mp-2.2.r2-r0/tf-a-stm32mp-2.2.r2/../build/trusted/bl2/plat_log_common.o
 .debug_abbrev  0x00000000000063da       0x6f /home/ming/tf-a-stm32mp-2.2.r2-r0/tf-a-stm32mp-2.2.r2/../build/trusted/bl2/popcountsi2.o
 .debug_abbrev  0x0000000000006449       0xc8 /home/ming/tf-a-stm32mp-2.2.r2-r0/tf-a-stm32mp-2.2.r2/../build/trusted/bl2/ctzdi2.o
 .debug_abbrev  0x0000000000006511       0xf8 /home/ming/tf-a-stm32mp-2.2.r2-r0/tf-a-stm32mp-2.2.r2/../build/trusted/bl2/udivmoddi4.o
 .debug_abbrev  0x0000000000006609      0x24e /home/ming/tf-a-stm32mp-2.2.r2-r0/tf-a-stm32mp-2.2.r2/../build/trusted/bl2/stm32mp_common.o
 .debug_abbrev  0x0000000000006857      0x3b4 /home/ming/tf-a-stm32mp-2.2.r2-r0/tf-a-stm32mp-2.2.r2/../build/trusted/bl2/stm32mp1_private.o
 .debug_abbrev  0x0000000000006c0b      0x2aa /home/ming/tf-a-stm32mp-2.2.r2-r0/tf-a-stm32mp-2.2.r2/../build/trusted/bl2/xlat_tables_arch.o
 .debug_abbrev  0x0000000000006eb5      0x1b1 /home/ming/tf-a-stm32mp-2.2.r2-r0/tf-a-stm32mp-2.2.r2/../build/trusted/bl2/xlat_tables_context.o
 .debug_abbrev  0x0000000000007066      0x3e0 /home/ming/tf-a-stm32mp-2.2.r2-r0/tf-a-stm32mp-2.2.r2/../build/trusted/bl2/xlat_tables_core.o
 .debug_abbrev  0x0000000000007446      0x26b /home/ming/tf-a-stm32mp-2.2.r2-r0/tf-a-stm32mp-2.2.r2/../build/trusted/bl2/xlat_tables_utils.o
 .debug_abbrev  0x00000000000076b1      0x271 /home/ming/tf-a-stm32mp-2.2.r2-r0/tf-a-stm32mp-2.2.r2/../build/trusted/bl2/tzc400.o
 .debug_abbrev  0x0000000000007922      0x152 /home/ming/tf-a-stm32mp-2.2.r2-r0/tf-a-stm32mp-2.2.r2/../build/trusted/bl2/delay_timer.o
 .debug_abbrev  0x0000000000007a74      0x1e3 /home/ming/tf-a-stm32mp-2.2.r2-r0/tf-a-stm32mp-2.2.r2/../build/trusted/bl2/generic_delay_timer.o
 .debug_abbrev  0x0000000000007c57      0x365 /home/ming/tf-a-stm32mp-2.2.r2-r0/tf-a-stm32mp-2.2.r2/../build/trusted/bl2/bsec2.o
 .debug_abbrev  0x0000000000007fbc      0x2b8 /home/ming/tf-a-stm32mp-2.2.r2-r0/tf-a-stm32mp-2.2.r2/../build/trusted/bl2/stm32mp_clkfunc.o
 .debug_abbrev  0x0000000000008274      0x4f6 /home/ming/tf-a-stm32mp-2.2.r2-r0/tf-a-stm32mp-2.2.r2/../build/trusted/bl2/stm32mp1_clk.o
 .debug_abbrev  0x000000000000876a      0x37e /home/ming/tf-a-stm32mp-2.2.r2-r0/tf-a-stm32mp-2.2.r2/../build/trusted/bl2/stm32mp1_ddr_helpers.o
 .debug_abbrev  0x0000000000008ae8      0x2c1 /home/ming/tf-a-stm32mp-2.2.r2-r0/tf-a-stm32mp-2.2.r2/../build/trusted/bl2/stm32_gpio.o
 .debug_abbrev  0x0000000000008da9      0x3c0 /home/ming/tf-a-stm32mp-2.2.r2-r0/tf-a-stm32mp-2.2.r2/../build/trusted/bl2/stm32_i2c.o
 .debug_abbrev  0x0000000000009169      0x222 /home/ming/tf-a-stm32mp-2.2.r2-r0/tf-a-stm32mp-2.2.r2/../build/trusted/bl2/stm32_iwdg.o
 .debug_abbrev  0x000000000000938b      0x3b6 /home/ming/tf-a-stm32mp-2.2.r2-r0/tf-a-stm32mp-2.2.r2/../build/trusted/bl2/stm32mp_pmic.o
 .debug_abbrev  0x0000000000009741      0x1e5 /home/ming/tf-a-stm32mp-2.2.r2-r0/tf-a-stm32mp-2.2.r2/../build/trusted/bl2/stpmic1.o
 .debug_abbrev  0x0000000000009926       0xfb /home/ming/tf-a-stm32mp-2.2.r2-r0/tf-a-stm32mp-2.2.r2/../build/trusted/bl2/stm32mp_dummy_regulator.o
 .debug_abbrev  0x0000000000009a21      0x15d /home/ming/tf-a-stm32mp-2.2.r2-r0/tf-a-stm32mp-2.2.r2/../build/trusted/bl2/stm32mp_regulator.o
 .debug_abbrev  0x0000000000009b7e      0x1db /home/ming/tf-a-stm32mp-2.2.r2-r0/tf-a-stm32mp-2.2.r2/../build/trusted/bl2/stm32mp1_reset.o
 .debug_abbrev  0x0000000000009d59      0x346 /home/ming/tf-a-stm32mp-2.2.r2-r0/tf-a-stm32mp-2.2.r2/../build/trusted/bl2/stm32mp_dt.o
 .debug_abbrev  0x000000000000a09f      0x1a2 /home/ming/tf-a-stm32mp-2.2.r2-r0/tf-a-stm32mp-2.2.r2/../build/trusted/bl2/stm32mp_shres_helpers.o
 .debug_abbrev  0x000000000000a241      0x37a /home/ming/tf-a-stm32mp-2.2.r2-r0/tf-a-stm32mp-2.2.r2/../build/trusted/bl2/stm32mp1_context.o
 .debug_abbrev  0x000000000000a5bb      0x1a8 /home/ming/tf-a-stm32mp-2.2.r2-r0/tf-a-stm32mp-2.2.r2/../build/trusted/bl2/stm32mp1_dbgmcu.o
 .debug_abbrev  0x000000000000a763      0x130 /home/ming/tf-a-stm32mp-2.2.r2-r0/tf-a-stm32mp-2.2.r2/../build/trusted/bl2/stm32mp1_security.o
 .debug_abbrev  0x000000000000a893      0x1d7 /home/ming/tf-a-stm32mp-2.2.r2-r0/tf-a-stm32mp-2.2.r2/../build/trusted/bl2/stm32mp1_syscfg.o
 .debug_abbrev  0x000000000000aa6a       0x12 /home/ming/tf-a-stm32mp-2.2.r2-r0/tf-a-stm32mp-2.2.r2/../build/trusted/bl2/spinlock.o
 .debug_abbrev  0x000000000000aa7c       0x12 /home/ming/tf-a-stm32mp-2.2.r2-r0/tf-a-stm32mp-2.2.r2/../build/trusted/bl2/platform_up_stack.o
 .debug_abbrev  0x000000000000aa8e       0x12 /home/ming/tf-a-stm32mp-2.2.r2-r0/tf-a-stm32mp-2.2.r2/../build/trusted/bl2/bl2_el3_entrypoint.o
 .debug_abbrev  0x000000000000aaa0       0x14 /home/ming/tf-a-stm32mp-2.2.r2-r0/tf-a-stm32mp-2.2.r2/../build/trusted/bl2/bl2_el3_exceptions.o
 .debug_abbrev  0x000000000000aab4       0x12 /home/ming/tf-a-stm32mp-2.2.r2-r0/tf-a-stm32mp-2.2.r2/../build/trusted/bl2/cpu_helpers.o
 .debug_abbrev  0x000000000000aac6       0x12 /home/ming/tf-a-stm32mp-2.2.r2-r0/tf-a-stm32mp-2.2.r2/../build/trusted/bl2/debug.o
 .debug_abbrev  0x000000000000aad8       0x12 /home/ming/tf-a-stm32mp-2.2.r2-r0/tf-a-stm32mp-2.2.r2/../build/trusted/bl2/cache_helpers.o
 .debug_abbrev  0x000000000000aaea       0x12 /home/ming/tf-a-stm32mp-2.2.r2-r0/tf-a-stm32mp-2.2.r2/../build/trusted/bl2/misc_helpers.o
 .debug_abbrev  0x000000000000aafc       0x14 /home/ming/tf-a-stm32mp-2.2.r2-r0/tf-a-stm32mp-2.2.r2/../build/trusted/bl2/aeabi_uldivmod.o
 .debug_abbrev  0x000000000000ab10       0x12 /home/ming/tf-a-stm32mp-2.2.r2-r0/tf-a-stm32mp-2.2.r2/../build/trusted/bl2/stm32_console.o
 .debug_abbrev  0x000000000000ab22       0x12 /home/ming/tf-a-stm32mp-2.2.r2-r0/tf-a-stm32mp-2.2.r2/../build/trusted/bl2/enable_mmu.o
 .debug_abbrev  0x000000000000ab34       0x12 /home/ming/tf-a-stm32mp-2.2.r2-r0/tf-a-stm32mp-2.2.r2/../build/trusted/bl2/cortex_a7.o
 .debug_abbrev  0x000000000000ab46       0x12 /home/ming/tf-a-stm32mp-2.2.r2-r0/tf-a-stm32mp-2.2.r2/../build/trusted/bl2/stm32mp1_helper.o
 .debug_abbrev  0x000000000000ab58      0x1e3 /home/ming/tf-a-stm32mp-2.2.r2-r0/tf-a-stm32mp-2.2.r2/../build/trusted/lib/libfdt.a(fdt.o)
 .debug_abbrev  0x000000000000ad3b      0x106 /home/ming/tf-a-stm32mp-2.2.r2-r0/tf-a-stm32mp-2.2.r2/../build/trusted/lib/libfdt.a(fdt_addresses.o)
 .debug_abbrev  0x000000000000ae41      0x391 /home/ming/tf-a-stm32mp-2.2.r2-r0/tf-a-stm32mp-2.2.r2/../build/trusted/lib/libfdt.a(fdt_ro.o)
 .debug_abbrev  0x000000000000b1d2       0xec /home/ming/tf-a-stm32mp-2.2.r2-r0/tf-a-stm32mp-2.2.r2/../build/trusted/lib/libc.a(assert.o)
 .debug_abbrev  0x000000000000b2be       0x8d /home/ming/tf-a-stm32mp-2.2.r2-r0/tf-a-stm32mp-2.2.r2/../build/trusted/lib/libc.a(memchr.o)
 .debug_abbrev  0x000000000000b34b       0x86 /home/ming/tf-a-stm32mp-2.2.r2-r0/tf-a-stm32mp-2.2.r2/../build/trusted/lib/libc.a(memcmp.o)
 .debug_abbrev  0x000000000000b3d1       0x91 /home/ming/tf-a-stm32mp-2.2.r2-r0/tf-a-stm32mp-2.2.r2/../build/trusted/lib/libc.a(memcpy.o)
 .debug_abbrev  0x000000000000b462       0xb6 /home/ming/tf-a-stm32mp-2.2.r2-r0/tf-a-stm32mp-2.2.r2/../build/trusted/lib/libc.a(memmove.o)
 .debug_abbrev  0x000000000000b518       0x90 /home/ming/tf-a-stm32mp-2.2.r2-r0/tf-a-stm32mp-2.2.r2/../build/trusted/lib/libc.a(memset.o)
 .debug_abbrev  0x000000000000b5a8      0x234 /home/ming/tf-a-stm32mp-2.2.r2-r0/tf-a-stm32mp-2.2.r2/../build/trusted/lib/libc.a(printf.o)
 .debug_abbrev  0x000000000000b7dc       0x8a /home/ming/tf-a-stm32mp-2.2.r2-r0/tf-a-stm32mp-2.2.r2/../build/trusted/lib/libc.a(putchar.o)
 .debug_abbrev  0x000000000000b866      0x1f8 /home/ming/tf-a-stm32mp-2.2.r2-r0/tf-a-stm32mp-2.2.r2/../build/trusted/lib/libc.a(snprintf.o)
 .debug_abbrev  0x000000000000ba5e       0x74 /home/ming/tf-a-stm32mp-2.2.r2-r0/tf-a-stm32mp-2.2.r2/../build/trusted/lib/libc.a(strchr.o)
 .debug_abbrev  0x000000000000bad2       0x65 /home/ming/tf-a-stm32mp-2.2.r2-r0/tf-a-stm32mp-2.2.r2/../build/trusted/lib/libc.a(strcmp.o)
 .debug_abbrev  0x000000000000bb37       0x76 /home/ming/tf-a-stm32mp-2.2.r2-r0/tf-a-stm32mp-2.2.r2/../build/trusted/lib/libc.a(strlen.o)
 .debug_abbrev  0x000000000000bbad       0x72 /home/ming/tf-a-stm32mp-2.2.r2-r0/tf-a-stm32mp-2.2.r2/../build/trusted/lib/libc.a(strncmp.o)
 .debug_abbrev  0x000000000000bc1f       0x85 /home/ming/tf-a-stm32mp-2.2.r2-r0/tf-a-stm32mp-2.2.r2/../build/trusted/lib/libc.a(strnlen.o)
 .debug_abbrev  0x000000000000bca4       0x83 /home/ming/tf-a-stm32mp-2.2.r2-r0/tf-a-stm32mp-2.2.r2/../build/trusted/lib/libc.a(strrchr.o)

.debug_aranges  0x0000000000000000     0x1f18
 .debug_aranges
                0x0000000000000000       0x18 /home/ming/tf-a-stm32mp-2.2.r2-r0/tf-a-stm32mp-2.2.r2/../build/trusted/bl2/build_message.o
 .debug_aranges
                0x0000000000000018       0x60 /home/ming/tf-a-stm32mp-2.2.r2-r0/tf-a-stm32mp-2.2.r2/../build/trusted/bl2/io_block.o
 .debug_aranges
                0x0000000000000078       0x58 /home/ming/tf-a-stm32mp-2.2.r2-r0/tf-a-stm32mp-2.2.r2/../build/trusted/bl2/io_dummy.o
 .debug_aranges
                0x00000000000000d0       0x58 /home/ming/tf-a-stm32mp-2.2.r2-r0/tf-a-stm32mp-2.2.r2/../build/trusted/bl2/io_mtd.o
 .debug_aranges
                0x0000000000000128       0x80 /home/ming/tf-a-stm32mp-2.2.r2-r0/tf-a-stm32mp-2.2.r2/../build/trusted/bl2/io_storage.o
 .debug_aranges
                0x00000000000001a8       0x48 /home/ming/tf-a-stm32mp-2.2.r2-r0/tf-a-stm32mp-2.2.r2/../build/trusted/bl2/stm32_hash.o
 .debug_aranges
                0x00000000000001f0       0x60 /home/ming/tf-a-stm32mp-2.2.r2-r0/tf-a-stm32mp-2.2.r2/../build/trusted/bl2/io_stm32image.o
 .debug_aranges
                0x0000000000000250       0x50 /home/ming/tf-a-stm32mp-2.2.r2-r0/tf-a-stm32mp-2.2.r2/../build/trusted/bl2/bl2_io_storage.o
 .debug_aranges
                0x00000000000002a0       0x40 /home/ming/tf-a-stm32mp-2.2.r2-r0/tf-a-stm32mp-2.2.r2/../build/trusted/bl2/bl2_plat_setup.o
 .debug_aranges
                0x00000000000002e0       0x40 /home/ming/tf-a-stm32mp-2.2.r2-r0/tf-a-stm32mp-2.2.r2/../build/trusted/bl2/auth_mod.o
 .debug_aranges
                0x0000000000000320       0x30 /home/ming/tf-a-stm32mp-2.2.r2-r0/tf-a-stm32mp-2.2.r2/../build/trusted/bl2/crypto_mod.o
 .debug_aranges
                0x0000000000000350       0x30 /home/ming/tf-a-stm32mp-2.2.r2-r0/tf-a-stm32mp-2.2.r2/../build/trusted/bl2/img_parser_mod.o
 .debug_aranges
                0x0000000000000380       0x18 /home/ming/tf-a-stm32mp-2.2.r2-r0/tf-a-stm32mp-2.2.r2/../build/trusted/bl2/stm32mp_cot.o
 .debug_aranges
                0x0000000000000398       0x30 /home/ming/tf-a-stm32mp-2.2.r2-r0/tf-a-stm32mp-2.2.r2/../build/trusted/bl2/stm32mp_crypto_lib.o
 .debug_aranges
                0x00000000000003c8       0x30 /home/ming/tf-a-stm32mp-2.2.r2-r0/tf-a-stm32mp-2.2.r2/../build/trusted/bl2/stm32mp_img_parser_lib.o
 .debug_aranges
                0x00000000000003f8       0x30 /home/ming/tf-a-stm32mp-2.2.r2-r0/tf-a-stm32mp-2.2.r2/../build/trusted/bl2/stm32mp_trusted_boot.o
 .debug_aranges
                0x0000000000000428       0x78 /home/ming/tf-a-stm32mp-2.2.r2-r0/tf-a-stm32mp-2.2.r2/../build/trusted/bl2/mmc.o
 .debug_aranges
                0x00000000000004a0       0x20 /home/ming/tf-a-stm32mp-2.2.r2-r0/tf-a-stm32mp-2.2.r2/../build/trusted/bl2/gpt.o
 .debug_aranges
                0x00000000000004c0       0x38 /home/ming/tf-a-stm32mp-2.2.r2-r0/tf-a-stm32mp-2.2.r2/../build/trusted/bl2/partition.o
 .debug_aranges
                0x00000000000004f8       0x58 /home/ming/tf-a-stm32mp-2.2.r2-r0/tf-a-stm32mp-2.2.r2/../build/trusted/bl2/io_mmc.o
 .debug_aranges
                0x0000000000000550       0x70 /home/ming/tf-a-stm32mp-2.2.r2-r0/tf-a-stm32mp-2.2.r2/../build/trusted/bl2/stm32_sdmmc2.o
 .debug_aranges
                0x00000000000005c0       0x80 /home/ming/tf-a-stm32mp-2.2.r2-r0/tf-a-stm32mp-2.2.r2/../build/trusted/bl2/raw_nand.o
 .debug_aranges
                0x0000000000000640       0x50 /home/ming/tf-a-stm32mp-2.2.r2-r0/tf-a-stm32mp-2.2.r2/../build/trusted/bl2/stm32_fmc2_nand.o
 .debug_aranges
                0x0000000000000690       0x60 /home/ming/tf-a-stm32mp-2.2.r2-r0/tf-a-stm32mp-2.2.r2/../build/trusted/bl2/spi_nand.o
 .debug_aranges
                0x00000000000006f0       0x58 /home/ming/tf-a-stm32mp-2.2.r2-r0/tf-a-stm32mp-2.2.r2/../build/trusted/bl2/spi_nor.o
 .debug_aranges
                0x0000000000000748       0x38 /home/ming/tf-a-stm32mp-2.2.r2-r0/tf-a-stm32mp-2.2.r2/../build/trusted/bl2/spi_mem.o
 .debug_aranges
                0x0000000000000780       0x60 /home/ming/tf-a-stm32mp-2.2.r2-r0/tf-a-stm32mp-2.2.r2/../build/trusted/bl2/stm32_qspi.o
 .debug_aranges
                0x00000000000007e0       0x28 /home/ming/tf-a-stm32mp-2.2.r2-r0/tf-a-stm32mp-2.2.r2/../build/trusted/bl2/core.o
 .debug_aranges
                0x0000000000000808       0x38 /home/ming/tf-a-stm32mp-2.2.r2-r0/tf-a-stm32mp-2.2.r2/../build/trusted/bl2/stm32mp1_boot_device.o
 .debug_aranges
                0x0000000000000840       0x50 /home/ming/tf-a-stm32mp-2.2.r2-r0/tf-a-stm32mp-2.2.r2/../build/trusted/bl2/stm32mp1_ddr.o
 .debug_aranges
                0x0000000000000890       0x30 /home/ming/tf-a-stm32mp-2.2.r2-r0/tf-a-stm32mp-2.2.r2/../build/trusted/bl2/stm32mp1_ram.o
 .debug_aranges
                0x00000000000008c0       0x58 /home/ming/tf-a-stm32mp-2.2.r2-r0/tf-a-stm32mp-2.2.r2/../build/trusted/bl2/desc_image_load.o
 .debug_aranges
                0x0000000000000918       0x18 /home/ming/tf-a-stm32mp-2.2.r2-r0/tf-a-stm32mp-2.2.r2/../build/trusted/bl2/plat_bl2_mem_params_desc.o
 .debug_aranges
                0x0000000000000930       0x30 /home/ming/tf-a-stm32mp-2.2.r2-r0/tf-a-stm32mp-2.2.r2/../build/trusted/bl2/plat_image_load.o
 .debug_aranges
                0x0000000000000960       0x20 /home/ming/tf-a-stm32mp-2.2.r2-r0/tf-a-stm32mp-2.2.r2/../build/trusted/bl2/bl2_image_load_v2.o
 .debug_aranges
                0x0000000000000980       0x28 /home/ming/tf-a-stm32mp-2.2.r2-r0/tf-a-stm32mp-2.2.r2/../build/trusted/bl2/bl2_main.o
 .debug_aranges
                0x00000000000009a8       0x20 /home/ming/tf-a-stm32mp-2.2.r2-r0/tf-a-stm32mp-2.2.r2/../build/trusted/bl2/bl2_arch_setup.o
 .debug_aranges
                0x00000000000009c8       0x38 /home/ming/tf-a-stm32mp-2.2.r2-r0/tf-a-stm32mp-2.2.r2/../build/trusted/bl2/bl_common.o
 .debug_aranges
                0x0000000000000a00       0x28 /home/ming/tf-a-stm32mp-2.2.r2-r0/tf-a-stm32mp-2.2.r2/../build/trusted/bl2/tf_log.o
 .debug_aranges
                0x0000000000000a28       0x58 /home/ming/tf-a-stm32mp-2.2.r2-r0/tf-a-stm32mp-2.2.r2/../build/trusted/bl2/multi_console.o
 .debug_aranges
                0x0000000000000a80       0x38 /home/ming/tf-a-stm32mp-2.2.r2-r0/tf-a-stm32mp-2.2.r2/../build/trusted/bl2/plat_bl_common.o
 .debug_aranges
                0x0000000000000ab8       0x20 /home/ming/tf-a-stm32mp-2.2.r2-r0/tf-a-stm32mp-2.2.r2/../build/trusted/bl2/plat_log_common.o
 .debug_aranges
                0x0000000000000ad8       0x20 /home/ming/tf-a-stm32mp-2.2.r2-r0/tf-a-stm32mp-2.2.r2/../build/trusted/bl2/popcountsi2.o
 .debug_aranges
                0x0000000000000af8       0x20 /home/ming/tf-a-stm32mp-2.2.r2-r0/tf-a-stm32mp-2.2.r2/../build/trusted/bl2/ctzdi2.o
 .debug_aranges
                0x0000000000000b18       0x20 /home/ming/tf-a-stm32mp-2.2.r2-r0/tf-a-stm32mp-2.2.r2/../build/trusted/bl2/udivmoddi4.o
 .debug_aranges
                0x0000000000000b38       0xb0 /home/ming/tf-a-stm32mp-2.2.r2-r0/tf-a-stm32mp-2.2.r2/../build/trusted/bl2/stm32mp_common.o
 .debug_aranges
                0x0000000000000be8       0xb8 /home/ming/tf-a-stm32mp-2.2.r2-r0/tf-a-stm32mp-2.2.r2/../build/trusted/bl2/stm32mp1_private.o
 .debug_aranges
                0x0000000000000ca0       0x70 /home/ming/tf-a-stm32mp-2.2.r2-r0/tf-a-stm32mp-2.2.r2/../build/trusted/bl2/xlat_tables_arch.o
 .debug_aranges
                0x0000000000000d10       0x78 /home/ming/tf-a-stm32mp-2.2.r2-r0/tf-a-stm32mp-2.2.r2/../build/trusted/bl2/xlat_tables_context.o
 .debug_aranges
                0x0000000000000d88       0x90 /home/ming/tf-a-stm32mp-2.2.r2-r0/tf-a-stm32mp-2.2.r2/../build/trusted/bl2/xlat_tables_core.o
 .debug_aranges
                0x0000000000000e18       0x40 /home/ming/tf-a-stm32mp-2.2.r2-r0/tf-a-stm32mp-2.2.r2/../build/trusted/bl2/xlat_tables_utils.o
 .debug_aranges
                0x0000000000000e58       0x60 /home/ming/tf-a-stm32mp-2.2.r2-r0/tf-a-stm32mp-2.2.r2/../build/trusted/bl2/tzc400.o
 .debug_aranges
                0x0000000000000eb8       0x30 /home/ming/tf-a-stm32mp-2.2.r2-r0/tf-a-stm32mp-2.2.r2/../build/trusted/bl2/delay_timer.o
 .debug_aranges
                0x0000000000000ee8       0x30 /home/ming/tf-a-stm32mp-2.2.r2-r0/tf-a-stm32mp-2.2.r2/../build/trusted/bl2/generic_delay_timer.o
 .debug_aranges
                0x0000000000000f18      0x118 /home/ming/tf-a-stm32mp-2.2.r2-r0/tf-a-stm32mp-2.2.r2/../build/trusted/bl2/bsec2.o
 .debug_aranges
                0x0000000000001030       0xa0 /home/ming/tf-a-stm32mp-2.2.r2-r0/tf-a-stm32mp-2.2.r2/../build/trusted/bl2/stm32mp_clkfunc.o
 .debug_aranges
                0x00000000000010d0      0x1c8 /home/ming/tf-a-stm32mp-2.2.r2-r0/tf-a-stm32mp-2.2.r2/../build/trusted/bl2/stm32mp1_clk.o
 .debug_aranges
                0x0000000000001298       0x68 /home/ming/tf-a-stm32mp-2.2.r2-r0/tf-a-stm32mp-2.2.r2/../build/trusted/bl2/stm32mp1_ddr_helpers.o
 .debug_aranges
                0x0000000000001300       0x38 /home/ming/tf-a-stm32mp-2.2.r2-r0/tf-a-stm32mp-2.2.r2/../build/trusted/bl2/stm32_gpio.o
 .debug_aranges
                0x0000000000001338       0x88 /home/ming/tf-a-stm32mp-2.2.r2-r0/tf-a-stm32mp-2.2.r2/../build/trusted/bl2/stm32_i2c.o
 .debug_aranges
                0x00000000000013c0       0x28 /home/ming/tf-a-stm32mp-2.2.r2-r0/tf-a-stm32mp-2.2.r2/../build/trusted/bl2/stm32_iwdg.o
 .debug_aranges
                0x00000000000013e8       0xa0 /home/ming/tf-a-stm32mp-2.2.r2-r0/tf-a-stm32mp-2.2.r2/../build/trusted/bl2/stm32mp_pmic.o
 .debug_aranges
                0x0000000000001488       0xc0 /home/ming/tf-a-stm32mp-2.2.r2-r0/tf-a-stm32mp-2.2.r2/../build/trusted/bl2/stpmic1.o
 .debug_aranges
                0x0000000000001548       0x28 /home/ming/tf-a-stm32mp-2.2.r2-r0/tf-a-stm32mp-2.2.r2/../build/trusted/bl2/stm32mp_dummy_regulator.o
 .debug_aranges
                0x0000000000001570       0x38 /home/ming/tf-a-stm32mp-2.2.r2-r0/tf-a-stm32mp-2.2.r2/../build/trusted/bl2/stm32mp_regulator.o
 .debug_aranges
                0x00000000000015a8       0x30 /home/ming/tf-a-stm32mp-2.2.r2-r0/tf-a-stm32mp-2.2.r2/../build/trusted/bl2/stm32mp1_reset.o
 .debug_aranges
                0x00000000000015d8       0xe8 /home/ming/tf-a-stm32mp-2.2.r2-r0/tf-a-stm32mp-2.2.r2/../build/trusted/bl2/stm32mp_dt.o
 .debug_aranges
                0x00000000000016c0       0x40 /home/ming/tf-a-stm32mp-2.2.r2-r0/tf-a-stm32mp-2.2.r2/../build/trusted/bl2/stm32mp_shres_helpers.o
 .debug_aranges
                0x0000000000001700       0x78 /home/ming/tf-a-stm32mp-2.2.r2-r0/tf-a-stm32mp-2.2.r2/../build/trusted/bl2/stm32mp1_context.o
 .debug_aranges
                0x0000000000001778       0x38 /home/ming/tf-a-stm32mp-2.2.r2-r0/tf-a-stm32mp-2.2.r2/../build/trusted/bl2/stm32mp1_dbgmcu.o
 .debug_aranges
                0x00000000000017b0       0x28 /home/ming/tf-a-stm32mp-2.2.r2-r0/tf-a-stm32mp-2.2.r2/../build/trusted/bl2/stm32mp1_security.o
 .debug_aranges
                0x00000000000017d8       0x30 /home/ming/tf-a-stm32mp-2.2.r2-r0/tf-a-stm32mp-2.2.r2/../build/trusted/bl2/stm32mp1_syscfg.o
 .debug_aranges
                0x0000000000001808       0x28 /home/ming/tf-a-stm32mp-2.2.r2-r0/tf-a-stm32mp-2.2.r2/../build/trusted/bl2/spinlock.o
 .debug_aranges
                0x0000000000001830       0x28 /home/ming/tf-a-stm32mp-2.2.r2-r0/tf-a-stm32mp-2.2.r2/../build/trusted/bl2/platform_up_stack.o
 .debug_aranges
                0x0000000000001858       0x28 /home/ming/tf-a-stm32mp-2.2.r2-r0/tf-a-stm32mp-2.2.r2/../build/trusted/bl2/bl2_el3_entrypoint.o
 .debug_aranges
                0x0000000000001880       0x20 /home/ming/tf-a-stm32mp-2.2.r2-r0/tf-a-stm32mp-2.2.r2/../build/trusted/bl2/bl2_el3_exceptions.o
 .debug_aranges
                0x00000000000018a0       0x40 /home/ming/tf-a-stm32mp-2.2.r2-r0/tf-a-stm32mp-2.2.r2/../build/trusted/bl2/cpu_helpers.o
 .debug_aranges
                0x00000000000018e0       0x58 /home/ming/tf-a-stm32mp-2.2.r2-r0/tf-a-stm32mp-2.2.r2/../build/trusted/bl2/debug.o
 .debug_aranges
                0x0000000000001938       0x60 /home/ming/tf-a-stm32mp-2.2.r2-r0/tf-a-stm32mp-2.2.r2/../build/trusted/bl2/cache_helpers.o
 .debug_aranges
                0x0000000000001998       0x40 /home/ming/tf-a-stm32mp-2.2.r2-r0/tf-a-stm32mp-2.2.r2/../build/trusted/bl2/misc_helpers.o
 .debug_aranges
                0x00000000000019d8       0x20 /home/ming/tf-a-stm32mp-2.2.r2-r0/tf-a-stm32mp-2.2.r2/../build/trusted/bl2/aeabi_uldivmod.o
 .debug_aranges
                0x00000000000019f8       0x50 /home/ming/tf-a-stm32mp-2.2.r2-r0/tf-a-stm32mp-2.2.r2/../build/trusted/bl2/stm32_console.o
 .debug_aranges
                0x0000000000001a48       0x28 /home/ming/tf-a-stm32mp-2.2.r2-r0/tf-a-stm32mp-2.2.r2/../build/trusted/bl2/enable_mmu.o
 .debug_aranges
                0x0000000000001a70       0x40 /home/ming/tf-a-stm32mp-2.2.r2-r0/tf-a-stm32mp-2.2.r2/../build/trusted/bl2/cortex_a7.o
 .debug_aranges
                0x0000000000001ab0       0x98 /home/ming/tf-a-stm32mp-2.2.r2-r0/tf-a-stm32mp-2.2.r2/../build/trusted/bl2/stm32mp1_helper.o
 .debug_aranges
                0x0000000000001b48       0x70 /home/ming/tf-a-stm32mp-2.2.r2-r0/tf-a-stm32mp-2.2.r2/../build/trusted/lib/libfdt.a(fdt.o)
 .debug_aranges
                0x0000000000001bb8       0x28 /home/ming/tf-a-stm32mp-2.2.r2-r0/tf-a-stm32mp-2.2.r2/../build/trusted/lib/libfdt.a(fdt_addresses.o)
 .debug_aranges
                0x0000000000001be0      0x140 /home/ming/tf-a-stm32mp-2.2.r2-r0/tf-a-stm32mp-2.2.r2/../build/trusted/lib/libfdt.a(fdt_ro.o)
 .debug_aranges
                0x0000000000001d20       0x20 /home/ming/tf-a-stm32mp-2.2.r2-r0/tf-a-stm32mp-2.2.r2/../build/trusted/lib/libc.a(assert.o)
 .debug_aranges
                0x0000000000001d40       0x20 /home/ming/tf-a-stm32mp-2.2.r2-r0/tf-a-stm32mp-2.2.r2/../build/trusted/lib/libc.a(memchr.o)
 .debug_aranges
                0x0000000000001d60       0x20 /home/ming/tf-a-stm32mp-2.2.r2-r0/tf-a-stm32mp-2.2.r2/../build/trusted/lib/libc.a(memcmp.o)
 .debug_aranges
                0x0000000000001d80       0x20 /home/ming/tf-a-stm32mp-2.2.r2-r0/tf-a-stm32mp-2.2.r2/../build/trusted/lib/libc.a(memcpy.o)
 .debug_aranges
                0x0000000000001da0       0x20 /home/ming/tf-a-stm32mp-2.2.r2-r0/tf-a-stm32mp-2.2.r2/../build/trusted/lib/libc.a(memmove.o)
 .debug_aranges
                0x0000000000001dc0       0x20 /home/ming/tf-a-stm32mp-2.2.r2-r0/tf-a-stm32mp-2.2.r2/../build/trusted/lib/libc.a(memset.o)
 .debug_aranges
                0x0000000000001de0       0x30 /home/ming/tf-a-stm32mp-2.2.r2-r0/tf-a-stm32mp-2.2.r2/../build/trusted/lib/libc.a(printf.o)
 .debug_aranges
                0x0000000000001e10       0x20 /home/ming/tf-a-stm32mp-2.2.r2-r0/tf-a-stm32mp-2.2.r2/../build/trusted/lib/libc.a(putchar.o)
 .debug_aranges
                0x0000000000001e30       0x28 /home/ming/tf-a-stm32mp-2.2.r2-r0/tf-a-stm32mp-2.2.r2/../build/trusted/lib/libc.a(snprintf.o)
 .debug_aranges
                0x0000000000001e58       0x20 /home/ming/tf-a-stm32mp-2.2.r2-r0/tf-a-stm32mp-2.2.r2/../build/trusted/lib/libc.a(strchr.o)
 .debug_aranges
                0x0000000000001e78       0x20 /home/ming/tf-a-stm32mp-2.2.r2-r0/tf-a-stm32mp-2.2.r2/../build/trusted/lib/libc.a(strcmp.o)
 .debug_aranges
                0x0000000000001e98       0x20 /home/ming/tf-a-stm32mp-2.2.r2-r0/tf-a-stm32mp-2.2.r2/../build/trusted/lib/libc.a(strlen.o)
 .debug_aranges
                0x0000000000001eb8       0x20 /home/ming/tf-a-stm32mp-2.2.r2-r0/tf-a-stm32mp-2.2.r2/../build/trusted/lib/libc.a(strncmp.o)
 .debug_aranges
                0x0000000000001ed8       0x20 /home/ming/tf-a-stm32mp-2.2.r2-r0/tf-a-stm32mp-2.2.r2/../build/trusted/lib/libc.a(strnlen.o)
 .debug_aranges
                0x0000000000001ef8       0x20 /home/ming/tf-a-stm32mp-2.2.r2-r0/tf-a-stm32mp-2.2.r2/../build/trusted/lib/libc.a(strrchr.o)

.debug_line     0x0000000000000000    0x10447
 .debug_line    0x0000000000000000       0x28 /home/ming/tf-a-stm32mp-2.2.r2-r0/tf-a-stm32mp-2.2.r2/../build/trusted/bl2/build_message.o
 .debug_line    0x0000000000000028      0x37c /home/ming/tf-a-stm32mp-2.2.r2-r0/tf-a-stm32mp-2.2.r2/../build/trusted/bl2/io_block.o
 .debug_line    0x00000000000003a4      0x1e5 /home/ming/tf-a-stm32mp-2.2.r2-r0/tf-a-stm32mp-2.2.r2/../build/trusted/bl2/io_dummy.o
 .debug_line    0x0000000000000589      0x252 /home/ming/tf-a-stm32mp-2.2.r2-r0/tf-a-stm32mp-2.2.r2/../build/trusted/bl2/io_mtd.o
 .debug_line    0x00000000000007db      0x324 /home/ming/tf-a-stm32mp-2.2.r2-r0/tf-a-stm32mp-2.2.r2/../build/trusted/bl2/io_storage.o
 .debug_line    0x0000000000000aff      0x3a7 /home/ming/tf-a-stm32mp-2.2.r2-r0/tf-a-stm32mp-2.2.r2/../build/trusted/bl2/stm32_hash.o
 .debug_line    0x0000000000000ea6      0x347 /home/ming/tf-a-stm32mp-2.2.r2-r0/tf-a-stm32mp-2.2.r2/../build/trusted/bl2/io_stm32image.o
 .debug_line    0x00000000000011ed      0x4a7 /home/ming/tf-a-stm32mp-2.2.r2-r0/tf-a-stm32mp-2.2.r2/../build/trusted/bl2/bl2_io_storage.o
 .debug_line    0x0000000000001694      0x581 /home/ming/tf-a-stm32mp-2.2.r2-r0/tf-a-stm32mp-2.2.r2/../build/trusted/bl2/bl2_plat_setup.o
 .debug_line    0x0000000000001c15      0x26b /home/ming/tf-a-stm32mp-2.2.r2-r0/tf-a-stm32mp-2.2.r2/../build/trusted/bl2/auth_mod.o
 .debug_line    0x0000000000001e80      0x1d4 /home/ming/tf-a-stm32mp-2.2.r2-r0/tf-a-stm32mp-2.2.r2/../build/trusted/bl2/crypto_mod.o
 .debug_line    0x0000000000002054      0x1ec /home/ming/tf-a-stm32mp-2.2.r2-r0/tf-a-stm32mp-2.2.r2/../build/trusted/bl2/img_parser_mod.o
 .debug_line    0x0000000000002240      0x107 /home/ming/tf-a-stm32mp-2.2.r2-r0/tf-a-stm32mp-2.2.r2/../build/trusted/bl2/stm32mp_cot.o
 .debug_line    0x0000000000002347      0x24c /home/ming/tf-a-stm32mp-2.2.r2-r0/tf-a-stm32mp-2.2.r2/../build/trusted/bl2/stm32mp_crypto_lib.o
 .debug_line    0x0000000000002593      0x1a4 /home/ming/tf-a-stm32mp-2.2.r2-r0/tf-a-stm32mp-2.2.r2/../build/trusted/bl2/stm32mp_img_parser_lib.o
 .debug_line    0x0000000000002737      0x168 /home/ming/tf-a-stm32mp-2.2.r2-r0/tf-a-stm32mp-2.2.r2/../build/trusted/bl2/stm32mp_trusted_boot.o
 .debug_line    0x000000000000289f      0x478 /home/ming/tf-a-stm32mp-2.2.r2-r0/tf-a-stm32mp-2.2.r2/../build/trusted/bl2/mmc.o
 .debug_line    0x0000000000002d17      0x16d /home/ming/tf-a-stm32mp-2.2.r2-r0/tf-a-stm32mp-2.2.r2/../build/trusted/bl2/gpt.o
 .debug_line    0x0000000000002e84      0x24f /home/ming/tf-a-stm32mp-2.2.r2-r0/tf-a-stm32mp-2.2.r2/../build/trusted/bl2/partition.o
 .debug_line    0x00000000000030d3      0x1f3 /home/ming/tf-a-stm32mp-2.2.r2-r0/tf-a-stm32mp-2.2.r2/../build/trusted/bl2/io_mmc.o
 .debug_line    0x00000000000032c6      0x79e /home/ming/tf-a-stm32mp-2.2.r2-r0/tf-a-stm32mp-2.2.r2/../build/trusted/bl2/stm32_sdmmc2.o
 .debug_line    0x0000000000003a64      0x395 /home/ming/tf-a-stm32mp-2.2.r2-r0/tf-a-stm32mp-2.2.r2/../build/trusted/bl2/raw_nand.o
 .debug_line    0x0000000000003df9      0x70e /home/ming/tf-a-stm32mp-2.2.r2-r0/tf-a-stm32mp-2.2.r2/../build/trusted/bl2/stm32_fmc2_nand.o
 .debug_line    0x0000000000004507      0x2fd /home/ming/tf-a-stm32mp-2.2.r2-r0/tf-a-stm32mp-2.2.r2/../build/trusted/bl2/spi_nand.o
 .debug_line    0x0000000000004804      0x2ec /home/ming/tf-a-stm32mp-2.2.r2-r0/tf-a-stm32mp-2.2.r2/../build/trusted/bl2/spi_nor.o
 .debug_line    0x0000000000004af0      0x26d /home/ming/tf-a-stm32mp-2.2.r2-r0/tf-a-stm32mp-2.2.r2/../build/trusted/bl2/spi_mem.o
 .debug_line    0x0000000000004d5d      0x517 /home/ming/tf-a-stm32mp-2.2.r2-r0/tf-a-stm32mp-2.2.r2/../build/trusted/bl2/stm32_qspi.o
 .debug_line    0x0000000000005274      0x185 /home/ming/tf-a-stm32mp-2.2.r2-r0/tf-a-stm32mp-2.2.r2/../build/trusted/bl2/core.o
 .debug_line    0x00000000000053f9      0x208 /home/ming/tf-a-stm32mp-2.2.r2-r0/tf-a-stm32mp-2.2.r2/../build/trusted/bl2/stm32mp1_boot_device.o
 .debug_line    0x0000000000005601      0x6d9 /home/ming/tf-a-stm32mp-2.2.r2-r0/tf-a-stm32mp-2.2.r2/../build/trusted/bl2/stm32mp1_ddr.o
 .debug_line    0x0000000000005cda      0x40c /home/ming/tf-a-stm32mp-2.2.r2-r0/tf-a-stm32mp-2.2.r2/../build/trusted/bl2/stm32mp1_ram.o
 .debug_line    0x00000000000060e6      0x32c /home/ming/tf-a-stm32mp-2.2.r2-r0/tf-a-stm32mp-2.2.r2/../build/trusted/bl2/desc_image_load.o
 .debug_line    0x0000000000006412      0x133 /home/ming/tf-a-stm32mp-2.2.r2-r0/tf-a-stm32mp-2.2.r2/../build/trusted/bl2/plat_bl2_mem_params_desc.o
 .debug_line    0x0000000000006545      0x22a /home/ming/tf-a-stm32mp-2.2.r2-r0/tf-a-stm32mp-2.2.r2/../build/trusted/bl2/plat_image_load.o
 .debug_line    0x000000000000676f      0x245 /home/ming/tf-a-stm32mp-2.2.r2-r0/tf-a-stm32mp-2.2.r2/../build/trusted/bl2/bl2_image_load_v2.o
 .debug_line    0x00000000000069b4      0x1c7 /home/ming/tf-a-stm32mp-2.2.r2-r0/tf-a-stm32mp-2.2.r2/../build/trusted/bl2/bl2_main.o
 .debug_line    0x0000000000006b7b       0x91 /home/ming/tf-a-stm32mp-2.2.r2-r0/tf-a-stm32mp-2.2.r2/../build/trusted/bl2/bl2_arch_setup.o
 .debug_line    0x0000000000006c0c      0x2a9 /home/ming/tf-a-stm32mp-2.2.r2-r0/tf-a-stm32mp-2.2.r2/../build/trusted/bl2/bl_common.o
 .debug_line    0x0000000000006eb5      0x164 /home/ming/tf-a-stm32mp-2.2.r2-r0/tf-a-stm32mp-2.2.r2/../build/trusted/bl2/tf_log.o
 .debug_line    0x0000000000007019      0x220 /home/ming/tf-a-stm32mp-2.2.r2-r0/tf-a-stm32mp-2.2.r2/../build/trusted/bl2/multi_console.o
 .debug_line    0x0000000000007239      0x16f /home/ming/tf-a-stm32mp-2.2.r2-r0/tf-a-stm32mp-2.2.r2/../build/trusted/bl2/plat_bl_common.o
 .debug_line    0x00000000000073a8       0xd5 /home/ming/tf-a-stm32mp-2.2.r2-r0/tf-a-stm32mp-2.2.r2/../build/trusted/bl2/plat_log_common.o
 .debug_line    0x000000000000747d       0x6b /home/ming/tf-a-stm32mp-2.2.r2-r0/tf-a-stm32mp-2.2.r2/../build/trusted/bl2/popcountsi2.o
 .debug_line    0x00000000000074e8       0x65 /home/ming/tf-a-stm32mp-2.2.r2-r0/tf-a-stm32mp-2.2.r2/../build/trusted/bl2/ctzdi2.o
 .debug_line    0x000000000000754d      0x121 /home/ming/tf-a-stm32mp-2.2.r2-r0/tf-a-stm32mp-2.2.r2/../build/trusted/bl2/udivmoddi4.o
 .debug_line    0x000000000000766e      0x375 /home/ming/tf-a-stm32mp-2.2.r2-r0/tf-a-stm32mp-2.2.r2/../build/trusted/bl2/stm32mp_common.o
 .debug_line    0x00000000000079e3      0x5c0 /home/ming/tf-a-stm32mp-2.2.r2-r0/tf-a-stm32mp-2.2.r2/../build/trusted/bl2/stm32mp1_private.o
 .debug_line    0x0000000000007fa3      0x393 /home/ming/tf-a-stm32mp-2.2.r2-r0/tf-a-stm32mp-2.2.r2/../build/trusted/bl2/xlat_tables_arch.o
 .debug_line    0x0000000000008336      0x282 /home/ming/tf-a-stm32mp-2.2.r2-r0/tf-a-stm32mp-2.2.r2/../build/trusted/bl2/xlat_tables_context.o
 .debug_line    0x00000000000085b8      0x6d5 /home/ming/tf-a-stm32mp-2.2.r2-r0/tf-a-stm32mp-2.2.r2/../build/trusted/bl2/xlat_tables_core.o
 .debug_line    0x0000000000008c8d      0x354 /home/ming/tf-a-stm32mp-2.2.r2-r0/tf-a-stm32mp-2.2.r2/../build/trusted/bl2/xlat_tables_utils.o
 .debug_line    0x0000000000008fe1      0x41b /home/ming/tf-a-stm32mp-2.2.r2-r0/tf-a-stm32mp-2.2.r2/../build/trusted/bl2/tzc400.o
 .debug_line    0x00000000000093fc      0x181 /home/ming/tf-a-stm32mp-2.2.r2-r0/tf-a-stm32mp-2.2.r2/../build/trusted/bl2/delay_timer.o
 .debug_line    0x000000000000957d      0x1c7 /home/ming/tf-a-stm32mp-2.2.r2-r0/tf-a-stm32mp-2.2.r2/../build/trusted/bl2/generic_delay_timer.o
 .debug_line    0x0000000000009744      0x713 /home/ming/tf-a-stm32mp-2.2.r2-r0/tf-a-stm32mp-2.2.r2/../build/trusted/bl2/bsec2.o
 .debug_line    0x0000000000009e57      0x44d /home/ming/tf-a-stm32mp-2.2.r2-r0/tf-a-stm32mp-2.2.r2/../build/trusted/bl2/stm32mp_clkfunc.o
 .debug_line    0x000000000000a2a4     0x1301 /home/ming/tf-a-stm32mp-2.2.r2-r0/tf-a-stm32mp-2.2.r2/../build/trusted/bl2/stm32mp1_clk.o
 .debug_line    0x000000000000b5a5      0x74d /home/ming/tf-a-stm32mp-2.2.r2-r0/tf-a-stm32mp-2.2.r2/../build/trusted/bl2/stm32mp1_ddr_helpers.o
 .debug_line    0x000000000000bcf2      0x3af /home/ming/tf-a-stm32mp-2.2.r2-r0/tf-a-stm32mp-2.2.r2/../build/trusted/bl2/stm32_gpio.o
 .debug_line    0x000000000000c0a1      0x8eb /home/ming/tf-a-stm32mp-2.2.r2-r0/tf-a-stm32mp-2.2.r2/../build/trusted/bl2/stm32_i2c.o
 .debug_line    0x000000000000c98c      0x21b /home/ming/tf-a-stm32mp-2.2.r2-r0/tf-a-stm32mp-2.2.r2/../build/trusted/bl2/stm32_iwdg.o
 .debug_line    0x000000000000cba7      0x4ba /home/ming/tf-a-stm32mp-2.2.r2-r0/tf-a-stm32mp-2.2.r2/../build/trusted/bl2/stm32mp_pmic.o
 .debug_line    0x000000000000d061      0x2f9 /home/ming/tf-a-stm32mp-2.2.r2-r0/tf-a-stm32mp-2.2.r2/../build/trusted/bl2/stpmic1.o
 .debug_line    0x000000000000d35a       0x9a /home/ming/tf-a-stm32mp-2.2.r2-r0/tf-a-stm32mp-2.2.r2/../build/trusted/bl2/stm32mp_dummy_regulator.o
 .debug_line    0x000000000000d3f4      0x161 /home/ming/tf-a-stm32mp-2.2.r2-r0/tf-a-stm32mp-2.2.r2/../build/trusted/bl2/stm32mp_regulator.o
 .debug_line    0x000000000000d555      0x223 /home/ming/tf-a-stm32mp-2.2.r2-r0/tf-a-stm32mp-2.2.r2/../build/trusted/bl2/stm32mp1_reset.o
 .debug_line    0x000000000000d778      0x58b /home/ming/tf-a-stm32mp-2.2.r2-r0/tf-a-stm32mp-2.2.r2/../build/trusted/bl2/stm32mp_dt.o
 .debug_line    0x000000000000dd03      0x1a0 /home/ming/tf-a-stm32mp-2.2.r2-r0/tf-a-stm32mp-2.2.r2/../build/trusted/bl2/stm32mp_shres_helpers.o
 .debug_line    0x000000000000dea3      0x3e4 /home/ming/tf-a-stm32mp-2.2.r2-r0/tf-a-stm32mp-2.2.r2/../build/trusted/bl2/stm32mp1_context.o
 .debug_line    0x000000000000e287      0x1a7 /home/ming/tf-a-stm32mp-2.2.r2-r0/tf-a-stm32mp-2.2.r2/../build/trusted/bl2/stm32mp1_dbgmcu.o
 .debug_line    0x000000000000e42e      0x170 /home/ming/tf-a-stm32mp-2.2.r2-r0/tf-a-stm32mp-2.2.r2/../build/trusted/bl2/stm32mp1_security.o
 .debug_line    0x000000000000e59e      0x292 /home/ming/tf-a-stm32mp-2.2.r2-r0/tf-a-stm32mp-2.2.r2/../build/trusted/bl2/stm32mp1_syscfg.o
 .debug_line    0x000000000000e830       0x70 /home/ming/tf-a-stm32mp-2.2.r2-r0/tf-a-stm32mp-2.2.r2/../build/trusted/bl2/spinlock.o
 .debug_line    0x000000000000e8a0       0x6b /home/ming/tf-a-stm32mp-2.2.r2-r0/tf-a-stm32mp-2.2.r2/../build/trusted/bl2/platform_up_stack.o
 .debug_line    0x000000000000e90b       0x81 /home/ming/tf-a-stm32mp-2.2.r2-r0/tf-a-stm32mp-2.2.r2/../build/trusted/bl2/bl2_el3_entrypoint.o
 .debug_line    0x000000000000e98c       0x57 /home/ming/tf-a-stm32mp-2.2.r2-r0/tf-a-stm32mp-2.2.r2/../build/trusted/bl2/bl2_el3_exceptions.o
 .debug_line    0x000000000000e9e3       0xb7 /home/ming/tf-a-stm32mp-2.2.r2-r0/tf-a-stm32mp-2.2.r2/../build/trusted/bl2/cpu_helpers.o
 .debug_line    0x000000000000ea9a      0x104 /home/ming/tf-a-stm32mp-2.2.r2-r0/tf-a-stm32mp-2.2.r2/../build/trusted/bl2/debug.o
 .debug_line    0x000000000000eb9e       0xef /home/ming/tf-a-stm32mp-2.2.r2-r0/tf-a-stm32mp-2.2.r2/../build/trusted/bl2/cache_helpers.o
 .debug_line    0x000000000000ec8d       0xbe /home/ming/tf-a-stm32mp-2.2.r2-r0/tf-a-stm32mp-2.2.r2/../build/trusted/bl2/misc_helpers.o
 .debug_line    0x000000000000ed4b       0x67 /home/ming/tf-a-stm32mp-2.2.r2-r0/tf-a-stm32mp-2.2.r2/../build/trusted/bl2/aeabi_uldivmod.o
 .debug_line    0x000000000000edb2      0x107 /home/ming/tf-a-stm32mp-2.2.r2-r0/tf-a-stm32mp-2.2.r2/../build/trusted/bl2/stm32_console.o
 .debug_line    0x000000000000eeb9       0xa4 /home/ming/tf-a-stm32mp-2.2.r2-r0/tf-a-stm32mp-2.2.r2/../build/trusted/bl2/enable_mmu.o
 .debug_line    0x000000000000ef5d       0xa2 /home/ming/tf-a-stm32mp-2.2.r2-r0/tf-a-stm32mp-2.2.r2/../build/trusted/bl2/cortex_a7.o
 .debug_line    0x000000000000efff      0x1eb /home/ming/tf-a-stm32mp-2.2.r2-r0/tf-a-stm32mp-2.2.r2/../build/trusted/bl2/stm32mp1_helper.o
 .debug_line    0x000000000000f1ea      0x25e /home/ming/tf-a-stm32mp-2.2.r2-r0/tf-a-stm32mp-2.2.r2/../build/trusted/lib/libfdt.a(fdt.o)
 .debug_line    0x000000000000f448       0xd2 /home/ming/tf-a-stm32mp-2.2.r2-r0/tf-a-stm32mp-2.2.r2/../build/trusted/lib/libfdt.a(fdt_addresses.o)
 .debug_line    0x000000000000f51a      0x5db /home/ming/tf-a-stm32mp-2.2.r2-r0/tf-a-stm32mp-2.2.r2/../build/trusted/lib/libfdt.a(fdt_ro.o)
 .debug_line    0x000000000000faf5      0x123 /home/ming/tf-a-stm32mp-2.2.r2-r0/tf-a-stm32mp-2.2.r2/../build/trusted/lib/libc.a(assert.o)
 .debug_line    0x000000000000fc18       0x6d /home/ming/tf-a-stm32mp-2.2.r2-r0/tf-a-stm32mp-2.2.r2/../build/trusted/lib/libc.a(memchr.o)
 .debug_line    0x000000000000fc85       0x70 /home/ming/tf-a-stm32mp-2.2.r2-r0/tf-a-stm32mp-2.2.r2/../build/trusted/lib/libc.a(memcmp.o)
 .debug_line    0x000000000000fcf5       0x6a /home/ming/tf-a-stm32mp-2.2.r2-r0/tf-a-stm32mp-2.2.r2/../build/trusted/lib/libc.a(memcpy.o)
 .debug_line    0x000000000000fd5f       0xa0 /home/ming/tf-a-stm32mp-2.2.r2-r0/tf-a-stm32mp-2.2.r2/../build/trusted/lib/libc.a(memmove.o)
 .debug_line    0x000000000000fdff       0x6b /home/ming/tf-a-stm32mp-2.2.r2-r0/tf-a-stm32mp-2.2.r2/../build/trusted/lib/libc.a(memset.o)
 .debug_line    0x000000000000fe6a      0x1c3 /home/ming/tf-a-stm32mp-2.2.r2-r0/tf-a-stm32mp-2.2.r2/../build/trusted/lib/libc.a(printf.o)
 .debug_line    0x000000000001002d       0x62 /home/ming/tf-a-stm32mp-2.2.r2-r0/tf-a-stm32mp-2.2.r2/../build/trusted/lib/libc.a(putchar.o)
 .debug_line    0x000000000001008f      0x194 /home/ming/tf-a-stm32mp-2.2.r2-r0/tf-a-stm32mp-2.2.r2/../build/trusted/lib/libc.a(snprintf.o)
 .debug_line    0x0000000000010223       0x46 /home/ming/tf-a-stm32mp-2.2.r2-r0/tf-a-stm32mp-2.2.r2/../build/trusted/lib/libc.a(strchr.o)
 .debug_line    0x0000000000010269       0x45 /home/ming/tf-a-stm32mp-2.2.r2-r0/tf-a-stm32mp-2.2.r2/../build/trusted/lib/libc.a(strcmp.o)
 .debug_line    0x00000000000102ae       0x69 /home/ming/tf-a-stm32mp-2.2.r2-r0/tf-a-stm32mp-2.2.r2/../build/trusted/lib/libc.a(strlen.o)
 .debug_line    0x0000000000010317       0x71 /home/ming/tf-a-stm32mp-2.2.r2-r0/tf-a-stm32mp-2.2.r2/../build/trusted/lib/libc.a(strncmp.o)
 .debug_line    0x0000000000010388       0x77 /home/ming/tf-a-stm32mp-2.2.r2-r0/tf-a-stm32mp-2.2.r2/../build/trusted/lib/libc.a(strnlen.o)
 .debug_line    0x00000000000103ff       0x48 /home/ming/tf-a-stm32mp-2.2.r2-r0/tf-a-stm32mp-2.2.r2/../build/trusted/lib/libc.a(strrchr.o)

.debug_str      0x0000000000000000     0x9af9
 .debug_str     0x0000000000000000      0x10f /home/ming/tf-a-stm32mp-2.2.r2-r0/tf-a-stm32mp-2.2.r2/../build/trusted/bl2/build_message.o
                                        0x121 (size before relaxing)
 .debug_str     0x000000000000010f      0x42e /home/ming/tf-a-stm32mp-2.2.r2-r0/tf-a-stm32mp-2.2.r2/../build/trusted/bl2/io_block.o
                                        0x65f (size before relaxing)
 .debug_str     0x000000000000053d       0xfa /home/ming/tf-a-stm32mp-2.2.r2-r0/tf-a-stm32mp-2.2.r2/../build/trusted/bl2/io_dummy.o
                                        0x536 (size before relaxing)
 .debug_str     0x0000000000000637      0x10d /home/ming/tf-a-stm32mp-2.2.r2-r0/tf-a-stm32mp-2.2.r2/../build/trusted/bl2/io_mtd.o
                                        0x5c6 (size before relaxing)
 .debug_str     0x0000000000000744      0x136 /home/ming/tf-a-stm32mp-2.2.r2-r0/tf-a-stm32mp-2.2.r2/../build/trusted/bl2/io_storage.o
                                        0x5af (size before relaxing)
 .debug_str     0x000000000000087a      0x35e /home/ming/tf-a-stm32mp-2.2.r2-r0/tf-a-stm32mp-2.2.r2/../build/trusted/bl2/stm32_hash.o
                                        0x5f3 (size before relaxing)
 .debug_str     0x0000000000000bd8      0x31c /home/ming/tf-a-stm32mp-2.2.r2-r0/tf-a-stm32mp-2.2.r2/../build/trusted/bl2/io_stm32image.o
                                        0x821 (size before relaxing)
 .debug_str     0x0000000000000ef4      0x6a8 /home/ming/tf-a-stm32mp-2.2.r2-r0/tf-a-stm32mp-2.2.r2/../build/trusted/bl2/bl2_io_storage.o
                                        0xd26 (size before relaxing)
 .debug_str     0x000000000000159c      0x7a0 /home/ming/tf-a-stm32mp-2.2.r2-r0/tf-a-stm32mp-2.2.r2/../build/trusted/bl2/bl2_plat_setup.o
                                        0xe89 (size before relaxing)
 .debug_str     0x0000000000001d3c      0x576 /home/ming/tf-a-stm32mp-2.2.r2-r0/tf-a-stm32mp-2.2.r2/../build/trusted/bl2/auth_mod.o
                                        0x81d (size before relaxing)
 .debug_str     0x00000000000022b2       0x3a /home/ming/tf-a-stm32mp-2.2.r2-r0/tf-a-stm32mp-2.2.r2/../build/trusted/bl2/crypto_mod.o
                                        0x343 (size before relaxing)
 .debug_str     0x00000000000022ec      0x145 /home/ming/tf-a-stm32mp-2.2.r2-r0/tf-a-stm32mp-2.2.r2/../build/trusted/bl2/img_parser_mod.o
                                        0x52e (size before relaxing)
 .debug_str     0x0000000000002431       0x7d /home/ming/tf-a-stm32mp-2.2.r2-r0/tf-a-stm32mp-2.2.r2/../build/trusted/bl2/stm32mp_cot.o
                                        0x5eb (size before relaxing)
 .debug_str     0x00000000000024ae       0xcb /home/ming/tf-a-stm32mp-2.2.r2-r0/tf-a-stm32mp-2.2.r2/../build/trusted/bl2/stm32mp_crypto_lib.o
                                        0x8a7 (size before relaxing)
 .debug_str     0x0000000000002579       0x9d /home/ming/tf-a-stm32mp-2.2.r2-r0/tf-a-stm32mp-2.2.r2/../build/trusted/bl2/stm32mp_img_parser_lib.o
                                        0x544 (size before relaxing)
 .debug_str     0x0000000000002616       0x7e /home/ming/tf-a-stm32mp-2.2.r2-r0/tf-a-stm32mp-2.2.r2/../build/trusted/bl2/stm32mp_trusted_boot.o
                                        0x32a (size before relaxing)
 .debug_str     0x0000000000002694      0x554 /home/ming/tf-a-stm32mp-2.2.r2-r0/tf-a-stm32mp-2.2.r2/../build/trusted/bl2/mmc.o
                                        0x8b9 (size before relaxing)
 .debug_str     0x0000000000002be8       0x7d /home/ming/tf-a-stm32mp-2.2.r2-r0/tf-a-stm32mp-2.2.r2/../build/trusted/bl2/gpt.o
                                        0x302 (size before relaxing)
 .debug_str     0x0000000000002c65      0x181 /home/ming/tf-a-stm32mp-2.2.r2-r0/tf-a-stm32mp-2.2.r2/../build/trusted/bl2/partition.o
                                        0x599 (size before relaxing)
 .debug_str     0x0000000000002de6       0xb8 /home/ming/tf-a-stm32mp-2.2.r2-r0/tf-a-stm32mp-2.2.r2/../build/trusted/bl2/io_mmc.o
                                        0x52a (size before relaxing)
 .debug_str     0x0000000000002e9e      0x2a4 /home/ming/tf-a-stm32mp-2.2.r2-r0/tf-a-stm32mp-2.2.r2/../build/trusted/bl2/stm32_sdmmc2.o
                                        0x8ad (size before relaxing)
 .debug_str     0x0000000000003142      0x466 /home/ming/tf-a-stm32mp-2.2.r2-r0/tf-a-stm32mp-2.2.r2/../build/trusted/bl2/raw_nand.o
                                        0x84a (size before relaxing)
 .debug_str     0x00000000000035a8      0x3dc /home/ming/tf-a-stm32mp-2.2.r2-r0/tf-a-stm32mp-2.2.r2/../build/trusted/bl2/stm32_fmc2_nand.o
                                        0x955 (size before relaxing)
 .debug_str     0x0000000000003984      0x20d /home/ming/tf-a-stm32mp-2.2.r2-r0/tf-a-stm32mp-2.2.r2/../build/trusted/bl2/spi_nand.o
                                        0x5de (size before relaxing)
 .debug_str     0x0000000000003b91      0x190 /home/ming/tf-a-stm32mp-2.2.r2-r0/tf-a-stm32mp-2.2.r2/../build/trusted/bl2/spi_nor.o
                                        0x510 (size before relaxing)
 .debug_str     0x0000000000003d21       0xb3 /home/ming/tf-a-stm32mp-2.2.r2-r0/tf-a-stm32mp-2.2.r2/../build/trusted/bl2/spi_mem.o
                                        0x403 (size before relaxing)
 .debug_str     0x0000000000003dd4      0x1b3 /home/ming/tf-a-stm32mp-2.2.r2-r0/tf-a-stm32mp-2.2.r2/../build/trusted/bl2/stm32_qspi.o
                                        0x6ac (size before relaxing)
 .debug_str     0x0000000000003f87       0x64 /home/ming/tf-a-stm32mp-2.2.r2-r0/tf-a-stm32mp-2.2.r2/../build/trusted/bl2/core.o
                                        0x35d (size before relaxing)
 .debug_str     0x0000000000003feb       0x4c /home/ming/tf-a-stm32mp-2.2.r2-r0/tf-a-stm32mp-2.2.r2/../build/trusted/bl2/stm32mp1_boot_device.o
                                        0x482 (size before relaxing)
 .debug_str     0x0000000000004037      0xad4 /home/ming/tf-a-stm32mp-2.2.r2-r0/tf-a-stm32mp-2.2.r2/../build/trusted/bl2/stm32mp1_ddr.o
                                        0xed6 (size before relaxing)
 .debug_str     0x0000000000004b0b      0x1c6 /home/ming/tf-a-stm32mp-2.2.r2-r0/tf-a-stm32mp-2.2.r2/../build/trusted/bl2/stm32mp1_ram.o
                                        0xd7c (size before relaxing)
 .debug_str     0x0000000000004cd1      0x213 /home/ming/tf-a-stm32mp-2.2.r2-r0/tf-a-stm32mp-2.2.r2/../build/trusted/bl2/desc_image_load.o
                                        0x6d0 (size before relaxing)
 .debug_str     0x0000000000004ee4       0x41 /home/ming/tf-a-stm32mp-2.2.r2-r0/tf-a-stm32mp-2.2.r2/../build/trusted/bl2/plat_bl2_mem_params_desc.o
                                        0x43f (size before relaxing)
 .debug_str     0x0000000000004f25       0x7b /home/ming/tf-a-stm32mp-2.2.r2-r0/tf-a-stm32mp-2.2.r2/../build/trusted/bl2/plat_image_load.o
                                        0x8a6 (size before relaxing)
 .debug_str     0x0000000000004fa0       0x96 /home/ming/tf-a-stm32mp-2.2.r2-r0/tf-a-stm32mp-2.2.r2/../build/trusted/bl2/bl2_image_load_v2.o
                                        0x8d5 (size before relaxing)
 .debug_str     0x0000000000005036       0x86 /home/ming/tf-a-stm32mp-2.2.r2-r0/tf-a-stm32mp-2.2.r2/../build/trusted/bl2/bl2_main.o
                                        0x711 (size before relaxing)
 .debug_str     0x00000000000050bc       0x1d /home/ming/tf-a-stm32mp-2.2.r2-r0/tf-a-stm32mp-2.2.r2/../build/trusted/bl2/bl2_arch_setup.o
                                        0x213 (size before relaxing)
 .debug_str     0x00000000000050d9       0x81 /home/ming/tf-a-stm32mp-2.2.r2-r0/tf-a-stm32mp-2.2.r2/../build/trusted/bl2/bl_common.o
                                        0x80c (size before relaxing)
 .debug_str     0x000000000000515a       0x66 /home/ming/tf-a-stm32mp-2.2.r2-r0/tf-a-stm32mp-2.2.r2/../build/trusted/bl2/tf_log.o
                                        0x2a3 (size before relaxing)
 .debug_str     0x00000000000051c0      0x104 /home/ming/tf-a-stm32mp-2.2.r2-r0/tf-a-stm32mp-2.2.r2/../build/trusted/bl2/multi_console.o
                                        0x388 (size before relaxing)
 .debug_str     0x00000000000052c4       0xa9 /home/ming/tf-a-stm32mp-2.2.r2-r0/tf-a-stm32mp-2.2.r2/../build/trusted/bl2/plat_bl_common.o
                                        0x367 (size before relaxing)
 .debug_str     0x000000000000536d       0x2e /home/ming/tf-a-stm32mp-2.2.r2-r0/tf-a-stm32mp-2.2.r2/../build/trusted/bl2/plat_log_common.o
                                        0x265 (size before relaxing)
 .debug_str     0x000000000000539b       0x74 /home/ming/tf-a-stm32mp-2.2.r2-r0/tf-a-stm32mp-2.2.r2/../build/trusted/bl2/popcountsi2.o
                                        0x203 (size before relaxing)
 .debug_str     0x000000000000540f       0x32 /home/ming/tf-a-stm32mp-2.2.r2-r0/tf-a-stm32mp-2.2.r2/../build/trusted/bl2/ctzdi2.o
                                        0x20c (size before relaxing)
 .debug_str     0x0000000000005441       0x63 /home/ming/tf-a-stm32mp-2.2.r2-r0/tf-a-stm32mp-2.2.r2/../build/trusted/bl2/udivmoddi4.o
                                        0x236 (size before relaxing)
 .debug_str     0x00000000000054a4      0x158 /home/ming/tf-a-stm32mp-2.2.r2-r0/tf-a-stm32mp-2.2.r2/../build/trusted/bl2/stm32mp_common.o
                                        0x5fa (size before relaxing)
 .debug_str     0x00000000000055fc      0x414 /home/ming/tf-a-stm32mp-2.2.r2-r0/tf-a-stm32mp-2.2.r2/../build/trusted/bl2/stm32mp1_private.o
                                        0x902 (size before relaxing)
 .debug_str     0x0000000000005a10      0x2a0 /home/ming/tf-a-stm32mp-2.2.r2-r0/tf-a-stm32mp-2.2.r2/../build/trusted/bl2/xlat_tables_arch.o
                                        0x547 (size before relaxing)
 .debug_str     0x0000000000005cb0      0x20e /home/ming/tf-a-stm32mp-2.2.r2-r0/tf-a-stm32mp-2.2.r2/../build/trusted/bl2/xlat_tables_context.o
                                        0x5fe (size before relaxing)
 .debug_str     0x0000000000005ebe      0x3b0 /home/ming/tf-a-stm32mp-2.2.r2-r0/tf-a-stm32mp-2.2.r2/../build/trusted/bl2/xlat_tables_core.o
                                        0x911 (size before relaxing)
 .debug_str     0x000000000000626e      0x115 /home/ming/tf-a-stm32mp-2.2.r2-r0/tf-a-stm32mp-2.2.r2/../build/trusted/bl2/xlat_tables_utils.o
                                        0x58f (size before relaxing)
 .debug_str     0x0000000000006383      0x320 /home/ming/tf-a-stm32mp-2.2.r2-r0/tf-a-stm32mp-2.2.r2/../build/trusted/bl2/tzc400.o
                                        0x61a (size before relaxing)
 .debug_str     0x00000000000066a3       0x6f /home/ming/tf-a-stm32mp-2.2.r2-r0/tf-a-stm32mp-2.2.r2/../build/trusted/bl2/delay_timer.o
                                        0x2c6 (size before relaxing)
 .debug_str     0x0000000000006712       0x6f /home/ming/tf-a-stm32mp-2.2.r2-r0/tf-a-stm32mp-2.2.r2/../build/trusted/bl2/generic_delay_timer.o
                                        0x334 (size before relaxing)
 .debug_str     0x0000000000006781      0x2c2 /home/ming/tf-a-stm32mp-2.2.r2-r0/tf-a-stm32mp-2.2.r2/../build/trusted/bl2/bsec2.o
                                        0x6f6 (size before relaxing)
 .debug_str     0x0000000000006a43      0x272 /home/ming/tf-a-stm32mp-2.2.r2-r0/tf-a-stm32mp-2.2.r2/../build/trusted/bl2/stm32mp_clkfunc.o
                                        0x676 (size before relaxing)
 .debug_str     0x0000000000006cb5     0x1215 /home/ming/tf-a-stm32mp-2.2.r2-r0/tf-a-stm32mp-2.2.r2/../build/trusted/bl2/stm32mp1_clk.o
                                       0x1932 (size before relaxing)
 .debug_str     0x0000000000007eca      0x1b5 /home/ming/tf-a-stm32mp-2.2.r2-r0/tf-a-stm32mp-2.2.r2/../build/trusted/bl2/stm32mp1_ddr_helpers.o
                                        0x624 (size before relaxing)
 .debug_str     0x000000000000807f      0x117 /home/ming/tf-a-stm32mp-2.2.r2-r0/tf-a-stm32mp-2.2.r2/../build/trusted/bl2/stm32_gpio.o
                                        0x520 (size before relaxing)
 .debug_str     0x0000000000008196      0x551 /home/ming/tf-a-stm32mp-2.2.r2-r0/tf-a-stm32mp-2.2.r2/../build/trusted/bl2/stm32_i2c.o
                                        0x954 (size before relaxing)
 .debug_str     0x00000000000086e7       0x5b /home/ming/tf-a-stm32mp-2.2.r2-r0/tf-a-stm32mp-2.2.r2/../build/trusted/bl2/stm32_iwdg.o
                                        0x431 (size before relaxing)
 .debug_str     0x0000000000008742      0x326 /home/ming/tf-a-stm32mp-2.2.r2-r0/tf-a-stm32mp-2.2.r2/../build/trusted/bl2/stm32mp_pmic.o
                                        0xaa4 (size before relaxing)
 .debug_str     0x0000000000008a68      0x29c /home/ming/tf-a-stm32mp-2.2.r2-r0/tf-a-stm32mp-2.2.r2/../build/trusted/bl2/stpmic1.o
                                        0x71f (size before relaxing)
 .debug_str     0x0000000000008d04       0x6d /home/ming/tf-a-stm32mp-2.2.r2-r0/tf-a-stm32mp-2.2.r2/../build/trusted/bl2/stm32mp_dummy_regulator.o
                                        0x1c0 (size before relaxing)
 .debug_str     0x0000000000008d71       0x29 /home/ming/tf-a-stm32mp-2.2.r2-r0/tf-a-stm32mp-2.2.r2/../build/trusted/bl2/stm32mp_regulator.o
                                        0x2f3 (size before relaxing)
 .debug_str     0x0000000000008d9a       0x85 /home/ming/tf-a-stm32mp-2.2.r2-r0/tf-a-stm32mp-2.2.r2/../build/trusted/bl2/stm32mp1_reset.o
                                        0x3d1 (size before relaxing)
 .debug_str     0x0000000000008e1f      0x1e9 /home/ming/tf-a-stm32mp-2.2.r2-r0/tf-a-stm32mp-2.2.r2/../build/trusted/bl2/stm32mp_dt.o
                                        0x7e3 (size before relaxing)
 .debug_str     0x0000000000009008       0x7f /home/ming/tf-a-stm32mp-2.2.r2-r0/tf-a-stm32mp-2.2.r2/../build/trusted/bl2/stm32mp_shres_helpers.o
                                        0x373 (size before relaxing)
 .debug_str     0x0000000000009087      0x2fc /home/ming/tf-a-stm32mp-2.2.r2-r0/tf-a-stm32mp-2.2.r2/../build/trusted/bl2/stm32mp1_context.o
                                        0x7c6 (size before relaxing)
 .debug_str     0x0000000000009383       0x4e /home/ming/tf-a-stm32mp-2.2.r2-r0/tf-a-stm32mp-2.2.r2/../build/trusted/bl2/stm32mp1_dbgmcu.o
                                        0x345 (size before relaxing)
 .debug_str     0x00000000000093d1       0x57 /home/ming/tf-a-stm32mp-2.2.r2-r0/tf-a-stm32mp-2.2.r2/../build/trusted/bl2/stm32mp1_security.o
                                        0x342 (size before relaxing)
 .debug_str     0x0000000000009428       0x8a /home/ming/tf-a-stm32mp-2.2.r2-r0/tf-a-stm32mp-2.2.r2/../build/trusted/bl2/stm32mp1_syscfg.o
                                        0x428 (size before relaxing)
 .debug_str     0x00000000000094b2      0x157 /home/ming/tf-a-stm32mp-2.2.r2-r0/tf-a-stm32mp-2.2.r2/../build/trusted/lib/libfdt.a(fdt.o)
                                        0x367 (size before relaxing)
 .debug_str     0x0000000000009609       0x1b /home/ming/tf-a-stm32mp-2.2.r2-r0/tf-a-stm32mp-2.2.r2/../build/trusted/lib/libfdt.a(fdt_addresses.o)
                                        0x1f4 (size before relaxing)
 .debug_str     0x0000000000009624      0x33b /home/ming/tf-a-stm32mp-2.2.r2-r0/tf-a-stm32mp-2.2.r2/../build/trusted/lib/libfdt.a(fdt_ro.o)
                                        0x788 (size before relaxing)
 .debug_str     0x000000000000995f       0x2a /home/ming/tf-a-stm32mp-2.2.r2-r0/tf-a-stm32mp-2.2.r2/../build/trusted/lib/libc.a(assert.o)
                                        0x24c (size before relaxing)
 .debug_str     0x0000000000009989       0x12 /home/ming/tf-a-stm32mp-2.2.r2-r0/tf-a-stm32mp-2.2.r2/../build/trusted/lib/libc.a(memchr.o)
                                        0x136 (size before relaxing)
 .debug_str     0x000000000000999b       0x12 /home/ming/tf-a-stm32mp-2.2.r2-r0/tf-a-stm32mp-2.2.r2/../build/trusted/lib/libc.a(memcmp.o)
                                        0x136 (size before relaxing)
 .debug_str     0x00000000000099ad       0x12 /home/ming/tf-a-stm32mp-2.2.r2-r0/tf-a-stm32mp-2.2.r2/../build/trusted/lib/libc.a(memcpy.o)
                                        0x12d (size before relaxing)
 .debug_str     0x00000000000099bf       0x13 /home/ming/tf-a-stm32mp-2.2.r2-r0/tf-a-stm32mp-2.2.r2/../build/trusted/lib/libc.a(memmove.o)
                                        0x12d (size before relaxing)
 .debug_str     0x00000000000099d2       0x12 /home/ming/tf-a-stm32mp-2.2.r2-r0/tf-a-stm32mp-2.2.r2/../build/trusted/lib/libc.a(memset.o)
                                        0x133 (size before relaxing)
 .debug_str     0x00000000000099e4       0x57 /home/ming/tf-a-stm32mp-2.2.r2-r0/tf-a-stm32mp-2.2.r2/../build/trusted/lib/libc.a(printf.o)
                                        0x295 (size before relaxing)
 .debug_str     0x0000000000009a3b       0x13 /home/ming/tf-a-stm32mp-2.2.r2-r0/tf-a-stm32mp-2.2.r2/../build/trusted/lib/libc.a(putchar.o)
                                        0x1a3 (size before relaxing)
 .debug_str     0x0000000000009a4e       0x35 /home/ming/tf-a-stm32mp-2.2.r2-r0/tf-a-stm32mp-2.2.r2/../build/trusted/lib/libc.a(snprintf.o)
                                        0x28c (size before relaxing)
 .debug_str     0x0000000000009a83       0x12 /home/ming/tf-a-stm32mp-2.2.r2-r0/tf-a-stm32mp-2.2.r2/../build/trusted/lib/libc.a(strchr.o)
                                        0x126 (size before relaxing)
 .debug_str     0x0000000000009a95       0x12 /home/ming/tf-a-stm32mp-2.2.r2-r0/tf-a-stm32mp-2.2.r2/../build/trusted/lib/libc.a(strcmp.o)
                                        0x11d (size before relaxing)
 .debug_str     0x0000000000009aa7       0x12 /home/ming/tf-a-stm32mp-2.2.r2-r0/tf-a-stm32mp-2.2.r2/../build/trusted/lib/libc.a(strlen.o)
                                        0x12b (size before relaxing)
 .debug_str     0x0000000000009ab9       0x13 /home/ming/tf-a-stm32mp-2.2.r2-r0/tf-a-stm32mp-2.2.r2/../build/trusted/lib/libc.a(strncmp.o)
                                        0x126 (size before relaxing)
 .debug_str     0x0000000000009acc       0x1a /home/ming/tf-a-stm32mp-2.2.r2-r0/tf-a-stm32mp-2.2.r2/../build/trusted/lib/libc.a(strnlen.o)
                                        0x12d (size before relaxing)
 .debug_str     0x0000000000009ae6       0x13 /home/ming/tf-a-stm32mp-2.2.r2-r0/tf-a-stm32mp-2.2.r2/../build/trusted/lib/libc.a(strrchr.o)
                                        0x12d (size before relaxing)

.comment        0x0000000000000000       0x24
 .comment       0x0000000000000000       0x24 /home/ming/tf-a-stm32mp-2.2.r2-r0/tf-a-stm32mp-2.2.r2/../build/trusted/bl2/build_message.o
                                         0x25 (size before relaxing)
 .comment       0x0000000000000024       0x25 /home/ming/tf-a-stm32mp-2.2.r2-r0/tf-a-stm32mp-2.2.r2/../build/trusted/bl2/io_block.o
 .comment       0x0000000000000024       0x25 /home/ming/tf-a-stm32mp-2.2.r2-r0/tf-a-stm32mp-2.2.r2/../build/trusted/bl2/io_dummy.o
 .comment       0x0000000000000024       0x25 /home/ming/tf-a-stm32mp-2.2.r2-r0/tf-a-stm32mp-2.2.r2/../build/trusted/bl2/io_mtd.o
 .comment       0x0000000000000024       0x25 /home/ming/tf-a-stm32mp-2.2.r2-r0/tf-a-stm32mp-2.2.r2/../build/trusted/bl2/io_storage.o
 .comment       0x0000000000000024       0x25 /home/ming/tf-a-stm32mp-2.2.r2-r0/tf-a-stm32mp-2.2.r2/../build/trusted/bl2/stm32_hash.o
 .comment       0x0000000000000024       0x25 /home/ming/tf-a-stm32mp-2.2.r2-r0/tf-a-stm32mp-2.2.r2/../build/trusted/bl2/io_stm32image.o
 .comment       0x0000000000000024       0x25 /home/ming/tf-a-stm32mp-2.2.r2-r0/tf-a-stm32mp-2.2.r2/../build/trusted/bl2/bl2_io_storage.o
 .comment       0x0000000000000024       0x25 /home/ming/tf-a-stm32mp-2.2.r2-r0/tf-a-stm32mp-2.2.r2/../build/trusted/bl2/bl2_plat_setup.o
 .comment       0x0000000000000024       0x25 /home/ming/tf-a-stm32mp-2.2.r2-r0/tf-a-stm32mp-2.2.r2/../build/trusted/bl2/auth_mod.o
 .comment       0x0000000000000024       0x25 /home/ming/tf-a-stm32mp-2.2.r2-r0/tf-a-stm32mp-2.2.r2/../build/trusted/bl2/crypto_mod.o
 .comment       0x0000000000000024       0x25 /home/ming/tf-a-stm32mp-2.2.r2-r0/tf-a-stm32mp-2.2.r2/../build/trusted/bl2/img_parser_mod.o
 .comment       0x0000000000000024       0x25 /home/ming/tf-a-stm32mp-2.2.r2-r0/tf-a-stm32mp-2.2.r2/../build/trusted/bl2/stm32mp_cot.o
 .comment       0x0000000000000024       0x25 /home/ming/tf-a-stm32mp-2.2.r2-r0/tf-a-stm32mp-2.2.r2/../build/trusted/bl2/stm32mp_crypto_lib.o
 .comment       0x0000000000000024       0x25 /home/ming/tf-a-stm32mp-2.2.r2-r0/tf-a-stm32mp-2.2.r2/../build/trusted/bl2/stm32mp_img_parser_lib.o
 .comment       0x0000000000000024       0x25 /home/ming/tf-a-stm32mp-2.2.r2-r0/tf-a-stm32mp-2.2.r2/../build/trusted/bl2/stm32mp_trusted_boot.o
 .comment       0x0000000000000024       0x25 /home/ming/tf-a-stm32mp-2.2.r2-r0/tf-a-stm32mp-2.2.r2/../build/trusted/bl2/mmc.o
 .comment       0x0000000000000024       0x25 /home/ming/tf-a-stm32mp-2.2.r2-r0/tf-a-stm32mp-2.2.r2/../build/trusted/bl2/gpt.o
 .comment       0x0000000000000024       0x25 /home/ming/tf-a-stm32mp-2.2.r2-r0/tf-a-stm32mp-2.2.r2/../build/trusted/bl2/partition.o
 .comment       0x0000000000000024       0x25 /home/ming/tf-a-stm32mp-2.2.r2-r0/tf-a-stm32mp-2.2.r2/../build/trusted/bl2/io_mmc.o
 .comment       0x0000000000000024       0x25 /home/ming/tf-a-stm32mp-2.2.r2-r0/tf-a-stm32mp-2.2.r2/../build/trusted/bl2/stm32_sdmmc2.o
 .comment       0x0000000000000024       0x25 /home/ming/tf-a-stm32mp-2.2.r2-r0/tf-a-stm32mp-2.2.r2/../build/trusted/bl2/raw_nand.o
 .comment       0x0000000000000024       0x25 /home/ming/tf-a-stm32mp-2.2.r2-r0/tf-a-stm32mp-2.2.r2/../build/trusted/bl2/stm32_fmc2_nand.o
 .comment       0x0000000000000024       0x25 /home/ming/tf-a-stm32mp-2.2.r2-r0/tf-a-stm32mp-2.2.r2/../build/trusted/bl2/spi_nand.o
 .comment       0x0000000000000024       0x25 /home/ming/tf-a-stm32mp-2.2.r2-r0/tf-a-stm32mp-2.2.r2/../build/trusted/bl2/spi_nor.o
 .comment       0x0000000000000024       0x25 /home/ming/tf-a-stm32mp-2.2.r2-r0/tf-a-stm32mp-2.2.r2/../build/trusted/bl2/spi_mem.o
 .comment       0x0000000000000024       0x25 /home/ming/tf-a-stm32mp-2.2.r2-r0/tf-a-stm32mp-2.2.r2/../build/trusted/bl2/stm32_qspi.o
 .comment       0x0000000000000024       0x25 /home/ming/tf-a-stm32mp-2.2.r2-r0/tf-a-stm32mp-2.2.r2/../build/trusted/bl2/core.o
 .comment       0x0000000000000024       0x25 /home/ming/tf-a-stm32mp-2.2.r2-r0/tf-a-stm32mp-2.2.r2/../build/trusted/bl2/stm32mp1_boot_device.o
 .comment       0x0000000000000024       0x25 /home/ming/tf-a-stm32mp-2.2.r2-r0/tf-a-stm32mp-2.2.r2/../build/trusted/bl2/stm32mp1_ddr.o
 .comment       0x0000000000000024       0x25 /home/ming/tf-a-stm32mp-2.2.r2-r0/tf-a-stm32mp-2.2.r2/../build/trusted/bl2/stm32mp1_ram.o
 .comment       0x0000000000000024       0x25 /home/ming/tf-a-stm32mp-2.2.r2-r0/tf-a-stm32mp-2.2.r2/../build/trusted/bl2/desc_image_load.o
 .comment       0x0000000000000024       0x25 /home/ming/tf-a-stm32mp-2.2.r2-r0/tf-a-stm32mp-2.2.r2/../build/trusted/bl2/plat_bl2_mem_params_desc.o
 .comment       0x0000000000000024       0x25 /home/ming/tf-a-stm32mp-2.2.r2-r0/tf-a-stm32mp-2.2.r2/../build/trusted/bl2/plat_image_load.o
 .comment       0x0000000000000024       0x25 /home/ming/tf-a-stm32mp-2.2.r2-r0/tf-a-stm32mp-2.2.r2/../build/trusted/bl2/bl2_image_load_v2.o
 .comment       0x0000000000000024       0x25 /home/ming/tf-a-stm32mp-2.2.r2-r0/tf-a-stm32mp-2.2.r2/../build/trusted/bl2/bl2_main.o
 .comment       0x0000000000000024       0x25 /home/ming/tf-a-stm32mp-2.2.r2-r0/tf-a-stm32mp-2.2.r2/../build/trusted/bl2/bl2_arch_setup.o
 .comment       0x0000000000000024       0x25 /home/ming/tf-a-stm32mp-2.2.r2-r0/tf-a-stm32mp-2.2.r2/../build/trusted/bl2/bl_common.o
 .comment       0x0000000000000024       0x25 /home/ming/tf-a-stm32mp-2.2.r2-r0/tf-a-stm32mp-2.2.r2/../build/trusted/bl2/tf_log.o
 .comment       0x0000000000000024       0x25 /home/ming/tf-a-stm32mp-2.2.r2-r0/tf-a-stm32mp-2.2.r2/../build/trusted/bl2/multi_console.o
 .comment       0x0000000000000024       0x25 /home/ming/tf-a-stm32mp-2.2.r2-r0/tf-a-stm32mp-2.2.r2/../build/trusted/bl2/plat_bl_common.o
 .comment       0x0000000000000024       0x25 /home/ming/tf-a-stm32mp-2.2.r2-r0/tf-a-stm32mp-2.2.r2/../build/trusted/bl2/plat_log_common.o
 .comment       0x0000000000000024       0x25 /home/ming/tf-a-stm32mp-2.2.r2-r0/tf-a-stm32mp-2.2.r2/../build/trusted/bl2/popcountsi2.o
 .comment       0x0000000000000024       0x25 /home/ming/tf-a-stm32mp-2.2.r2-r0/tf-a-stm32mp-2.2.r2/../build/trusted/bl2/ctzdi2.o
 .comment       0x0000000000000024       0x25 /home/ming/tf-a-stm32mp-2.2.r2-r0/tf-a-stm32mp-2.2.r2/../build/trusted/bl2/udivmoddi4.o
 .comment       0x0000000000000024       0x25 /home/ming/tf-a-stm32mp-2.2.r2-r0/tf-a-stm32mp-2.2.r2/../build/trusted/bl2/stm32mp_common.o
 .comment       0x0000000000000024       0x25 /home/ming/tf-a-stm32mp-2.2.r2-r0/tf-a-stm32mp-2.2.r2/../build/trusted/bl2/stm32mp1_private.o
 .comment       0x0000000000000024       0x25 /home/ming/tf-a-stm32mp-2.2.r2-r0/tf-a-stm32mp-2.2.r2/../build/trusted/bl2/xlat_tables_arch.o
 .comment       0x0000000000000024       0x25 /home/ming/tf-a-stm32mp-2.2.r2-r0/tf-a-stm32mp-2.2.r2/../build/trusted/bl2/xlat_tables_context.o
 .comment       0x0000000000000024       0x25 /home/ming/tf-a-stm32mp-2.2.r2-r0/tf-a-stm32mp-2.2.r2/../build/trusted/bl2/xlat_tables_core.o
 .comment       0x0000000000000024       0x25 /home/ming/tf-a-stm32mp-2.2.r2-r0/tf-a-stm32mp-2.2.r2/../build/trusted/bl2/xlat_tables_utils.o
 .comment       0x0000000000000024       0x25 /home/ming/tf-a-stm32mp-2.2.r2-r0/tf-a-stm32mp-2.2.r2/../build/trusted/bl2/tzc400.o
 .comment       0x0000000000000024       0x25 /home/ming/tf-a-stm32mp-2.2.r2-r0/tf-a-stm32mp-2.2.r2/../build/trusted/bl2/delay_timer.o
 .comment       0x0000000000000024       0x25 /home/ming/tf-a-stm32mp-2.2.r2-r0/tf-a-stm32mp-2.2.r2/../build/trusted/bl2/generic_delay_timer.o
 .comment       0x0000000000000024       0x25 /home/ming/tf-a-stm32mp-2.2.r2-r0/tf-a-stm32mp-2.2.r2/../build/trusted/bl2/bsec2.o
 .comment       0x0000000000000024       0x25 /home/ming/tf-a-stm32mp-2.2.r2-r0/tf-a-stm32mp-2.2.r2/../build/trusted/bl2/stm32mp_clkfunc.o
 .comment       0x0000000000000024       0x25 /home/ming/tf-a-stm32mp-2.2.r2-r0/tf-a-stm32mp-2.2.r2/../build/trusted/bl2/stm32mp1_clk.o
 .comment       0x0000000000000024       0x25 /home/ming/tf-a-stm32mp-2.2.r2-r0/tf-a-stm32mp-2.2.r2/../build/trusted/bl2/stm32mp1_ddr_helpers.o
 .comment       0x0000000000000024       0x25 /home/ming/tf-a-stm32mp-2.2.r2-r0/tf-a-stm32mp-2.2.r2/../build/trusted/bl2/stm32_gpio.o
 .comment       0x0000000000000024       0x25 /home/ming/tf-a-stm32mp-2.2.r2-r0/tf-a-stm32mp-2.2.r2/../build/trusted/bl2/stm32_i2c.o
 .comment       0x0000000000000024       0x25 /home/ming/tf-a-stm32mp-2.2.r2-r0/tf-a-stm32mp-2.2.r2/../build/trusted/bl2/stm32_iwdg.o
 .comment       0x0000000000000024       0x25 /home/ming/tf-a-stm32mp-2.2.r2-r0/tf-a-stm32mp-2.2.r2/../build/trusted/bl2/stm32mp_pmic.o
 .comment       0x0000000000000024       0x25 /home/ming/tf-a-stm32mp-2.2.r2-r0/tf-a-stm32mp-2.2.r2/../build/trusted/bl2/stpmic1.o
 .comment       0x0000000000000024       0x25 /home/ming/tf-a-stm32mp-2.2.r2-r0/tf-a-stm32mp-2.2.r2/../build/trusted/bl2/stm32mp_dummy_regulator.o
 .comment       0x0000000000000024       0x25 /home/ming/tf-a-stm32mp-2.2.r2-r0/tf-a-stm32mp-2.2.r2/../build/trusted/bl2/stm32mp_regulator.o
 .comment       0x0000000000000024       0x25 /home/ming/tf-a-stm32mp-2.2.r2-r0/tf-a-stm32mp-2.2.r2/../build/trusted/bl2/stm32mp1_reset.o
 .comment       0x0000000000000024       0x25 /home/ming/tf-a-stm32mp-2.2.r2-r0/tf-a-stm32mp-2.2.r2/../build/trusted/bl2/stm32mp_dt.o
 .comment       0x0000000000000024       0x25 /home/ming/tf-a-stm32mp-2.2.r2-r0/tf-a-stm32mp-2.2.r2/../build/trusted/bl2/stm32mp_shres_helpers.o
 .comment       0x0000000000000024       0x25 /home/ming/tf-a-stm32mp-2.2.r2-r0/tf-a-stm32mp-2.2.r2/../build/trusted/bl2/stm32mp1_context.o
 .comment       0x0000000000000024       0x25 /home/ming/tf-a-stm32mp-2.2.r2-r0/tf-a-stm32mp-2.2.r2/../build/trusted/bl2/stm32mp1_dbgmcu.o
 .comment       0x0000000000000024       0x25 /home/ming/tf-a-stm32mp-2.2.r2-r0/tf-a-stm32mp-2.2.r2/../build/trusted/bl2/stm32mp1_security.o
 .comment       0x0000000000000024       0x25 /home/ming/tf-a-stm32mp-2.2.r2-r0/tf-a-stm32mp-2.2.r2/../build/trusted/bl2/stm32mp1_syscfg.o
 .comment       0x0000000000000024       0x25 /home/ming/tf-a-stm32mp-2.2.r2-r0/tf-a-stm32mp-2.2.r2/../build/trusted/lib/libfdt.a(fdt.o)
 .comment       0x0000000000000024       0x25 /home/ming/tf-a-stm32mp-2.2.r2-r0/tf-a-stm32mp-2.2.r2/../build/trusted/lib/libfdt.a(fdt_addresses.o)
 .comment       0x0000000000000024       0x25 /home/ming/tf-a-stm32mp-2.2.r2-r0/tf-a-stm32mp-2.2.r2/../build/trusted/lib/libfdt.a(fdt_ro.o)
 .comment       0x0000000000000024       0x25 /home/ming/tf-a-stm32mp-2.2.r2-r0/tf-a-stm32mp-2.2.r2/../build/trusted/lib/libc.a(assert.o)
 .comment       0x0000000000000024       0x25 /home/ming/tf-a-stm32mp-2.2.r2-r0/tf-a-stm32mp-2.2.r2/../build/trusted/lib/libc.a(memchr.o)
 .comment       0x0000000000000024       0x25 /home/ming/tf-a-stm32mp-2.2.r2-r0/tf-a-stm32mp-2.2.r2/../build/trusted/lib/libc.a(memcmp.o)
 .comment       0x0000000000000024       0x25 /home/ming/tf-a-stm32mp-2.2.r2-r0/tf-a-stm32mp-2.2.r2/../build/trusted/lib/libc.a(memcpy.o)
 .comment       0x0000000000000024       0x25 /home/ming/tf-a-stm32mp-2.2.r2-r0/tf-a-stm32mp-2.2.r2/../build/trusted/lib/libc.a(memmove.o)
 .comment       0x0000000000000024       0x25 /home/ming/tf-a-stm32mp-2.2.r2-r0/tf-a-stm32mp-2.2.r2/../build/trusted/lib/libc.a(memset.o)
 .comment       0x0000000000000024       0x25 /home/ming/tf-a-stm32mp-2.2.r2-r0/tf-a-stm32mp-2.2.r2/../build/trusted/lib/libc.a(printf.o)
 .comment       0x0000000000000024       0x25 /home/ming/tf-a-stm32mp-2.2.r2-r0/tf-a-stm32mp-2.2.r2/../build/trusted/lib/libc.a(putchar.o)
 .comment       0x0000000000000024       0x25 /home/ming/tf-a-stm32mp-2.2.r2-r0/tf-a-stm32mp-2.2.r2/../build/trusted/lib/libc.a(snprintf.o)
 .comment       0x0000000000000024       0x25 /home/ming/tf-a-stm32mp-2.2.r2-r0/tf-a-stm32mp-2.2.r2/../build/trusted/lib/libc.a(strchr.o)
 .comment       0x0000000000000024       0x25 /home/ming/tf-a-stm32mp-2.2.r2-r0/tf-a-stm32mp-2.2.r2/../build/trusted/lib/libc.a(strcmp.o)
 .comment       0x0000000000000024       0x25 /home/ming/tf-a-stm32mp-2.2.r2-r0/tf-a-stm32mp-2.2.r2/../build/trusted/lib/libc.a(strlen.o)
 .comment       0x0000000000000024       0x25 /home/ming/tf-a-stm32mp-2.2.r2-r0/tf-a-stm32mp-2.2.r2/../build/trusted/lib/libc.a(strncmp.o)
 .comment       0x0000000000000024       0x25 /home/ming/tf-a-stm32mp-2.2.r2-r0/tf-a-stm32mp-2.2.r2/../build/trusted/lib/libc.a(strnlen.o)
 .comment       0x0000000000000024       0x25 /home/ming/tf-a-stm32mp-2.2.r2-r0/tf-a-stm32mp-2.2.r2/../build/trusted/lib/libc.a(strrchr.o)

.note.GNU-stack
                0x0000000000000000        0x0
 .note.GNU-stack
                0x0000000000000000        0x0 /home/ming/tf-a-stm32mp-2.2.r2-r0/tf-a-stm32mp-2.2.r2/../build/trusted/bl2/build_message.o
 .note.GNU-stack
                0x0000000000000000        0x0 /home/ming/tf-a-stm32mp-2.2.r2-r0/tf-a-stm32mp-2.2.r2/../build/trusted/bl2/io_block.o
 .note.GNU-stack
                0x0000000000000000        0x0 /home/ming/tf-a-stm32mp-2.2.r2-r0/tf-a-stm32mp-2.2.r2/../build/trusted/bl2/io_dummy.o
 .note.GNU-stack
                0x0000000000000000        0x0 /home/ming/tf-a-stm32mp-2.2.r2-r0/tf-a-stm32mp-2.2.r2/../build/trusted/bl2/io_mtd.o
 .note.GNU-stack
                0x0000000000000000        0x0 /home/ming/tf-a-stm32mp-2.2.r2-r0/tf-a-stm32mp-2.2.r2/../build/trusted/bl2/io_storage.o
 .note.GNU-stack
                0x0000000000000000        0x0 /home/ming/tf-a-stm32mp-2.2.r2-r0/tf-a-stm32mp-2.2.r2/../build/trusted/bl2/stm32_hash.o
 .note.GNU-stack
                0x0000000000000000        0x0 /home/ming/tf-a-stm32mp-2.2.r2-r0/tf-a-stm32mp-2.2.r2/../build/trusted/bl2/io_stm32image.o
 .note.GNU-stack
                0x0000000000000000        0x0 /home/ming/tf-a-stm32mp-2.2.r2-r0/tf-a-stm32mp-2.2.r2/../build/trusted/bl2/bl2_io_storage.o
 .note.GNU-stack
                0x0000000000000000        0x0 /home/ming/tf-a-stm32mp-2.2.r2-r0/tf-a-stm32mp-2.2.r2/../build/trusted/bl2/bl2_plat_setup.o
 .note.GNU-stack
                0x0000000000000000        0x0 /home/ming/tf-a-stm32mp-2.2.r2-r0/tf-a-stm32mp-2.2.r2/../build/trusted/bl2/auth_mod.o
 .note.GNU-stack
                0x0000000000000000        0x0 /home/ming/tf-a-stm32mp-2.2.r2-r0/tf-a-stm32mp-2.2.r2/../build/trusted/bl2/crypto_mod.o
 .note.GNU-stack
                0x0000000000000000        0x0 /home/ming/tf-a-stm32mp-2.2.r2-r0/tf-a-stm32mp-2.2.r2/../build/trusted/bl2/img_parser_mod.o
 .note.GNU-stack
                0x0000000000000000        0x0 /home/ming/tf-a-stm32mp-2.2.r2-r0/tf-a-stm32mp-2.2.r2/../build/trusted/bl2/stm32mp_cot.o
 .note.GNU-stack
                0x0000000000000000        0x0 /home/ming/tf-a-stm32mp-2.2.r2-r0/tf-a-stm32mp-2.2.r2/../build/trusted/bl2/stm32mp_crypto_lib.o
 .note.GNU-stack
                0x0000000000000000        0x0 /home/ming/tf-a-stm32mp-2.2.r2-r0/tf-a-stm32mp-2.2.r2/../build/trusted/bl2/stm32mp_img_parser_lib.o
 .note.GNU-stack
                0x0000000000000000        0x0 /home/ming/tf-a-stm32mp-2.2.r2-r0/tf-a-stm32mp-2.2.r2/../build/trusted/bl2/stm32mp_trusted_boot.o
 .note.GNU-stack
                0x0000000000000000        0x0 /home/ming/tf-a-stm32mp-2.2.r2-r0/tf-a-stm32mp-2.2.r2/../build/trusted/bl2/mmc.o
 .note.GNU-stack
                0x0000000000000000        0x0 /home/ming/tf-a-stm32mp-2.2.r2-r0/tf-a-stm32mp-2.2.r2/../build/trusted/bl2/gpt.o
 .note.GNU-stack
                0x0000000000000000        0x0 /home/ming/tf-a-stm32mp-2.2.r2-r0/tf-a-stm32mp-2.2.r2/../build/trusted/bl2/partition.o
 .note.GNU-stack
                0x0000000000000000        0x0 /home/ming/tf-a-stm32mp-2.2.r2-r0/tf-a-stm32mp-2.2.r2/../build/trusted/bl2/io_mmc.o
 .note.GNU-stack
                0x0000000000000000        0x0 /home/ming/tf-a-stm32mp-2.2.r2-r0/tf-a-stm32mp-2.2.r2/../build/trusted/bl2/stm32_sdmmc2.o
 .note.GNU-stack
                0x0000000000000000        0x0 /home/ming/tf-a-stm32mp-2.2.r2-r0/tf-a-stm32mp-2.2.r2/../build/trusted/bl2/raw_nand.o
 .note.GNU-stack
                0x0000000000000000        0x0 /home/ming/tf-a-stm32mp-2.2.r2-r0/tf-a-stm32mp-2.2.r2/../build/trusted/bl2/stm32_fmc2_nand.o
 .note.GNU-stack
                0x0000000000000000        0x0 /home/ming/tf-a-stm32mp-2.2.r2-r0/tf-a-stm32mp-2.2.r2/../build/trusted/bl2/spi_nand.o
 .note.GNU-stack
                0x0000000000000000        0x0 /home/ming/tf-a-stm32mp-2.2.r2-r0/tf-a-stm32mp-2.2.r2/../build/trusted/bl2/spi_nor.o
 .note.GNU-stack
                0x0000000000000000        0x0 /home/ming/tf-a-stm32mp-2.2.r2-r0/tf-a-stm32mp-2.2.r2/../build/trusted/bl2/spi_mem.o
 .note.GNU-stack
                0x0000000000000000        0x0 /home/ming/tf-a-stm32mp-2.2.r2-r0/tf-a-stm32mp-2.2.r2/../build/trusted/bl2/stm32_qspi.o
 .note.GNU-stack
                0x0000000000000000        0x0 /home/ming/tf-a-stm32mp-2.2.r2-r0/tf-a-stm32mp-2.2.r2/../build/trusted/bl2/core.o
 .note.GNU-stack
                0x0000000000000000        0x0 /home/ming/tf-a-stm32mp-2.2.r2-r0/tf-a-stm32mp-2.2.r2/../build/trusted/bl2/stm32mp1_boot_device.o
 .note.GNU-stack
                0x0000000000000000        0x0 /home/ming/tf-a-stm32mp-2.2.r2-r0/tf-a-stm32mp-2.2.r2/../build/trusted/bl2/stm32mp1_ddr.o
 .note.GNU-stack
                0x0000000000000000        0x0 /home/ming/tf-a-stm32mp-2.2.r2-r0/tf-a-stm32mp-2.2.r2/../build/trusted/bl2/stm32mp1_ram.o
 .note.GNU-stack
                0x0000000000000000        0x0 /home/ming/tf-a-stm32mp-2.2.r2-r0/tf-a-stm32mp-2.2.r2/../build/trusted/bl2/desc_image_load.o
 .note.GNU-stack
                0x0000000000000000        0x0 /home/ming/tf-a-stm32mp-2.2.r2-r0/tf-a-stm32mp-2.2.r2/../build/trusted/bl2/plat_bl2_mem_params_desc.o
 .note.GNU-stack
                0x0000000000000000        0x0 /home/ming/tf-a-stm32mp-2.2.r2-r0/tf-a-stm32mp-2.2.r2/../build/trusted/bl2/plat_image_load.o
 .note.GNU-stack
                0x0000000000000000        0x0 /home/ming/tf-a-stm32mp-2.2.r2-r0/tf-a-stm32mp-2.2.r2/../build/trusted/bl2/bl2_image_load_v2.o
 .note.GNU-stack
                0x0000000000000000        0x0 /home/ming/tf-a-stm32mp-2.2.r2-r0/tf-a-stm32mp-2.2.r2/../build/trusted/bl2/bl2_main.o
 .note.GNU-stack
                0x0000000000000000        0x0 /home/ming/tf-a-stm32mp-2.2.r2-r0/tf-a-stm32mp-2.2.r2/../build/trusted/bl2/bl2_arch_setup.o
 .note.GNU-stack
                0x0000000000000000        0x0 /home/ming/tf-a-stm32mp-2.2.r2-r0/tf-a-stm32mp-2.2.r2/../build/trusted/bl2/bl_common.o
 .note.GNU-stack
                0x0000000000000000        0x0 /home/ming/tf-a-stm32mp-2.2.r2-r0/tf-a-stm32mp-2.2.r2/../build/trusted/bl2/tf_log.o
 .note.GNU-stack
                0x0000000000000000        0x0 /home/ming/tf-a-stm32mp-2.2.r2-r0/tf-a-stm32mp-2.2.r2/../build/trusted/bl2/multi_console.o
 .note.GNU-stack
                0x0000000000000000        0x0 /home/ming/tf-a-stm32mp-2.2.r2-r0/tf-a-stm32mp-2.2.r2/../build/trusted/bl2/plat_bl_common.o
 .note.GNU-stack
                0x0000000000000000        0x0 /home/ming/tf-a-stm32mp-2.2.r2-r0/tf-a-stm32mp-2.2.r2/../build/trusted/bl2/plat_log_common.o
 .note.GNU-stack
                0x0000000000000000        0x0 /home/ming/tf-a-stm32mp-2.2.r2-r0/tf-a-stm32mp-2.2.r2/../build/trusted/bl2/popcountsi2.o
 .note.GNU-stack
                0x0000000000000000        0x0 /home/ming/tf-a-stm32mp-2.2.r2-r0/tf-a-stm32mp-2.2.r2/../build/trusted/bl2/ctzdi2.o
 .note.GNU-stack
                0x0000000000000000        0x0 /home/ming/tf-a-stm32mp-2.2.r2-r0/tf-a-stm32mp-2.2.r2/../build/trusted/bl2/udivmoddi4.o
 .note.GNU-stack
                0x0000000000000000        0x0 /home/ming/tf-a-stm32mp-2.2.r2-r0/tf-a-stm32mp-2.2.r2/../build/trusted/bl2/stm32mp_common.o
 .note.GNU-stack
                0x0000000000000000        0x0 /home/ming/tf-a-stm32mp-2.2.r2-r0/tf-a-stm32mp-2.2.r2/../build/trusted/bl2/stm32mp1_private.o
 .note.GNU-stack
                0x0000000000000000        0x0 /home/ming/tf-a-stm32mp-2.2.r2-r0/tf-a-stm32mp-2.2.r2/../build/trusted/bl2/xlat_tables_arch.o
 .note.GNU-stack
                0x0000000000000000        0x0 /home/ming/tf-a-stm32mp-2.2.r2-r0/tf-a-stm32mp-2.2.r2/../build/trusted/bl2/xlat_tables_context.o
 .note.GNU-stack
                0x0000000000000000        0x0 /home/ming/tf-a-stm32mp-2.2.r2-r0/tf-a-stm32mp-2.2.r2/../build/trusted/bl2/xlat_tables_core.o
 .note.GNU-stack
                0x0000000000000000        0x0 /home/ming/tf-a-stm32mp-2.2.r2-r0/tf-a-stm32mp-2.2.r2/../build/trusted/bl2/xlat_tables_utils.o
 .note.GNU-stack
                0x0000000000000000        0x0 /home/ming/tf-a-stm32mp-2.2.r2-r0/tf-a-stm32mp-2.2.r2/../build/trusted/bl2/tzc400.o
 .note.GNU-stack
                0x0000000000000000        0x0 /home/ming/tf-a-stm32mp-2.2.r2-r0/tf-a-stm32mp-2.2.r2/../build/trusted/bl2/delay_timer.o
 .note.GNU-stack
                0x0000000000000000        0x0 /home/ming/tf-a-stm32mp-2.2.r2-r0/tf-a-stm32mp-2.2.r2/../build/trusted/bl2/generic_delay_timer.o
 .note.GNU-stack
                0x0000000000000000        0x0 /home/ming/tf-a-stm32mp-2.2.r2-r0/tf-a-stm32mp-2.2.r2/../build/trusted/bl2/bsec2.o
 .note.GNU-stack
                0x0000000000000000        0x0 /home/ming/tf-a-stm32mp-2.2.r2-r0/tf-a-stm32mp-2.2.r2/../build/trusted/bl2/stm32mp_clkfunc.o
 .note.GNU-stack
                0x0000000000000000        0x0 /home/ming/tf-a-stm32mp-2.2.r2-r0/tf-a-stm32mp-2.2.r2/../build/trusted/bl2/stm32mp1_clk.o
 .note.GNU-stack
                0x0000000000000000        0x0 /home/ming/tf-a-stm32mp-2.2.r2-r0/tf-a-stm32mp-2.2.r2/../build/trusted/bl2/stm32mp1_ddr_helpers.o
 .note.GNU-stack
                0x0000000000000000        0x0 /home/ming/tf-a-stm32mp-2.2.r2-r0/tf-a-stm32mp-2.2.r2/../build/trusted/bl2/stm32_gpio.o
 .note.GNU-stack
                0x0000000000000000        0x0 /home/ming/tf-a-stm32mp-2.2.r2-r0/tf-a-stm32mp-2.2.r2/../build/trusted/bl2/stm32_i2c.o
 .note.GNU-stack
                0x0000000000000000        0x0 /home/ming/tf-a-stm32mp-2.2.r2-r0/tf-a-stm32mp-2.2.r2/../build/trusted/bl2/stm32_iwdg.o
 .note.GNU-stack
                0x0000000000000000        0x0 /home/ming/tf-a-stm32mp-2.2.r2-r0/tf-a-stm32mp-2.2.r2/../build/trusted/bl2/stm32mp_pmic.o
 .note.GNU-stack
                0x0000000000000000        0x0 /home/ming/tf-a-stm32mp-2.2.r2-r0/tf-a-stm32mp-2.2.r2/../build/trusted/bl2/stpmic1.o
 .note.GNU-stack
                0x0000000000000000        0x0 /home/ming/tf-a-stm32mp-2.2.r2-r0/tf-a-stm32mp-2.2.r2/../build/trusted/bl2/stm32mp_dummy_regulator.o
 .note.GNU-stack
                0x0000000000000000        0x0 /home/ming/tf-a-stm32mp-2.2.r2-r0/tf-a-stm32mp-2.2.r2/../build/trusted/bl2/stm32mp_regulator.o
 .note.GNU-stack
                0x0000000000000000        0x0 /home/ming/tf-a-stm32mp-2.2.r2-r0/tf-a-stm32mp-2.2.r2/../build/trusted/bl2/stm32mp1_reset.o
 .note.GNU-stack
                0x0000000000000000        0x0 /home/ming/tf-a-stm32mp-2.2.r2-r0/tf-a-stm32mp-2.2.r2/../build/trusted/bl2/stm32mp_dt.o
 .note.GNU-stack
                0x0000000000000000        0x0 /home/ming/tf-a-stm32mp-2.2.r2-r0/tf-a-stm32mp-2.2.r2/../build/trusted/bl2/stm32mp_shres_helpers.o
 .note.GNU-stack
                0x0000000000000000        0x0 /home/ming/tf-a-stm32mp-2.2.r2-r0/tf-a-stm32mp-2.2.r2/../build/trusted/bl2/stm32mp1_context.o
 .note.GNU-stack
                0x0000000000000000        0x0 /home/ming/tf-a-stm32mp-2.2.r2-r0/tf-a-stm32mp-2.2.r2/../build/trusted/bl2/stm32mp1_dbgmcu.o
 .note.GNU-stack
                0x0000000000000000        0x0 /home/ming/tf-a-stm32mp-2.2.r2-r0/tf-a-stm32mp-2.2.r2/../build/trusted/bl2/stm32mp1_security.o
 .note.GNU-stack
                0x0000000000000000        0x0 /home/ming/tf-a-stm32mp-2.2.r2-r0/tf-a-stm32mp-2.2.r2/../build/trusted/bl2/stm32mp1_syscfg.o
 .note.GNU-stack
                0x0000000000000000        0x0 /home/ming/tf-a-stm32mp-2.2.r2-r0/tf-a-stm32mp-2.2.r2/../build/trusted/lib/libfdt.a(fdt.o)
 .note.GNU-stack
                0x0000000000000000        0x0 /home/ming/tf-a-stm32mp-2.2.r2-r0/tf-a-stm32mp-2.2.r2/../build/trusted/lib/libfdt.a(fdt_addresses.o)
 .note.GNU-stack
                0x0000000000000000        0x0 /home/ming/tf-a-stm32mp-2.2.r2-r0/tf-a-stm32mp-2.2.r2/../build/trusted/lib/libfdt.a(fdt_ro.o)
 .note.GNU-stack
                0x0000000000000000        0x0 /home/ming/tf-a-stm32mp-2.2.r2-r0/tf-a-stm32mp-2.2.r2/../build/trusted/lib/libc.a(assert.o)
 .note.GNU-stack
                0x0000000000000000        0x0 /home/ming/tf-a-stm32mp-2.2.r2-r0/tf-a-stm32mp-2.2.r2/../build/trusted/lib/libc.a(memchr.o)
 .note.GNU-stack
                0x0000000000000000        0x0 /home/ming/tf-a-stm32mp-2.2.r2-r0/tf-a-stm32mp-2.2.r2/../build/trusted/lib/libc.a(memcmp.o)
 .note.GNU-stack
                0x0000000000000000        0x0 /home/ming/tf-a-stm32mp-2.2.r2-r0/tf-a-stm32mp-2.2.r2/../build/trusted/lib/libc.a(memcpy.o)
 .note.GNU-stack
                0x0000000000000000        0x0 /home/ming/tf-a-stm32mp-2.2.r2-r0/tf-a-stm32mp-2.2.r2/../build/trusted/lib/libc.a(memmove.o)
 .note.GNU-stack
                0x0000000000000000        0x0 /home/ming/tf-a-stm32mp-2.2.r2-r0/tf-a-stm32mp-2.2.r2/../build/trusted/lib/libc.a(memset.o)
 .note.GNU-stack
                0x0000000000000000        0x0 /home/ming/tf-a-stm32mp-2.2.r2-r0/tf-a-stm32mp-2.2.r2/../build/trusted/lib/libc.a(printf.o)
 .note.GNU-stack
                0x0000000000000000        0x0 /home/ming/tf-a-stm32mp-2.2.r2-r0/tf-a-stm32mp-2.2.r2/../build/trusted/lib/libc.a(putchar.o)
 .note.GNU-stack
                0x0000000000000000        0x0 /home/ming/tf-a-stm32mp-2.2.r2-r0/tf-a-stm32mp-2.2.r2/../build/trusted/lib/libc.a(snprintf.o)
 .note.GNU-stack
                0x0000000000000000        0x0 /home/ming/tf-a-stm32mp-2.2.r2-r0/tf-a-stm32mp-2.2.r2/../build/trusted/lib/libc.a(strchr.o)
 .note.GNU-stack
                0x0000000000000000        0x0 /home/ming/tf-a-stm32mp-2.2.r2-r0/tf-a-stm32mp-2.2.r2/../build/trusted/lib/libc.a(strcmp.o)
 .note.GNU-stack
                0x0000000000000000        0x0 /home/ming/tf-a-stm32mp-2.2.r2-r0/tf-a-stm32mp-2.2.r2/../build/trusted/lib/libc.a(strlen.o)
 .note.GNU-stack
                0x0000000000000000        0x0 /home/ming/tf-a-stm32mp-2.2.r2-r0/tf-a-stm32mp-2.2.r2/../build/trusted/lib/libc.a(strncmp.o)
 .note.GNU-stack
                0x0000000000000000        0x0 /home/ming/tf-a-stm32mp-2.2.r2-r0/tf-a-stm32mp-2.2.r2/../build/trusted/lib/libc.a(strnlen.o)
 .note.GNU-stack
                0x0000000000000000        0x0 /home/ming/tf-a-stm32mp-2.2.r2-r0/tf-a-stm32mp-2.2.r2/../build/trusted/lib/libc.a(strrchr.o)

.ARM.attributes
                0x0000000000000000       0x3b
 .ARM.attributes
                0x0000000000000000       0x3d /home/ming/tf-a-stm32mp-2.2.r2-r0/tf-a-stm32mp-2.2.r2/../build/trusted/bl2/build_message.o
 .ARM.attributes
                0x000000000000003d       0x39 /home/ming/tf-a-stm32mp-2.2.r2-r0/tf-a-stm32mp-2.2.r2/../build/trusted/bl2/io_block.o
 .ARM.attributes
                0x0000000000000076       0x39 /home/ming/tf-a-stm32mp-2.2.r2-r0/tf-a-stm32mp-2.2.r2/../build/trusted/bl2/io_dummy.o
 .ARM.attributes
                0x00000000000000af       0x39 /home/ming/tf-a-stm32mp-2.2.r2-r0/tf-a-stm32mp-2.2.r2/../build/trusted/bl2/io_mtd.o
 .ARM.attributes
                0x00000000000000e8       0x39 /home/ming/tf-a-stm32mp-2.2.r2-r0/tf-a-stm32mp-2.2.r2/../build/trusted/bl2/io_storage.o
 .ARM.attributes
                0x0000000000000121       0x39 /home/ming/tf-a-stm32mp-2.2.r2-r0/tf-a-stm32mp-2.2.r2/../build/trusted/bl2/stm32_hash.o
 .ARM.attributes
                0x000000000000015a       0x39 /home/ming/tf-a-stm32mp-2.2.r2-r0/tf-a-stm32mp-2.2.r2/../build/trusted/bl2/io_stm32image.o
 .ARM.attributes
                0x0000000000000193       0x39 /home/ming/tf-a-stm32mp-2.2.r2-r0/tf-a-stm32mp-2.2.r2/../build/trusted/bl2/bl2_io_storage.o
 .ARM.attributes
                0x00000000000001cc       0x39 /home/ming/tf-a-stm32mp-2.2.r2-r0/tf-a-stm32mp-2.2.r2/../build/trusted/bl2/bl2_plat_setup.o
 .ARM.attributes
                0x0000000000000205       0x39 /home/ming/tf-a-stm32mp-2.2.r2-r0/tf-a-stm32mp-2.2.r2/../build/trusted/bl2/auth_mod.o
 .ARM.attributes
                0x000000000000023e       0x39 /home/ming/tf-a-stm32mp-2.2.r2-r0/tf-a-stm32mp-2.2.r2/../build/trusted/bl2/crypto_mod.o
 .ARM.attributes
                0x0000000000000277       0x39 /home/ming/tf-a-stm32mp-2.2.r2-r0/tf-a-stm32mp-2.2.r2/../build/trusted/bl2/img_parser_mod.o
 .ARM.attributes
                0x00000000000002b0       0x3d /home/ming/tf-a-stm32mp-2.2.r2-r0/tf-a-stm32mp-2.2.r2/../build/trusted/bl2/stm32mp_cot.o
 .ARM.attributes
                0x00000000000002ed       0x39 /home/ming/tf-a-stm32mp-2.2.r2-r0/tf-a-stm32mp-2.2.r2/../build/trusted/bl2/stm32mp_crypto_lib.o
 .ARM.attributes
                0x0000000000000326       0x39 /home/ming/tf-a-stm32mp-2.2.r2-r0/tf-a-stm32mp-2.2.r2/../build/trusted/bl2/stm32mp_img_parser_lib.o
 .ARM.attributes
                0x000000000000035f       0x39 /home/ming/tf-a-stm32mp-2.2.r2-r0/tf-a-stm32mp-2.2.r2/../build/trusted/bl2/stm32mp_trusted_boot.o
 .ARM.attributes
                0x0000000000000398       0x39 /home/ming/tf-a-stm32mp-2.2.r2-r0/tf-a-stm32mp-2.2.r2/../build/trusted/bl2/mmc.o
 .ARM.attributes
                0x00000000000003d1       0x39 /home/ming/tf-a-stm32mp-2.2.r2-r0/tf-a-stm32mp-2.2.r2/../build/trusted/bl2/gpt.o
 .ARM.attributes
                0x000000000000040a       0x39 /home/ming/tf-a-stm32mp-2.2.r2-r0/tf-a-stm32mp-2.2.r2/../build/trusted/bl2/partition.o
 .ARM.attributes
                0x0000000000000443       0x39 /home/ming/tf-a-stm32mp-2.2.r2-r0/tf-a-stm32mp-2.2.r2/../build/trusted/bl2/io_mmc.o
 .ARM.attributes
                0x000000000000047c       0x39 /home/ming/tf-a-stm32mp-2.2.r2-r0/tf-a-stm32mp-2.2.r2/../build/trusted/bl2/stm32_sdmmc2.o
 .ARM.attributes
                0x00000000000004b5       0x39 /home/ming/tf-a-stm32mp-2.2.r2-r0/tf-a-stm32mp-2.2.r2/../build/trusted/bl2/raw_nand.o
 .ARM.attributes
                0x00000000000004ee       0x39 /home/ming/tf-a-stm32mp-2.2.r2-r0/tf-a-stm32mp-2.2.r2/../build/trusted/bl2/stm32_fmc2_nand.o
 .ARM.attributes
                0x0000000000000527       0x39 /home/ming/tf-a-stm32mp-2.2.r2-r0/tf-a-stm32mp-2.2.r2/../build/trusted/bl2/spi_nand.o
 .ARM.attributes
                0x0000000000000560       0x39 /home/ming/tf-a-stm32mp-2.2.r2-r0/tf-a-stm32mp-2.2.r2/../build/trusted/bl2/spi_nor.o
 .ARM.attributes
                0x0000000000000599       0x39 /home/ming/tf-a-stm32mp-2.2.r2-r0/tf-a-stm32mp-2.2.r2/../build/trusted/bl2/spi_mem.o
 .ARM.attributes
                0x00000000000005d2       0x39 /home/ming/tf-a-stm32mp-2.2.r2-r0/tf-a-stm32mp-2.2.r2/../build/trusted/bl2/stm32_qspi.o
 .ARM.attributes
                0x000000000000060b       0x39 /home/ming/tf-a-stm32mp-2.2.r2-r0/tf-a-stm32mp-2.2.r2/../build/trusted/bl2/core.o
 .ARM.attributes
                0x0000000000000644       0x39 /home/ming/tf-a-stm32mp-2.2.r2-r0/tf-a-stm32mp-2.2.r2/../build/trusted/bl2/stm32mp1_boot_device.o
 .ARM.attributes
                0x000000000000067d       0x39 /home/ming/tf-a-stm32mp-2.2.r2-r0/tf-a-stm32mp-2.2.r2/../build/trusted/bl2/stm32mp1_ddr.o
 .ARM.attributes
                0x00000000000006b6       0x39 /home/ming/tf-a-stm32mp-2.2.r2-r0/tf-a-stm32mp-2.2.r2/../build/trusted/bl2/stm32mp1_ram.o
 .ARM.attributes
                0x00000000000006ef       0x39 /home/ming/tf-a-stm32mp-2.2.r2-r0/tf-a-stm32mp-2.2.r2/../build/trusted/bl2/desc_image_load.o
 .ARM.attributes
                0x0000000000000728       0x3d /home/ming/tf-a-stm32mp-2.2.r2-r0/tf-a-stm32mp-2.2.r2/../build/trusted/bl2/plat_bl2_mem_params_desc.o
 .ARM.attributes
                0x0000000000000765       0x39 /home/ming/tf-a-stm32mp-2.2.r2-r0/tf-a-stm32mp-2.2.r2/../build/trusted/bl2/plat_image_load.o
 .ARM.attributes
                0x000000000000079e       0x39 /home/ming/tf-a-stm32mp-2.2.r2-r0/tf-a-stm32mp-2.2.r2/../build/trusted/bl2/bl2_image_load_v2.o
 .ARM.attributes
                0x00000000000007d7       0x39 /home/ming/tf-a-stm32mp-2.2.r2-r0/tf-a-stm32mp-2.2.r2/../build/trusted/bl2/bl2_main.o
 .ARM.attributes
                0x0000000000000810       0x39 /home/ming/tf-a-stm32mp-2.2.r2-r0/tf-a-stm32mp-2.2.r2/../build/trusted/bl2/bl2_arch_setup.o
 .ARM.attributes
                0x0000000000000849       0x39 /home/ming/tf-a-stm32mp-2.2.r2-r0/tf-a-stm32mp-2.2.r2/../build/trusted/bl2/bl_common.o
 .ARM.attributes
                0x0000000000000882       0x39 /home/ming/tf-a-stm32mp-2.2.r2-r0/tf-a-stm32mp-2.2.r2/../build/trusted/bl2/tf_log.o
 .ARM.attributes
                0x00000000000008bb       0x39 /home/ming/tf-a-stm32mp-2.2.r2-r0/tf-a-stm32mp-2.2.r2/../build/trusted/bl2/multi_console.o
 .ARM.attributes
                0x00000000000008f4       0x39 /home/ming/tf-a-stm32mp-2.2.r2-r0/tf-a-stm32mp-2.2.r2/../build/trusted/bl2/plat_bl_common.o
 .ARM.attributes
                0x000000000000092d       0x39 /home/ming/tf-a-stm32mp-2.2.r2-r0/tf-a-stm32mp-2.2.r2/../build/trusted/bl2/plat_log_common.o
 .ARM.attributes
                0x0000000000000966       0x39 /home/ming/tf-a-stm32mp-2.2.r2-r0/tf-a-stm32mp-2.2.r2/../build/trusted/bl2/popcountsi2.o
 .ARM.attributes
                0x000000000000099f       0x39 /home/ming/tf-a-stm32mp-2.2.r2-r0/tf-a-stm32mp-2.2.r2/../build/trusted/bl2/ctzdi2.o
 .ARM.attributes
                0x00000000000009d8       0x39 /home/ming/tf-a-stm32mp-2.2.r2-r0/tf-a-stm32mp-2.2.r2/../build/trusted/bl2/udivmoddi4.o
 .ARM.attributes
                0x0000000000000a11       0x39 /home/ming/tf-a-stm32mp-2.2.r2-r0/tf-a-stm32mp-2.2.r2/../build/trusted/bl2/stm32mp_common.o
 .ARM.attributes
                0x0000000000000a4a       0x39 /home/ming/tf-a-stm32mp-2.2.r2-r0/tf-a-stm32mp-2.2.r2/../build/trusted/bl2/stm32mp1_private.o
 .ARM.attributes
                0x0000000000000a83       0x39 /home/ming/tf-a-stm32mp-2.2.r2-r0/tf-a-stm32mp-2.2.r2/../build/trusted/bl2/xlat_tables_arch.o
 .ARM.attributes
                0x0000000000000abc       0x39 /home/ming/tf-a-stm32mp-2.2.r2-r0/tf-a-stm32mp-2.2.r2/../build/trusted/bl2/xlat_tables_context.o
 .ARM.attributes
                0x0000000000000af5       0x39 /home/ming/tf-a-stm32mp-2.2.r2-r0/tf-a-stm32mp-2.2.r2/../build/trusted/bl2/xlat_tables_core.o
 .ARM.attributes
                0x0000000000000b2e       0x39 /home/ming/tf-a-stm32mp-2.2.r2-r0/tf-a-stm32mp-2.2.r2/../build/trusted/bl2/xlat_tables_utils.o
 .ARM.attributes
                0x0000000000000b67       0x39 /home/ming/tf-a-stm32mp-2.2.r2-r0/tf-a-stm32mp-2.2.r2/../build/trusted/bl2/tzc400.o
 .ARM.attributes
                0x0000000000000ba0       0x39 /home/ming/tf-a-stm32mp-2.2.r2-r0/tf-a-stm32mp-2.2.r2/../build/trusted/bl2/delay_timer.o
 .ARM.attributes
                0x0000000000000bd9       0x39 /home/ming/tf-a-stm32mp-2.2.r2-r0/tf-a-stm32mp-2.2.r2/../build/trusted/bl2/generic_delay_timer.o
 .ARM.attributes
                0x0000000000000c12       0x39 /home/ming/tf-a-stm32mp-2.2.r2-r0/tf-a-stm32mp-2.2.r2/../build/trusted/bl2/bsec2.o
 .ARM.attributes
                0x0000000000000c4b       0x39 /home/ming/tf-a-stm32mp-2.2.r2-r0/tf-a-stm32mp-2.2.r2/../build/trusted/bl2/stm32mp_clkfunc.o
 .ARM.attributes
                0x0000000000000c84       0x39 /home/ming/tf-a-stm32mp-2.2.r2-r0/tf-a-stm32mp-2.2.r2/../build/trusted/bl2/stm32mp1_clk.o
 .ARM.attributes
                0x0000000000000cbd       0x39 /home/ming/tf-a-stm32mp-2.2.r2-r0/tf-a-stm32mp-2.2.r2/../build/trusted/bl2/stm32mp1_ddr_helpers.o
 .ARM.attributes
                0x0000000000000cf6       0x39 /home/ming/tf-a-stm32mp-2.2.r2-r0/tf-a-stm32mp-2.2.r2/../build/trusted/bl2/stm32_gpio.o
 .ARM.attributes
                0x0000000000000d2f       0x39 /home/ming/tf-a-stm32mp-2.2.r2-r0/tf-a-stm32mp-2.2.r2/../build/trusted/bl2/stm32_i2c.o
 .ARM.attributes
                0x0000000000000d68       0x39 /home/ming/tf-a-stm32mp-2.2.r2-r0/tf-a-stm32mp-2.2.r2/../build/trusted/bl2/stm32_iwdg.o
 .ARM.attributes
                0x0000000000000da1       0x39 /home/ming/tf-a-stm32mp-2.2.r2-r0/tf-a-stm32mp-2.2.r2/../build/trusted/bl2/stm32mp_pmic.o
 .ARM.attributes
                0x0000000000000dda       0x39 /home/ming/tf-a-stm32mp-2.2.r2-r0/tf-a-stm32mp-2.2.r2/../build/trusted/bl2/stpmic1.o
 .ARM.attributes
                0x0000000000000e13       0x39 /home/ming/tf-a-stm32mp-2.2.r2-r0/tf-a-stm32mp-2.2.r2/../build/trusted/bl2/stm32mp_dummy_regulator.o
 .ARM.attributes
                0x0000000000000e4c       0x39 /home/ming/tf-a-stm32mp-2.2.r2-r0/tf-a-stm32mp-2.2.r2/../build/trusted/bl2/stm32mp_regulator.o
 .ARM.attributes
                0x0000000000000e85       0x39 /home/ming/tf-a-stm32mp-2.2.r2-r0/tf-a-stm32mp-2.2.r2/../build/trusted/bl2/stm32mp1_reset.o
 .ARM.attributes
                0x0000000000000ebe       0x39 /home/ming/tf-a-stm32mp-2.2.r2-r0/tf-a-stm32mp-2.2.r2/../build/trusted/bl2/stm32mp_dt.o
 .ARM.attributes
                0x0000000000000ef7       0x39 /home/ming/tf-a-stm32mp-2.2.r2-r0/tf-a-stm32mp-2.2.r2/../build/trusted/bl2/stm32mp_shres_helpers.o
 .ARM.attributes
                0x0000000000000f30       0x39 /home/ming/tf-a-stm32mp-2.2.r2-r0/tf-a-stm32mp-2.2.r2/../build/trusted/bl2/stm32mp1_context.o
 .ARM.attributes
                0x0000000000000f69       0x39 /home/ming/tf-a-stm32mp-2.2.r2-r0/tf-a-stm32mp-2.2.r2/../build/trusted/bl2/stm32mp1_dbgmcu.o
 .ARM.attributes
                0x0000000000000fa2       0x39 /home/ming/tf-a-stm32mp-2.2.r2-r0/tf-a-stm32mp-2.2.r2/../build/trusted/bl2/stm32mp1_security.o
 .ARM.attributes
                0x0000000000000fdb       0x39 /home/ming/tf-a-stm32mp-2.2.r2-r0/tf-a-stm32mp-2.2.r2/../build/trusted/bl2/stm32mp1_syscfg.o
 .ARM.attributes
                0x0000000000001014       0x2d /home/ming/tf-a-stm32mp-2.2.r2-r0/tf-a-stm32mp-2.2.r2/../build/trusted/bl2/spinlock.o
 .ARM.attributes
                0x0000000000001041       0x2d /home/ming/tf-a-stm32mp-2.2.r2-r0/tf-a-stm32mp-2.2.r2/../build/trusted/bl2/platform_up_stack.o
 .ARM.attributes
                0x000000000000106e       0x2d /home/ming/tf-a-stm32mp-2.2.r2-r0/tf-a-stm32mp-2.2.r2/../build/trusted/bl2/bl2_el3_entrypoint.o
 .ARM.attributes
                0x000000000000109b       0x2d /home/ming/tf-a-stm32mp-2.2.r2-r0/tf-a-stm32mp-2.2.r2/../build/trusted/bl2/bl2_el3_exceptions.o
 .ARM.attributes
                0x00000000000010c8       0x2d /home/ming/tf-a-stm32mp-2.2.r2-r0/tf-a-stm32mp-2.2.r2/../build/trusted/bl2/cpu_helpers.o
 .ARM.attributes
                0x00000000000010f5       0x2d /home/ming/tf-a-stm32mp-2.2.r2-r0/tf-a-stm32mp-2.2.r2/../build/trusted/bl2/debug.o
 .ARM.attributes
                0x0000000000001122       0x2d /home/ming/tf-a-stm32mp-2.2.r2-r0/tf-a-stm32mp-2.2.r2/../build/trusted/bl2/cache_helpers.o
 .ARM.attributes
                0x000000000000114f       0x2d /home/ming/tf-a-stm32mp-2.2.r2-r0/tf-a-stm32mp-2.2.r2/../build/trusted/bl2/misc_helpers.o
 .ARM.attributes
                0x000000000000117c       0x2d /home/ming/tf-a-stm32mp-2.2.r2-r0/tf-a-stm32mp-2.2.r2/../build/trusted/bl2/aeabi_uldivmod.o
 .ARM.attributes
                0x00000000000011a9       0x2d /home/ming/tf-a-stm32mp-2.2.r2-r0/tf-a-stm32mp-2.2.r2/../build/trusted/bl2/stm32_console.o
 .ARM.attributes
                0x00000000000011d6       0x2d /home/ming/tf-a-stm32mp-2.2.r2-r0/tf-a-stm32mp-2.2.r2/../build/trusted/bl2/enable_mmu.o
 .ARM.attributes
                0x0000000000001203       0x2d /home/ming/tf-a-stm32mp-2.2.r2-r0/tf-a-stm32mp-2.2.r2/../build/trusted/bl2/cortex_a7.o
 .ARM.attributes
                0x0000000000001230       0x2d /home/ming/tf-a-stm32mp-2.2.r2-r0/tf-a-stm32mp-2.2.r2/../build/trusted/bl2/stm32mp1_helper.o
 .ARM.attributes
                0x000000000000125d       0x39 /home/ming/tf-a-stm32mp-2.2.r2-r0/tf-a-stm32mp-2.2.r2/../build/trusted/lib/libfdt.a(fdt.o)
 .ARM.attributes
                0x0000000000001296       0x39 /home/ming/tf-a-stm32mp-2.2.r2-r0/tf-a-stm32mp-2.2.r2/../build/trusted/lib/libfdt.a(fdt_addresses.o)
 .ARM.attributes
                0x00000000000012cf       0x39 /home/ming/tf-a-stm32mp-2.2.r2-r0/tf-a-stm32mp-2.2.r2/../build/trusted/lib/libfdt.a(fdt_ro.o)
 .ARM.attributes
                0x0000000000001308       0x39 /home/ming/tf-a-stm32mp-2.2.r2-r0/tf-a-stm32mp-2.2.r2/../build/trusted/lib/libc.a(assert.o)
 .ARM.attributes
                0x0000000000001341       0x39 /home/ming/tf-a-stm32mp-2.2.r2-r0/tf-a-stm32mp-2.2.r2/../build/trusted/lib/libc.a(memchr.o)
 .ARM.attributes
                0x000000000000137a       0x39 /home/ming/tf-a-stm32mp-2.2.r2-r0/tf-a-stm32mp-2.2.r2/../build/trusted/lib/libc.a(memcmp.o)
 .ARM.attributes
                0x00000000000013b3       0x39 /home/ming/tf-a-stm32mp-2.2.r2-r0/tf-a-stm32mp-2.2.r2/../build/trusted/lib/libc.a(memcpy.o)
 .ARM.attributes
                0x00000000000013ec       0x39 /home/ming/tf-a-stm32mp-2.2.r2-r0/tf-a-stm32mp-2.2.r2/../build/trusted/lib/libc.a(memmove.o)
 .ARM.attributes
                0x0000000000001425       0x39 /home/ming/tf-a-stm32mp-2.2.r2-r0/tf-a-stm32mp-2.2.r2/../build/trusted/lib/libc.a(memset.o)
 .ARM.attributes
                0x000000000000145e       0x39 /home/ming/tf-a-stm32mp-2.2.r2-r0/tf-a-stm32mp-2.2.r2/../build/trusted/lib/libc.a(printf.o)
 .ARM.attributes
                0x0000000000001497       0x39 /home/ming/tf-a-stm32mp-2.2.r2-r0/tf-a-stm32mp-2.2.r2/../build/trusted/lib/libc.a(putchar.o)
 .ARM.attributes
                0x00000000000014d0       0x39 /home/ming/tf-a-stm32mp-2.2.r2-r0/tf-a-stm32mp-2.2.r2/../build/trusted/lib/libc.a(snprintf.o)
 .ARM.attributes
                0x0000000000001509       0x39 /home/ming/tf-a-stm32mp-2.2.r2-r0/tf-a-stm32mp-2.2.r2/../build/trusted/lib/libc.a(strchr.o)
 .ARM.attributes
                0x0000000000001542       0x39 /home/ming/tf-a-stm32mp-2.2.r2-r0/tf-a-stm32mp-2.2.r2/../build/trusted/lib/libc.a(strcmp.o)
 .ARM.attributes
                0x000000000000157b       0x39 /home/ming/tf-a-stm32mp-2.2.r2-r0/tf-a-stm32mp-2.2.r2/../build/trusted/lib/libc.a(strlen.o)
 .ARM.attributes
                0x00000000000015b4       0x39 /home/ming/tf-a-stm32mp-2.2.r2-r0/tf-a-stm32mp-2.2.r2/../build/trusted/lib/libc.a(strncmp.o)
 .ARM.attributes
                0x00000000000015ed       0x39 /home/ming/tf-a-stm32mp-2.2.r2-r0/tf-a-stm32mp-2.2.r2/../build/trusted/lib/libc.a(strnlen.o)
 .ARM.attributes
                0x0000000000001626       0x39 /home/ming/tf-a-stm32mp-2.2.r2-r0/tf-a-stm32mp-2.2.r2/../build/trusted/lib/libc.a(strrchr.o)

.debug_loc      0x0000000000000000    0x250fa
 .debug_loc     0x0000000000000000      0xb5b /home/ming/tf-a-stm32mp-2.2.r2-r0/tf-a-stm32mp-2.2.r2/../build/trusted/bl2/io_block.o
 .debug_loc     0x0000000000000b5b      0x4d3 /home/ming/tf-a-stm32mp-2.2.r2-r0/tf-a-stm32mp-2.2.r2/../build/trusted/bl2/io_dummy.o
 .debug_loc     0x000000000000102e      0x6d5 /home/ming/tf-a-stm32mp-2.2.r2-r0/tf-a-stm32mp-2.2.r2/../build/trusted/bl2/io_mtd.o
 .debug_loc     0x0000000000001703      0xd37 /home/ming/tf-a-stm32mp-2.2.r2-r0/tf-a-stm32mp-2.2.r2/../build/trusted/bl2/io_storage.o
 .debug_loc     0x000000000000243a      0x6be /home/ming/tf-a-stm32mp-2.2.r2-r0/tf-a-stm32mp-2.2.r2/../build/trusted/bl2/stm32_hash.o
 .debug_loc     0x0000000000002af8      0x74d /home/ming/tf-a-stm32mp-2.2.r2-r0/tf-a-stm32mp-2.2.r2/../build/trusted/bl2/io_stm32image.o
 .debug_loc     0x0000000000003245      0x588 /home/ming/tf-a-stm32mp-2.2.r2-r0/tf-a-stm32mp-2.2.r2/../build/trusted/bl2/bl2_io_storage.o
 .debug_loc     0x00000000000037cd      0x6ac /home/ming/tf-a-stm32mp-2.2.r2-r0/tf-a-stm32mp-2.2.r2/../build/trusted/bl2/bl2_plat_setup.o
 .debug_loc     0x0000000000003e79      0x540 /home/ming/tf-a-stm32mp-2.2.r2-r0/tf-a-stm32mp-2.2.r2/../build/trusted/bl2/auth_mod.o
 .debug_loc     0x00000000000043b9      0x34a /home/ming/tf-a-stm32mp-2.2.r2-r0/tf-a-stm32mp-2.2.r2/../build/trusted/bl2/crypto_mod.o
 .debug_loc     0x0000000000004703      0x3b6 /home/ming/tf-a-stm32mp-2.2.r2-r0/tf-a-stm32mp-2.2.r2/../build/trusted/bl2/img_parser_mod.o
 .debug_loc     0x0000000000004ab9      0x2e9 /home/ming/tf-a-stm32mp-2.2.r2-r0/tf-a-stm32mp-2.2.r2/../build/trusted/bl2/stm32mp_crypto_lib.o
 .debug_loc     0x0000000000004da2      0x1a6 /home/ming/tf-a-stm32mp-2.2.r2-r0/tf-a-stm32mp-2.2.r2/../build/trusted/bl2/stm32mp_img_parser_lib.o
 .debug_loc     0x0000000000004f48      0x14d /home/ming/tf-a-stm32mp-2.2.r2-r0/tf-a-stm32mp-2.2.r2/../build/trusted/bl2/stm32mp_trusted_boot.o
 .debug_loc     0x0000000000005095      0xdaf /home/ming/tf-a-stm32mp-2.2.r2-r0/tf-a-stm32mp-2.2.r2/../build/trusted/bl2/mmc.o
 .debug_loc     0x0000000000005e44      0x11a /home/ming/tf-a-stm32mp-2.2.r2-r0/tf-a-stm32mp-2.2.r2/../build/trusted/bl2/gpt.o
 .debug_loc     0x0000000000005f5e      0x39e /home/ming/tf-a-stm32mp-2.2.r2-r0/tf-a-stm32mp-2.2.r2/../build/trusted/bl2/partition.o
 .debug_loc     0x00000000000062fc      0x24c /home/ming/tf-a-stm32mp-2.2.r2-r0/tf-a-stm32mp-2.2.r2/../build/trusted/bl2/io_mmc.o
 .debug_loc     0x0000000000006548     0x1113 /home/ming/tf-a-stm32mp-2.2.r2-r0/tf-a-stm32mp-2.2.r2/../build/trusted/bl2/stm32_sdmmc2.o
 .debug_loc     0x000000000000765b      0x883 /home/ming/tf-a-stm32mp-2.2.r2-r0/tf-a-stm32mp-2.2.r2/../build/trusted/bl2/raw_nand.o
 .debug_loc     0x0000000000007ede     0x1ab8 /home/ming/tf-a-stm32mp-2.2.r2-r0/tf-a-stm32mp-2.2.r2/../build/trusted/bl2/stm32_fmc2_nand.o
 .debug_loc     0x0000000000009996      0x775 /home/ming/tf-a-stm32mp-2.2.r2-r0/tf-a-stm32mp-2.2.r2/../build/trusted/bl2/spi_nand.o
 .debug_loc     0x000000000000a10b      0x417 /home/ming/tf-a-stm32mp-2.2.r2-r0/tf-a-stm32mp-2.2.r2/../build/trusted/bl2/spi_nor.o
 .debug_loc     0x000000000000a522      0x3c6 /home/ming/tf-a-stm32mp-2.2.r2-r0/tf-a-stm32mp-2.2.r2/../build/trusted/bl2/spi_mem.o
 .debug_loc     0x000000000000a8e8      0x962 /home/ming/tf-a-stm32mp-2.2.r2-r0/tf-a-stm32mp-2.2.r2/../build/trusted/bl2/stm32_qspi.o
 .debug_loc     0x000000000000b24a      0x2ba /home/ming/tf-a-stm32mp-2.2.r2-r0/tf-a-stm32mp-2.2.r2/../build/trusted/bl2/core.o
 .debug_loc     0x000000000000b504       0xaa /home/ming/tf-a-stm32mp-2.2.r2-r0/tf-a-stm32mp-2.2.r2/../build/trusted/bl2/stm32mp1_boot_device.o
 .debug_loc     0x000000000000b5ae     0x1fdd /home/ming/tf-a-stm32mp-2.2.r2-r0/tf-a-stm32mp-2.2.r2/../build/trusted/bl2/stm32mp1_ddr.o
 .debug_loc     0x000000000000d58b      0x68a /home/ming/tf-a-stm32mp-2.2.r2-r0/tf-a-stm32mp-2.2.r2/../build/trusted/bl2/stm32mp1_ram.o
 .debug_loc     0x000000000000dc15      0x76e /home/ming/tf-a-stm32mp-2.2.r2-r0/tf-a-stm32mp-2.2.r2/../build/trusted/bl2/desc_image_load.o
 .debug_loc     0x000000000000e383       0xb0 /home/ming/tf-a-stm32mp-2.2.r2-r0/tf-a-stm32mp-2.2.r2/../build/trusted/bl2/plat_image_load.o
 .debug_loc     0x000000000000e433      0x128 /home/ming/tf-a-stm32mp-2.2.r2-r0/tf-a-stm32mp-2.2.r2/../build/trusted/bl2/bl2_image_load_v2.o
 .debug_loc     0x000000000000e55b       0xad /home/ming/tf-a-stm32mp-2.2.r2-r0/tf-a-stm32mp-2.2.r2/../build/trusted/bl2/bl2_main.o
 .debug_loc     0x000000000000e608      0x323 /home/ming/tf-a-stm32mp-2.2.r2-r0/tf-a-stm32mp-2.2.r2/../build/trusted/bl2/bl_common.o
 .debug_loc     0x000000000000e92b       0x9f /home/ming/tf-a-stm32mp-2.2.r2-r0/tf-a-stm32mp-2.2.r2/../build/trusted/bl2/tf_log.o
 .debug_loc     0x000000000000e9ca      0x252 /home/ming/tf-a-stm32mp-2.2.r2-r0/tf-a-stm32mp-2.2.r2/../build/trusted/bl2/multi_console.o
 .debug_loc     0x000000000000ec1c       0x6e /home/ming/tf-a-stm32mp-2.2.r2-r0/tf-a-stm32mp-2.2.r2/../build/trusted/bl2/plat_bl_common.o
 .debug_loc     0x000000000000ec8a       0x8e /home/ming/tf-a-stm32mp-2.2.r2-r0/tf-a-stm32mp-2.2.r2/../build/trusted/bl2/plat_log_common.o
 .debug_loc     0x000000000000ed18      0x11c /home/ming/tf-a-stm32mp-2.2.r2-r0/tf-a-stm32mp-2.2.r2/../build/trusted/bl2/popcountsi2.o
 .debug_loc     0x000000000000ee34       0x28 /home/ming/tf-a-stm32mp-2.2.r2-r0/tf-a-stm32mp-2.2.r2/../build/trusted/bl2/ctzdi2.o
 .debug_loc     0x000000000000ee5c      0x247 /home/ming/tf-a-stm32mp-2.2.r2-r0/tf-a-stm32mp-2.2.r2/../build/trusted/bl2/udivmoddi4.o
 .debug_loc     0x000000000000f0a3      0x258 /home/ming/tf-a-stm32mp-2.2.r2-r0/tf-a-stm32mp-2.2.r2/../build/trusted/bl2/stm32mp_common.o
 .debug_loc     0x000000000000f2fb      0x7c4 /home/ming/tf-a-stm32mp-2.2.r2-r0/tf-a-stm32mp-2.2.r2/../build/trusted/bl2/stm32mp1_private.o
 .debug_loc     0x000000000000fabf      0x32a /home/ming/tf-a-stm32mp-2.2.r2-r0/tf-a-stm32mp-2.2.r2/../build/trusted/bl2/xlat_tables_arch.o
 .debug_loc     0x000000000000fde9      0x4da /home/ming/tf-a-stm32mp-2.2.r2-r0/tf-a-stm32mp-2.2.r2/../build/trusted/bl2/xlat_tables_context.o
 .debug_loc     0x00000000000102c3     0x1782 /home/ming/tf-a-stm32mp-2.2.r2-r0/tf-a-stm32mp-2.2.r2/../build/trusted/bl2/xlat_tables_core.o
 .debug_loc     0x0000000000011a45      0x77e /home/ming/tf-a-stm32mp-2.2.r2-r0/tf-a-stm32mp-2.2.r2/../build/trusted/bl2/xlat_tables_utils.o
 .debug_loc     0x00000000000121c3      0x9af /home/ming/tf-a-stm32mp-2.2.r2-r0/tf-a-stm32mp-2.2.r2/../build/trusted/bl2/tzc400.o
 .debug_loc     0x0000000000012b72       0xf6 /home/ming/tf-a-stm32mp-2.2.r2-r0/tf-a-stm32mp-2.2.r2/../build/trusted/bl2/delay_timer.o
 .debug_loc     0x0000000000012c68       0xa8 /home/ming/tf-a-stm32mp-2.2.r2-r0/tf-a-stm32mp-2.2.r2/../build/trusted/bl2/generic_delay_timer.o
 .debug_loc     0x0000000000012d10     0x123d /home/ming/tf-a-stm32mp-2.2.r2-r0/tf-a-stm32mp-2.2.r2/../build/trusted/bl2/bsec2.o
 .debug_loc     0x0000000000013f4d      0xa13 /home/ming/tf-a-stm32mp-2.2.r2-r0/tf-a-stm32mp-2.2.r2/../build/trusted/bl2/stm32mp_clkfunc.o
 .debug_loc     0x0000000000014960     0x4b3e /home/ming/tf-a-stm32mp-2.2.r2-r0/tf-a-stm32mp-2.2.r2/../build/trusted/bl2/stm32mp1_clk.o
 .debug_loc     0x000000000001949e     0x2ba7 /home/ming/tf-a-stm32mp-2.2.r2-r0/tf-a-stm32mp-2.2.r2/../build/trusted/bl2/stm32mp1_ddr_helpers.o
 .debug_loc     0x000000000001c045      0xc9c /home/ming/tf-a-stm32mp-2.2.r2-r0/tf-a-stm32mp-2.2.r2/../build/trusted/bl2/stm32_gpio.o
 .debug_loc     0x000000000001cce1     0x2682 /home/ming/tf-a-stm32mp-2.2.r2-r0/tf-a-stm32mp-2.2.r2/../build/trusted/bl2/stm32_i2c.o
 .debug_loc     0x000000000001f363      0x23f /home/ming/tf-a-stm32mp-2.2.r2-r0/tf-a-stm32mp-2.2.r2/../build/trusted/bl2/stm32_iwdg.o
 .debug_loc     0x000000000001f5a2      0x7a3 /home/ming/tf-a-stm32mp-2.2.r2-r0/tf-a-stm32mp-2.2.r2/../build/trusted/bl2/stm32mp_pmic.o
 .debug_loc     0x000000000001fd45      0x685 /home/ming/tf-a-stm32mp-2.2.r2-r0/tf-a-stm32mp-2.2.r2/../build/trusted/bl2/stpmic1.o
 .debug_loc     0x00000000000203ca       0x21 /home/ming/tf-a-stm32mp-2.2.r2-r0/tf-a-stm32mp-2.2.r2/../build/trusted/bl2/stm32mp_dummy_regulator.o
 .debug_loc     0x00000000000203eb       0xcf /home/ming/tf-a-stm32mp-2.2.r2-r0/tf-a-stm32mp-2.2.r2/../build/trusted/bl2/stm32mp_regulator.o
 .debug_loc     0x00000000000204ba      0x1f6 /home/ming/tf-a-stm32mp-2.2.r2-r0/tf-a-stm32mp-2.2.r2/../build/trusted/bl2/stm32mp1_reset.o
 .debug_loc     0x00000000000206b0      0xd2d /home/ming/tf-a-stm32mp-2.2.r2-r0/tf-a-stm32mp-2.2.r2/../build/trusted/bl2/stm32mp_dt.o
 .debug_loc     0x00000000000213dd      0x272 /home/ming/tf-a-stm32mp-2.2.r2-r0/tf-a-stm32mp-2.2.r2/../build/trusted/bl2/stm32mp_shres_helpers.o
 .debug_loc     0x000000000002164f      0x38f /home/ming/tf-a-stm32mp-2.2.r2-r0/tf-a-stm32mp-2.2.r2/../build/trusted/bl2/stm32mp1_context.o
 .debug_loc     0x00000000000219de      0x18b /home/ming/tf-a-stm32mp-2.2.r2-r0/tf-a-stm32mp-2.2.r2/../build/trusted/bl2/stm32mp1_dbgmcu.o
 .debug_loc     0x0000000000021b69       0x91 /home/ming/tf-a-stm32mp-2.2.r2-r0/tf-a-stm32mp-2.2.r2/../build/trusted/bl2/stm32mp1_security.o
 .debug_loc     0x0000000000021bfa      0x3f5 /home/ming/tf-a-stm32mp-2.2.r2-r0/tf-a-stm32mp-2.2.r2/../build/trusted/bl2/stm32mp1_syscfg.o
 .debug_loc     0x0000000000021fef      0x522 /home/ming/tf-a-stm32mp-2.2.r2-r0/tf-a-stm32mp-2.2.r2/../build/trusted/lib/libfdt.a(fdt.o)
 .debug_loc     0x0000000000022511      0x122 /home/ming/tf-a-stm32mp-2.2.r2-r0/tf-a-stm32mp-2.2.r2/../build/trusted/lib/libfdt.a(fdt_addresses.o)
 .debug_loc     0x0000000000022633     0x1c92 /home/ming/tf-a-stm32mp-2.2.r2-r0/tf-a-stm32mp-2.2.r2/../build/trusted/lib/libfdt.a(fdt_ro.o)
 .debug_loc     0x00000000000242c5       0x58 /home/ming/tf-a-stm32mp-2.2.r2-r0/tf-a-stm32mp-2.2.r2/../build/trusted/lib/libc.a(assert.o)
 .debug_loc     0x000000000002431d       0xb8 /home/ming/tf-a-stm32mp-2.2.r2-r0/tf-a-stm32mp-2.2.r2/../build/trusted/lib/libc.a(memchr.o)
 .debug_loc     0x00000000000243d5       0xe4 /home/ming/tf-a-stm32mp-2.2.r2-r0/tf-a-stm32mp-2.2.r2/../build/trusted/lib/libc.a(memcmp.o)
 .debug_loc     0x00000000000244b9       0x85 /home/ming/tf-a-stm32mp-2.2.r2-r0/tf-a-stm32mp-2.2.r2/../build/trusted/lib/libc.a(memcpy.o)
 .debug_loc     0x000000000002453e      0x137 /home/ming/tf-a-stm32mp-2.2.r2-r0/tf-a-stm32mp-2.2.r2/../build/trusted/lib/libc.a(memmove.o)
 .debug_loc     0x0000000000024675       0x4c /home/ming/tf-a-stm32mp-2.2.r2-r0/tf-a-stm32mp-2.2.r2/../build/trusted/lib/libc.a(memset.o)
 .debug_loc     0x00000000000246c1      0x5ae /home/ming/tf-a-stm32mp-2.2.r2-r0/tf-a-stm32mp-2.2.r2/../build/trusted/lib/libc.a(printf.o)
 .debug_loc     0x0000000000024c6f       0x1e /home/ming/tf-a-stm32mp-2.2.r2-r0/tf-a-stm32mp-2.2.r2/../build/trusted/lib/libc.a(putchar.o)
 .debug_loc     0x0000000000024c8d      0x1ab /home/ming/tf-a-stm32mp-2.2.r2-r0/tf-a-stm32mp-2.2.r2/../build/trusted/lib/libc.a(snprintf.o)
 .debug_loc     0x0000000000024e38       0x57 /home/ming/tf-a-stm32mp-2.2.r2-r0/tf-a-stm32mp-2.2.r2/../build/trusted/lib/libc.a(strchr.o)
 .debug_loc     0x0000000000024e8f       0x63 /home/ming/tf-a-stm32mp-2.2.r2-r0/tf-a-stm32mp-2.2.r2/../build/trusted/lib/libc.a(strcmp.o)
 .debug_loc     0x0000000000024ef2       0x57 /home/ming/tf-a-stm32mp-2.2.r2-r0/tf-a-stm32mp-2.2.r2/../build/trusted/lib/libc.a(strlen.o)
 .debug_loc     0x0000000000024f49      0x116 /home/ming/tf-a-stm32mp-2.2.r2-r0/tf-a-stm32mp-2.2.r2/../build/trusted/lib/libc.a(strncmp.o)
 .debug_loc     0x000000000002505f       0x32 /home/ming/tf-a-stm32mp-2.2.r2-r0/tf-a-stm32mp-2.2.r2/../build/trusted/lib/libc.a(strnlen.o)
 .debug_loc     0x0000000000025091       0x69 /home/ming/tf-a-stm32mp-2.2.r2-r0/tf-a-stm32mp-2.2.r2/../build/trusted/lib/libc.a(strrchr.o)

.debug_ranges   0x0000000000000000     0x3f90
 .debug_ranges  0x0000000000000000       0xe8 /home/ming/tf-a-stm32mp-2.2.r2-r0/tf-a-stm32mp-2.2.r2/../build/trusted/bl2/io_block.o
 .debug_ranges  0x00000000000000e8       0x48 /home/ming/tf-a-stm32mp-2.2.r2-r0/tf-a-stm32mp-2.2.r2/../build/trusted/bl2/io_dummy.o
 .debug_ranges  0x0000000000000130       0x80 /home/ming/tf-a-stm32mp-2.2.r2-r0/tf-a-stm32mp-2.2.r2/../build/trusted/bl2/io_mtd.o
 .debug_ranges  0x00000000000001b0       0xe0 /home/ming/tf-a-stm32mp-2.2.r2-r0/tf-a-stm32mp-2.2.r2/../build/trusted/bl2/io_storage.o
 .debug_ranges  0x0000000000000290      0x178 /home/ming/tf-a-stm32mp-2.2.r2-r0/tf-a-stm32mp-2.2.r2/../build/trusted/bl2/stm32_hash.o
 .debug_ranges  0x0000000000000408       0x50 /home/ming/tf-a-stm32mp-2.2.r2-r0/tf-a-stm32mp-2.2.r2/../build/trusted/bl2/io_stm32image.o
 .debug_ranges  0x0000000000000458       0x78 /home/ming/tf-a-stm32mp-2.2.r2-r0/tf-a-stm32mp-2.2.r2/../build/trusted/bl2/bl2_io_storage.o
 .debug_ranges  0x00000000000004d0      0x120 /home/ming/tf-a-stm32mp-2.2.r2-r0/tf-a-stm32mp-2.2.r2/../build/trusted/bl2/bl2_plat_setup.o
 .debug_ranges  0x00000000000005f0       0x68 /home/ming/tf-a-stm32mp-2.2.r2-r0/tf-a-stm32mp-2.2.r2/../build/trusted/bl2/auth_mod.o
 .debug_ranges  0x0000000000000658       0x20 /home/ming/tf-a-stm32mp-2.2.r2-r0/tf-a-stm32mp-2.2.r2/../build/trusted/bl2/crypto_mod.o
 .debug_ranges  0x0000000000000678       0x38 /home/ming/tf-a-stm32mp-2.2.r2-r0/tf-a-stm32mp-2.2.r2/../build/trusted/bl2/img_parser_mod.o
 .debug_ranges  0x00000000000006b0       0x20 /home/ming/tf-a-stm32mp-2.2.r2-r0/tf-a-stm32mp-2.2.r2/../build/trusted/bl2/stm32mp_crypto_lib.o
 .debug_ranges  0x00000000000006d0       0x20 /home/ming/tf-a-stm32mp-2.2.r2-r0/tf-a-stm32mp-2.2.r2/../build/trusted/bl2/stm32mp_img_parser_lib.o
 .debug_ranges  0x00000000000006f0       0x20 /home/ming/tf-a-stm32mp-2.2.r2-r0/tf-a-stm32mp-2.2.r2/../build/trusted/bl2/stm32mp_trusted_boot.o
 .debug_ranges  0x0000000000000710      0x190 /home/ming/tf-a-stm32mp-2.2.r2-r0/tf-a-stm32mp-2.2.r2/../build/trusted/bl2/mmc.o
 .debug_ranges  0x00000000000008a0       0x38 /home/ming/tf-a-stm32mp-2.2.r2-r0/tf-a-stm32mp-2.2.r2/../build/trusted/bl2/gpt.o
 .debug_ranges  0x00000000000008d8       0x40 /home/ming/tf-a-stm32mp-2.2.r2-r0/tf-a-stm32mp-2.2.r2/../build/trusted/bl2/partition.o
 .debug_ranges  0x0000000000000918       0x48 /home/ming/tf-a-stm32mp-2.2.r2-r0/tf-a-stm32mp-2.2.r2/../build/trusted/bl2/io_mmc.o
 .debug_ranges  0x0000000000000960      0x1b0 /home/ming/tf-a-stm32mp-2.2.r2-r0/tf-a-stm32mp-2.2.r2/../build/trusted/bl2/stm32_sdmmc2.o
 .debug_ranges  0x0000000000000b10      0x108 /home/ming/tf-a-stm32mp-2.2.r2-r0/tf-a-stm32mp-2.2.r2/../build/trusted/bl2/raw_nand.o
 .debug_ranges  0x0000000000000c18      0x358 /home/ming/tf-a-stm32mp-2.2.r2-r0/tf-a-stm32mp-2.2.r2/../build/trusted/bl2/stm32_fmc2_nand.o
 .debug_ranges  0x0000000000000f70       0xe8 /home/ming/tf-a-stm32mp-2.2.r2-r0/tf-a-stm32mp-2.2.r2/../build/trusted/bl2/spi_nand.o
 .debug_ranges  0x0000000000001058       0xe0 /home/ming/tf-a-stm32mp-2.2.r2-r0/tf-a-stm32mp-2.2.r2/../build/trusted/bl2/spi_nor.o
 .debug_ranges  0x0000000000001138       0x90 /home/ming/tf-a-stm32mp-2.2.r2-r0/tf-a-stm32mp-2.2.r2/../build/trusted/bl2/spi_mem.o
 .debug_ranges  0x00000000000011c8      0x248 /home/ming/tf-a-stm32mp-2.2.r2-r0/tf-a-stm32mp-2.2.r2/../build/trusted/bl2/stm32_qspi.o
 .debug_ranges  0x0000000000001410       0x30 /home/ming/tf-a-stm32mp-2.2.r2-r0/tf-a-stm32mp-2.2.r2/../build/trusted/bl2/core.o
 .debug_ranges  0x0000000000001440       0x28 /home/ming/tf-a-stm32mp-2.2.r2-r0/tf-a-stm32mp-2.2.r2/../build/trusted/bl2/stm32mp1_boot_device.o
 .debug_ranges  0x0000000000001468      0x1e0 /home/ming/tf-a-stm32mp-2.2.r2-r0/tf-a-stm32mp-2.2.r2/../build/trusted/bl2/stm32mp1_ddr.o
 .debug_ranges  0x0000000000001648      0x130 /home/ming/tf-a-stm32mp-2.2.r2-r0/tf-a-stm32mp-2.2.r2/../build/trusted/bl2/stm32mp1_ram.o
 .debug_ranges  0x0000000000001778       0x60 /home/ming/tf-a-stm32mp-2.2.r2-r0/tf-a-stm32mp-2.2.r2/../build/trusted/bl2/desc_image_load.o
 .debug_ranges  0x00000000000017d8       0x20 /home/ming/tf-a-stm32mp-2.2.r2-r0/tf-a-stm32mp-2.2.r2/../build/trusted/bl2/plat_image_load.o
 .debug_ranges  0x00000000000017f8       0x10 /home/ming/tf-a-stm32mp-2.2.r2-r0/tf-a-stm32mp-2.2.r2/../build/trusted/bl2/bl2_image_load_v2.o
 .debug_ranges  0x0000000000001808       0x18 /home/ming/tf-a-stm32mp-2.2.r2-r0/tf-a-stm32mp-2.2.r2/../build/trusted/bl2/bl2_main.o
 .debug_ranges  0x0000000000001820       0x10 /home/ming/tf-a-stm32mp-2.2.r2-r0/tf-a-stm32mp-2.2.r2/../build/trusted/bl2/bl2_arch_setup.o
 .debug_ranges  0x0000000000001830       0x60 /home/ming/tf-a-stm32mp-2.2.r2-r0/tf-a-stm32mp-2.2.r2/../build/trusted/bl2/bl_common.o
 .debug_ranges  0x0000000000001890       0x18 /home/ming/tf-a-stm32mp-2.2.r2-r0/tf-a-stm32mp-2.2.r2/../build/trusted/bl2/tf_log.o
 .debug_ranges  0x00000000000018a8       0x90 /home/ming/tf-a-stm32mp-2.2.r2-r0/tf-a-stm32mp-2.2.r2/../build/trusted/bl2/multi_console.o
 .debug_ranges  0x0000000000001938       0x28 /home/ming/tf-a-stm32mp-2.2.r2-r0/tf-a-stm32mp-2.2.r2/../build/trusted/bl2/plat_bl_common.o
 .debug_ranges  0x0000000000001960       0x10 /home/ming/tf-a-stm32mp-2.2.r2-r0/tf-a-stm32mp-2.2.r2/../build/trusted/bl2/plat_log_common.o
 .debug_ranges  0x0000000000001970       0x10 /home/ming/tf-a-stm32mp-2.2.r2-r0/tf-a-stm32mp-2.2.r2/../build/trusted/bl2/popcountsi2.o
 .debug_ranges  0x0000000000001980       0x10 /home/ming/tf-a-stm32mp-2.2.r2-r0/tf-a-stm32mp-2.2.r2/../build/trusted/bl2/ctzdi2.o
 .debug_ranges  0x0000000000001990       0x28 /home/ming/tf-a-stm32mp-2.2.r2-r0/tf-a-stm32mp-2.2.r2/../build/trusted/bl2/udivmoddi4.o
 .debug_ranges  0x00000000000019b8       0xb8 /home/ming/tf-a-stm32mp-2.2.r2-r0/tf-a-stm32mp-2.2.r2/../build/trusted/bl2/stm32mp_common.o
 .debug_ranges  0x0000000000001a70       0xc8 /home/ming/tf-a-stm32mp-2.2.r2-r0/tf-a-stm32mp-2.2.r2/../build/trusted/bl2/stm32mp1_private.o
 .debug_ranges  0x0000000000001b38       0x78 /home/ming/tf-a-stm32mp-2.2.r2-r0/tf-a-stm32mp-2.2.r2/../build/trusted/bl2/xlat_tables_arch.o
 .debug_ranges  0x0000000000001bb0       0x68 /home/ming/tf-a-stm32mp-2.2.r2-r0/tf-a-stm32mp-2.2.r2/../build/trusted/bl2/xlat_tables_context.o
 .debug_ranges  0x0000000000001c18      0x298 /home/ming/tf-a-stm32mp-2.2.r2-r0/tf-a-stm32mp-2.2.r2/../build/trusted/bl2/xlat_tables_core.o
 .debug_ranges  0x0000000000001eb0       0xf8 /home/ming/tf-a-stm32mp-2.2.r2-r0/tf-a-stm32mp-2.2.r2/../build/trusted/bl2/xlat_tables_utils.o
 .debug_ranges  0x0000000000001fa8      0x138 /home/ming/tf-a-stm32mp-2.2.r2-r0/tf-a-stm32mp-2.2.r2/../build/trusted/bl2/tzc400.o
 .debug_ranges  0x00000000000020e0       0x38 /home/ming/tf-a-stm32mp-2.2.r2-r0/tf-a-stm32mp-2.2.r2/../build/trusted/bl2/delay_timer.o
 .debug_ranges  0x0000000000002118       0x20 /home/ming/tf-a-stm32mp-2.2.r2-r0/tf-a-stm32mp-2.2.r2/../build/trusted/bl2/generic_delay_timer.o
 .debug_ranges  0x0000000000002138      0x120 /home/ming/tf-a-stm32mp-2.2.r2-r0/tf-a-stm32mp-2.2.r2/../build/trusted/bl2/bsec2.o
 .debug_ranges  0x0000000000002258      0x150 /home/ming/tf-a-stm32mp-2.2.r2-r0/tf-a-stm32mp-2.2.r2/../build/trusted/bl2/stm32mp_clkfunc.o
 .debug_ranges  0x00000000000023a8      0x6c0 /home/ming/tf-a-stm32mp-2.2.r2-r0/tf-a-stm32mp-2.2.r2/../build/trusted/bl2/stm32mp1_clk.o
 .debug_ranges  0x0000000000002a68      0x1b0 /home/ming/tf-a-stm32mp-2.2.r2-r0/tf-a-stm32mp-2.2.r2/../build/trusted/bl2/stm32mp1_ddr_helpers.o
 .debug_ranges  0x0000000000002c18      0x1c8 /home/ming/tf-a-stm32mp-2.2.r2-r0/tf-a-stm32mp-2.2.r2/../build/trusted/bl2/stm32_gpio.o
 .debug_ranges  0x0000000000002de0      0x448 /home/ming/tf-a-stm32mp-2.2.r2-r0/tf-a-stm32mp-2.2.r2/../build/trusted/bl2/stm32_i2c.o
 .debug_ranges  0x0000000000003228       0x68 /home/ming/tf-a-stm32mp-2.2.r2-r0/tf-a-stm32mp-2.2.r2/../build/trusted/bl2/stm32_iwdg.o
 .debug_ranges  0x0000000000003290      0x138 /home/ming/tf-a-stm32mp-2.2.r2-r0/tf-a-stm32mp-2.2.r2/../build/trusted/bl2/stm32mp_pmic.o
 .debug_ranges  0x00000000000033c8       0xb0 /home/ming/tf-a-stm32mp-2.2.r2-r0/tf-a-stm32mp-2.2.r2/../build/trusted/bl2/stpmic1.o
 .debug_ranges  0x0000000000003478       0x18 /home/ming/tf-a-stm32mp-2.2.r2-r0/tf-a-stm32mp-2.2.r2/../build/trusted/bl2/stm32mp_dummy_regulator.o
 .debug_ranges  0x0000000000003490       0x28 /home/ming/tf-a-stm32mp-2.2.r2-r0/tf-a-stm32mp-2.2.r2/../build/trusted/bl2/stm32mp_regulator.o
 .debug_ranges  0x00000000000034b8       0x98 /home/ming/tf-a-stm32mp-2.2.r2-r0/tf-a-stm32mp-2.2.r2/../build/trusted/bl2/stm32mp1_reset.o
 .debug_ranges  0x0000000000003550      0x170 /home/ming/tf-a-stm32mp-2.2.r2-r0/tf-a-stm32mp-2.2.r2/../build/trusted/bl2/stm32mp_dt.o
 .debug_ranges  0x00000000000036c0       0x30 /home/ming/tf-a-stm32mp-2.2.r2-r0/tf-a-stm32mp-2.2.r2/../build/trusted/bl2/stm32mp_shres_helpers.o
 .debug_ranges  0x00000000000036f0       0xb0 /home/ming/tf-a-stm32mp-2.2.r2-r0/tf-a-stm32mp-2.2.r2/../build/trusted/bl2/stm32mp1_context.o
 .debug_ranges  0x00000000000037a0       0x58 /home/ming/tf-a-stm32mp-2.2.r2-r0/tf-a-stm32mp-2.2.r2/../build/trusted/bl2/stm32mp1_dbgmcu.o
 .debug_ranges  0x00000000000037f8       0x48 /home/ming/tf-a-stm32mp-2.2.r2-r0/tf-a-stm32mp-2.2.r2/../build/trusted/bl2/stm32mp1_security.o
 .debug_ranges  0x0000000000003840       0xf0 /home/ming/tf-a-stm32mp-2.2.r2-r0/tf-a-stm32mp-2.2.r2/../build/trusted/bl2/stm32mp1_syscfg.o
 .debug_ranges  0x0000000000003930       0x20 /home/ming/tf-a-stm32mp-2.2.r2-r0/tf-a-stm32mp-2.2.r2/../build/trusted/bl2/spinlock.o
 .debug_ranges  0x0000000000003950       0x20 /home/ming/tf-a-stm32mp-2.2.r2-r0/tf-a-stm32mp-2.2.r2/../build/trusted/bl2/platform_up_stack.o
 .debug_ranges  0x0000000000003970       0x20 /home/ming/tf-a-stm32mp-2.2.r2-r0/tf-a-stm32mp-2.2.r2/../build/trusted/bl2/bl2_el3_entrypoint.o
 .debug_ranges  0x0000000000003990       0x38 /home/ming/tf-a-stm32mp-2.2.r2-r0/tf-a-stm32mp-2.2.r2/../build/trusted/bl2/cpu_helpers.o
 .debug_ranges  0x00000000000039c8       0x50 /home/ming/tf-a-stm32mp-2.2.r2-r0/tf-a-stm32mp-2.2.r2/../build/trusted/bl2/debug.o
 .debug_ranges  0x0000000000003a18       0x58 /home/ming/tf-a-stm32mp-2.2.r2-r0/tf-a-stm32mp-2.2.r2/../build/trusted/bl2/cache_helpers.o
 .debug_ranges  0x0000000000003a70       0x38 /home/ming/tf-a-stm32mp-2.2.r2-r0/tf-a-stm32mp-2.2.r2/../build/trusted/bl2/misc_helpers.o
 .debug_ranges  0x0000000000003aa8       0x48 /home/ming/tf-a-stm32mp-2.2.r2-r0/tf-a-stm32mp-2.2.r2/../build/trusted/bl2/stm32_console.o
 .debug_ranges  0x0000000000003af0       0x20 /home/ming/tf-a-stm32mp-2.2.r2-r0/tf-a-stm32mp-2.2.r2/../build/trusted/bl2/enable_mmu.o
 .debug_ranges  0x0000000000003b10       0x38 /home/ming/tf-a-stm32mp-2.2.r2-r0/tf-a-stm32mp-2.2.r2/../build/trusted/bl2/cortex_a7.o
 .debug_ranges  0x0000000000003b48       0x90 /home/ming/tf-a-stm32mp-2.2.r2-r0/tf-a-stm32mp-2.2.r2/../build/trusted/bl2/stm32mp1_helper.o
 .debug_ranges  0x0000000000003bd8       0x60 /home/ming/tf-a-stm32mp-2.2.r2-r0/tf-a-stm32mp-2.2.r2/../build/trusted/lib/libfdt.a(fdt.o)
 .debug_ranges  0x0000000000003c38       0x18 /home/ming/tf-a-stm32mp-2.2.r2-r0/tf-a-stm32mp-2.2.r2/../build/trusted/lib/libfdt.a(fdt_addresses.o)
 .debug_ranges  0x0000000000003c50      0x1f0 /home/ming/tf-a-stm32mp-2.2.r2-r0/tf-a-stm32mp-2.2.r2/../build/trusted/lib/libfdt.a(fdt_ro.o)
 .debug_ranges  0x0000000000003e40       0x10 /home/ming/tf-a-stm32mp-2.2.r2-r0/tf-a-stm32mp-2.2.r2/../build/trusted/lib/libc.a(assert.o)
 .debug_ranges  0x0000000000003e50       0x10 /home/ming/tf-a-stm32mp-2.2.r2-r0/tf-a-stm32mp-2.2.r2/../build/trusted/lib/libc.a(memchr.o)
 .debug_ranges  0x0000000000003e60       0x10 /home/ming/tf-a-stm32mp-2.2.r2-r0/tf-a-stm32mp-2.2.r2/../build/trusted/lib/libc.a(memcmp.o)
 .debug_ranges  0x0000000000003e70       0x10 /home/ming/tf-a-stm32mp-2.2.r2-r0/tf-a-stm32mp-2.2.r2/../build/trusted/lib/libc.a(memcpy.o)
 .debug_ranges  0x0000000000003e80       0x28 /home/ming/tf-a-stm32mp-2.2.r2-r0/tf-a-stm32mp-2.2.r2/../build/trusted/lib/libc.a(memmove.o)
 .debug_ranges  0x0000000000003ea8       0x10 /home/ming/tf-a-stm32mp-2.2.r2-r0/tf-a-stm32mp-2.2.r2/../build/trusted/lib/libc.a(memset.o)
 .debug_ranges  0x0000000000003eb8       0x38 /home/ming/tf-a-stm32mp-2.2.r2-r0/tf-a-stm32mp-2.2.r2/../build/trusted/lib/libc.a(printf.o)
 .debug_ranges  0x0000000000003ef0       0x10 /home/ming/tf-a-stm32mp-2.2.r2-r0/tf-a-stm32mp-2.2.r2/../build/trusted/lib/libc.a(putchar.o)
 .debug_ranges  0x0000000000003f00       0x30 /home/ming/tf-a-stm32mp-2.2.r2-r0/tf-a-stm32mp-2.2.r2/../build/trusted/lib/libc.a(snprintf.o)
 .debug_ranges  0x0000000000003f30       0x10 /home/ming/tf-a-stm32mp-2.2.r2-r0/tf-a-stm32mp-2.2.r2/../build/trusted/lib/libc.a(strchr.o)
 .debug_ranges  0x0000000000003f40       0x10 /home/ming/tf-a-stm32mp-2.2.r2-r0/tf-a-stm32mp-2.2.r2/../build/trusted/lib/libc.a(strcmp.o)
 .debug_ranges  0x0000000000003f50       0x10 /home/ming/tf-a-stm32mp-2.2.r2-r0/tf-a-stm32mp-2.2.r2/../build/trusted/lib/libc.a(strlen.o)
 .debug_ranges  0x0000000000003f60       0x10 /home/ming/tf-a-stm32mp-2.2.r2-r0/tf-a-stm32mp-2.2.r2/../build/trusted/lib/libc.a(strncmp.o)
 .debug_ranges  0x0000000000003f70       0x10 /home/ming/tf-a-stm32mp-2.2.r2-r0/tf-a-stm32mp-2.2.r2/../build/trusted/lib/libc.a(strnlen.o)
 .debug_ranges  0x0000000000003f80       0x10 /home/ming/tf-a-stm32mp-2.2.r2-r0/tf-a-stm32mp-2.2.r2/../build/trusted/lib/libc.a(strrchr.o)

.debug_frame    0x0000000000000000     0x510c
 .debug_frame   0x0000000000000000      0x118 /home/ming/tf-a-stm32mp-2.2.r2-r0/tf-a-stm32mp-2.2.r2/../build/trusted/bl2/io_block.o
 .debug_frame   0x0000000000000118       0xc0 /home/ming/tf-a-stm32mp-2.2.r2-r0/tf-a-stm32mp-2.2.r2/../build/trusted/bl2/io_dummy.o
 .debug_frame   0x00000000000001d8       0xe8 /home/ming/tf-a-stm32mp-2.2.r2-r0/tf-a-stm32mp-2.2.r2/../build/trusted/bl2/io_mtd.o
 .debug_frame   0x00000000000002c0      0x1c4 /home/ming/tf-a-stm32mp-2.2.r2-r0/tf-a-stm32mp-2.2.r2/../build/trusted/bl2/io_storage.o
 .debug_frame   0x0000000000000484       0xf0 /home/ming/tf-a-stm32mp-2.2.r2-r0/tf-a-stm32mp-2.2.r2/../build/trusted/bl2/stm32_hash.o
 .debug_frame   0x0000000000000574       0xf4 /home/ming/tf-a-stm32mp-2.2.r2-r0/tf-a-stm32mp-2.2.r2/../build/trusted/bl2/io_stm32image.o
 .debug_frame   0x0000000000000668       0xc4 /home/ming/tf-a-stm32mp-2.2.r2-r0/tf-a-stm32mp-2.2.r2/../build/trusted/bl2/bl2_io_storage.o
 .debug_frame   0x000000000000072c       0x94 /home/ming/tf-a-stm32mp-2.2.r2-r0/tf-a-stm32mp-2.2.r2/../build/trusted/bl2/bl2_plat_setup.o
 .debug_frame   0x00000000000007c0       0xa4 /home/ming/tf-a-stm32mp-2.2.r2-r0/tf-a-stm32mp-2.2.r2/../build/trusted/bl2/auth_mod.o
 .debug_frame   0x0000000000000864       0x80 /home/ming/tf-a-stm32mp-2.2.r2-r0/tf-a-stm32mp-2.2.r2/../build/trusted/bl2/crypto_mod.o
 .debug_frame   0x00000000000008e4       0x7c /home/ming/tf-a-stm32mp-2.2.r2-r0/tf-a-stm32mp-2.2.r2/../build/trusted/bl2/img_parser_mod.o
 .debug_frame   0x0000000000000960       0x80 /home/ming/tf-a-stm32mp-2.2.r2-r0/tf-a-stm32mp-2.2.r2/../build/trusted/bl2/stm32mp_crypto_lib.o
 .debug_frame   0x00000000000009e0       0x5c /home/ming/tf-a-stm32mp-2.2.r2-r0/tf-a-stm32mp-2.2.r2/../build/trusted/bl2/stm32mp_img_parser_lib.o
 .debug_frame   0x0000000000000a3c       0x64 /home/ming/tf-a-stm32mp-2.2.r2-r0/tf-a-stm32mp-2.2.r2/../build/trusted/bl2/stm32mp_trusted_boot.o
 .debug_frame   0x0000000000000aa0      0x198 /home/ming/tf-a-stm32mp-2.2.r2-r0/tf-a-stm32mp-2.2.r2/../build/trusted/bl2/mmc.o
 .debug_frame   0x0000000000000c38       0x2c /home/ming/tf-a-stm32mp-2.2.r2-r0/tf-a-stm32mp-2.2.r2/../build/trusted/bl2/gpt.o
 .debug_frame   0x0000000000000c64       0x84 /home/ming/tf-a-stm32mp-2.2.r2-r0/tf-a-stm32mp-2.2.r2/../build/trusted/bl2/partition.o
 .debug_frame   0x0000000000000ce8       0xcc /home/ming/tf-a-stm32mp-2.2.r2-r0/tf-a-stm32mp-2.2.r2/../build/trusted/bl2/io_mmc.o
 .debug_frame   0x0000000000000db4      0x178 /home/ming/tf-a-stm32mp-2.2.r2-r0/tf-a-stm32mp-2.2.r2/../build/trusted/bl2/stm32_sdmmc2.o
 .debug_frame   0x0000000000000f2c      0x1b8 /home/ming/tf-a-stm32mp-2.2.r2-r0/tf-a-stm32mp-2.2.r2/../build/trusted/bl2/raw_nand.o
 .debug_frame   0x00000000000010e4       0xe4 /home/ming/tf-a-stm32mp-2.2.r2-r0/tf-a-stm32mp-2.2.r2/../build/trusted/bl2/stm32_fmc2_nand.o
 .debug_frame   0x00000000000011c8      0x140 /home/ming/tf-a-stm32mp-2.2.r2-r0/tf-a-stm32mp-2.2.r2/../build/trusted/bl2/spi_nand.o
 .debug_frame   0x0000000000001308       0xf4 /home/ming/tf-a-stm32mp-2.2.r2-r0/tf-a-stm32mp-2.2.r2/../build/trusted/bl2/spi_nor.o
 .debug_frame   0x00000000000013fc       0x80 /home/ming/tf-a-stm32mp-2.2.r2-r0/tf-a-stm32mp-2.2.r2/../build/trusted/bl2/spi_mem.o
 .debug_frame   0x000000000000147c       0xfc /home/ming/tf-a-stm32mp-2.2.r2-r0/tf-a-stm32mp-2.2.r2/../build/trusted/bl2/stm32_qspi.o
 .debug_frame   0x0000000000001578       0x50 /home/ming/tf-a-stm32mp-2.2.r2-r0/tf-a-stm32mp-2.2.r2/../build/trusted/bl2/core.o
 .debug_frame   0x00000000000015c8       0x74 /home/ming/tf-a-stm32mp-2.2.r2-r0/tf-a-stm32mp-2.2.r2/../build/trusted/bl2/stm32mp1_boot_device.o
 .debug_frame   0x000000000000163c       0xf4 /home/ming/tf-a-stm32mp-2.2.r2-r0/tf-a-stm32mp-2.2.r2/../build/trusted/bl2/stm32mp1_ddr.o
 .debug_frame   0x0000000000001730       0x74 /home/ming/tf-a-stm32mp-2.2.r2-r0/tf-a-stm32mp-2.2.r2/../build/trusted/bl2/stm32mp1_ram.o
 .debug_frame   0x00000000000017a4       0xe4 /home/ming/tf-a-stm32mp-2.2.r2-r0/tf-a-stm32mp-2.2.r2/../build/trusted/bl2/desc_image_load.o
 .debug_frame   0x0000000000001888       0x5c /home/ming/tf-a-stm32mp-2.2.r2-r0/tf-a-stm32mp-2.2.r2/../build/trusted/bl2/plat_image_load.o
 .debug_frame   0x00000000000018e4       0x34 /home/ming/tf-a-stm32mp-2.2.r2-r0/tf-a-stm32mp-2.2.r2/../build/trusted/bl2/bl2_image_load_v2.o
 .debug_frame   0x0000000000001918       0x48 /home/ming/tf-a-stm32mp-2.2.r2-r0/tf-a-stm32mp-2.2.r2/../build/trusted/bl2/bl2_main.o
 .debug_frame   0x0000000000001960       0x20 /home/ming/tf-a-stm32mp-2.2.r2-r0/tf-a-stm32mp-2.2.r2/../build/trusted/bl2/bl2_arch_setup.o
 .debug_frame   0x0000000000001980       0x80 /home/ming/tf-a-stm32mp-2.2.r2-r0/tf-a-stm32mp-2.2.r2/../build/trusted/bl2/bl_common.o
 .debug_frame   0x0000000000001a00       0x60 /home/ming/tf-a-stm32mp-2.2.r2-r0/tf-a-stm32mp-2.2.r2/../build/trusted/bl2/tf_log.o
 .debug_frame   0x0000000000001a60       0xdc /home/ming/tf-a-stm32mp-2.2.r2-r0/tf-a-stm32mp-2.2.r2/../build/trusted/bl2/multi_console.o
 .debug_frame   0x0000000000001b3c       0x8c /home/ming/tf-a-stm32mp-2.2.r2-r0/tf-a-stm32mp-2.2.r2/../build/trusted/bl2/plat_bl_common.o
 .debug_frame   0x0000000000001bc8       0x20 /home/ming/tf-a-stm32mp-2.2.r2-r0/tf-a-stm32mp-2.2.r2/../build/trusted/bl2/plat_log_common.o
 .debug_frame   0x0000000000001be8       0x20 /home/ming/tf-a-stm32mp-2.2.r2-r0/tf-a-stm32mp-2.2.r2/../build/trusted/bl2/popcountsi2.o
 .debug_frame   0x0000000000001c08       0x20 /home/ming/tf-a-stm32mp-2.2.r2-r0/tf-a-stm32mp-2.2.r2/../build/trusted/bl2/ctzdi2.o
 .debug_frame   0x0000000000001c28       0x34 /home/ming/tf-a-stm32mp-2.2.r2-r0/tf-a-stm32mp-2.2.r2/../build/trusted/bl2/udivmoddi4.o
 .debug_frame   0x0000000000001c5c      0x1ac /home/ming/tf-a-stm32mp-2.2.r2-r0/tf-a-stm32mp-2.2.r2/../build/trusted/bl2/stm32mp_common.o
 .debug_frame   0x0000000000001e08      0x210 /home/ming/tf-a-stm32mp-2.2.r2-r0/tf-a-stm32mp-2.2.r2/../build/trusted/bl2/stm32mp1_private.o
 .debug_frame   0x0000000000002018       0xf0 /home/ming/tf-a-stm32mp-2.2.r2-r0/tf-a-stm32mp-2.2.r2/../build/trusted/bl2/xlat_tables_arch.o
 .debug_frame   0x0000000000002108      0x13c /home/ming/tf-a-stm32mp-2.2.r2-r0/tf-a-stm32mp-2.2.r2/../build/trusted/bl2/xlat_tables_context.o
 .debug_frame   0x0000000000002244      0x258 /home/ming/tf-a-stm32mp-2.2.r2-r0/tf-a-stm32mp-2.2.r2/../build/trusted/bl2/xlat_tables_core.o
 .debug_frame   0x000000000000249c       0xc8 /home/ming/tf-a-stm32mp-2.2.r2-r0/tf-a-stm32mp-2.2.r2/../build/trusted/bl2/xlat_tables_utils.o
 .debug_frame   0x0000000000002564      0x10c /home/ming/tf-a-stm32mp-2.2.r2-r0/tf-a-stm32mp-2.2.r2/../build/trusted/bl2/tzc400.o
 .debug_frame   0x0000000000002670       0x54 /home/ming/tf-a-stm32mp-2.2.r2-r0/tf-a-stm32mp-2.2.r2/../build/trusted/bl2/delay_timer.o
 .debug_frame   0x00000000000026c4       0x58 /home/ming/tf-a-stm32mp-2.2.r2-r0/tf-a-stm32mp-2.2.r2/../build/trusted/bl2/generic_delay_timer.o
 .debug_frame   0x000000000000271c      0x334 /home/ming/tf-a-stm32mp-2.2.r2-r0/tf-a-stm32mp-2.2.r2/../build/trusted/bl2/bsec2.o
 .debug_frame   0x0000000000002a50      0x228 /home/ming/tf-a-stm32mp-2.2.r2-r0/tf-a-stm32mp-2.2.r2/../build/trusted/bl2/stm32mp_clkfunc.o
 .debug_frame   0x0000000000002c78      0x664 /home/ming/tf-a-stm32mp-2.2.r2-r0/tf-a-stm32mp-2.2.r2/../build/trusted/bl2/stm32mp1_clk.o
 .debug_frame   0x00000000000032dc      0x138 /home/ming/tf-a-stm32mp-2.2.r2-r0/tf-a-stm32mp-2.2.r2/../build/trusted/bl2/stm32mp1_ddr_helpers.o
 .debug_frame   0x0000000000003414       0xb0 /home/ming/tf-a-stm32mp-2.2.r2-r0/tf-a-stm32mp-2.2.r2/../build/trusted/bl2/stm32_gpio.o
 .debug_frame   0x00000000000034c4      0x1fc /home/ming/tf-a-stm32mp-2.2.r2-r0/tf-a-stm32mp-2.2.r2/../build/trusted/bl2/stm32_i2c.o
 .debug_frame   0x00000000000036c0       0x5c /home/ming/tf-a-stm32mp-2.2.r2-r0/tf-a-stm32mp-2.2.r2/../build/trusted/bl2/stm32_iwdg.o
 .debug_frame   0x000000000000371c      0x1f4 /home/ming/tf-a-stm32mp-2.2.r2-r0/tf-a-stm32mp-2.2.r2/../build/trusted/bl2/stm32mp_pmic.o
 .debug_frame   0x0000000000003910      0x254 /home/ming/tf-a-stm32mp-2.2.r2-r0/tf-a-stm32mp-2.2.r2/../build/trusted/bl2/stpmic1.o
 .debug_frame   0x0000000000003b64       0x40 /home/ming/tf-a-stm32mp-2.2.r2-r0/tf-a-stm32mp-2.2.r2/../build/trusted/bl2/stm32mp_dummy_regulator.o
 .debug_frame   0x0000000000003ba4       0x6c /home/ming/tf-a-stm32mp-2.2.r2-r0/tf-a-stm32mp-2.2.r2/../build/trusted/bl2/stm32mp_regulator.o
 .debug_frame   0x0000000000003c10       0x80 /home/ming/tf-a-stm32mp-2.2.r2-r0/tf-a-stm32mp-2.2.r2/../build/trusted/bl2/stm32mp1_reset.o
 .debug_frame   0x0000000000003c90      0x344 /home/ming/tf-a-stm32mp-2.2.r2-r0/tf-a-stm32mp-2.2.r2/../build/trusted/bl2/stm32mp_dt.o
 .debug_frame   0x0000000000003fd4       0xbc /home/ming/tf-a-stm32mp-2.2.r2-r0/tf-a-stm32mp-2.2.r2/../build/trusted/bl2/stm32mp_shres_helpers.o
 .debug_frame   0x0000000000004090      0x170 /home/ming/tf-a-stm32mp-2.2.r2-r0/tf-a-stm32mp-2.2.r2/../build/trusted/bl2/stm32mp1_context.o
 .debug_frame   0x0000000000004200       0x70 /home/ming/tf-a-stm32mp-2.2.r2-r0/tf-a-stm32mp-2.2.r2/../build/trusted/bl2/stm32mp1_dbgmcu.o
 .debug_frame   0x0000000000004270       0x4c /home/ming/tf-a-stm32mp-2.2.r2-r0/tf-a-stm32mp-2.2.r2/../build/trusted/bl2/stm32mp1_security.o
 .debug_frame   0x00000000000042bc       0x60 /home/ming/tf-a-stm32mp-2.2.r2-r0/tf-a-stm32mp-2.2.r2/../build/trusted/bl2/stm32mp1_syscfg.o
 .debug_frame   0x000000000000431c       0x30 /home/ming/tf-a-stm32mp-2.2.r2-r0/tf-a-stm32mp-2.2.r2/../build/trusted/bl2/spinlock.o
 .debug_frame   0x000000000000434c       0x30 /home/ming/tf-a-stm32mp-2.2.r2-r0/tf-a-stm32mp-2.2.r2/../build/trusted/bl2/platform_up_stack.o
 .debug_frame   0x000000000000437c       0x30 /home/ming/tf-a-stm32mp-2.2.r2-r0/tf-a-stm32mp-2.2.r2/../build/trusted/bl2/bl2_el3_entrypoint.o
 .debug_frame   0x00000000000043ac       0x60 /home/ming/tf-a-stm32mp-2.2.r2-r0/tf-a-stm32mp-2.2.r2/../build/trusted/bl2/cpu_helpers.o
 .debug_frame   0x000000000000440c       0x90 /home/ming/tf-a-stm32mp-2.2.r2-r0/tf-a-stm32mp-2.2.r2/../build/trusted/bl2/debug.o
 .debug_frame   0x000000000000449c       0xa0 /home/ming/tf-a-stm32mp-2.2.r2-r0/tf-a-stm32mp-2.2.r2/../build/trusted/bl2/cache_helpers.o
 .debug_frame   0x000000000000453c       0x60 /home/ming/tf-a-stm32mp-2.2.r2-r0/tf-a-stm32mp-2.2.r2/../build/trusted/bl2/misc_helpers.o
 .debug_frame   0x000000000000459c       0x80 /home/ming/tf-a-stm32mp-2.2.r2-r0/tf-a-stm32mp-2.2.r2/../build/trusted/bl2/stm32_console.o
 .debug_frame   0x000000000000461c       0x30 /home/ming/tf-a-stm32mp-2.2.r2-r0/tf-a-stm32mp-2.2.r2/../build/trusted/bl2/enable_mmu.o
 .debug_frame   0x000000000000464c       0x60 /home/ming/tf-a-stm32mp-2.2.r2-r0/tf-a-stm32mp-2.2.r2/../build/trusted/bl2/cortex_a7.o
 .debug_frame   0x00000000000046ac      0x110 /home/ming/tf-a-stm32mp-2.2.r2-r0/tf-a-stm32mp-2.2.r2/../build/trusted/bl2/stm32mp1_helper.o
 .debug_frame   0x00000000000047bc      0x14c /home/ming/tf-a-stm32mp-2.2.r2-r0/tf-a-stm32mp-2.2.r2/../build/trusted/lib/libfdt.a(fdt.o)
 .debug_frame   0x0000000000004908       0x48 /home/ming/tf-a-stm32mp-2.2.r2-r0/tf-a-stm32mp-2.2.r2/../build/trusted/lib/libfdt.a(fdt_addresses.o)
 .debug_frame   0x0000000000004950      0x4c4 /home/ming/tf-a-stm32mp-2.2.r2-r0/tf-a-stm32mp-2.2.r2/../build/trusted/lib/libfdt.a(fdt_ro.o)
 .debug_frame   0x0000000000004e14       0x28 /home/ming/tf-a-stm32mp-2.2.r2-r0/tf-a-stm32mp-2.2.r2/../build/trusted/lib/libc.a(assert.o)
 .debug_frame   0x0000000000004e3c       0x28 /home/ming/tf-a-stm32mp-2.2.r2-r0/tf-a-stm32mp-2.2.r2/../build/trusted/lib/libc.a(memchr.o)
 .debug_frame   0x0000000000004e64       0x28 /home/ming/tf-a-stm32mp-2.2.r2-r0/tf-a-stm32mp-2.2.r2/../build/trusted/lib/libc.a(memcmp.o)
 .debug_frame   0x0000000000004e8c       0x28 /home/ming/tf-a-stm32mp-2.2.r2-r0/tf-a-stm32mp-2.2.r2/../build/trusted/lib/libc.a(memcpy.o)
 .debug_frame   0x0000000000004eb4       0x3c /home/ming/tf-a-stm32mp-2.2.r2-r0/tf-a-stm32mp-2.2.r2/../build/trusted/lib/libc.a(memmove.o)
 .debug_frame   0x0000000000004ef0       0x20 /home/ming/tf-a-stm32mp-2.2.r2-r0/tf-a-stm32mp-2.2.r2/../build/trusted/lib/libc.a(memset.o)
 .debug_frame   0x0000000000004f10       0x98 /home/ming/tf-a-stm32mp-2.2.r2-r0/tf-a-stm32mp-2.2.r2/../build/trusted/lib/libc.a(printf.o)
 .debug_frame   0x0000000000004fa8       0x28 /home/ming/tf-a-stm32mp-2.2.r2-r0/tf-a-stm32mp-2.2.r2/../build/trusted/lib/libc.a(putchar.o)
 .debug_frame   0x0000000000004fd0       0x6c /home/ming/tf-a-stm32mp-2.2.r2-r0/tf-a-stm32mp-2.2.r2/../build/trusted/lib/libc.a(snprintf.o)
 .debug_frame   0x000000000000503c       0x20 /home/ming/tf-a-stm32mp-2.2.r2-r0/tf-a-stm32mp-2.2.r2/../build/trusted/lib/libc.a(strchr.o)
 .debug_frame   0x000000000000505c       0x20 /home/ming/tf-a-stm32mp-2.2.r2-r0/tf-a-stm32mp-2.2.r2/../build/trusted/lib/libc.a(strcmp.o)
 .debug_frame   0x000000000000507c       0x20 /home/ming/tf-a-stm32mp-2.2.r2-r0/tf-a-stm32mp-2.2.r2/../build/trusted/lib/libc.a(strlen.o)
 .debug_frame   0x000000000000509c       0x28 /home/ming/tf-a-stm32mp-2.2.r2-r0/tf-a-stm32mp-2.2.r2/../build/trusted/lib/libc.a(strncmp.o)
 .debug_frame   0x00000000000050c4       0x20 /home/ming/tf-a-stm32mp-2.2.r2-r0/tf-a-stm32mp-2.2.r2/../build/trusted/lib/libc.a(strnlen.o)
 .debug_frame   0x00000000000050e4       0x28 /home/ming/tf-a-stm32mp-2.2.r2-r0/tf-a-stm32mp-2.2.r2/../build/trusted/lib/libc.a(strrchr.o)
